ARM GAS  C:\Users\20398\AppData\Local\Temp\cczBaLIa.s 			page 1


   1              		.cpu cortex-m3
   2              		.arch armv7-m
   3              		.fpu softvfp
   4              		.eabi_attribute 20, 1
   5              		.eabi_attribute 21, 1
   6              		.eabi_attribute 23, 3
   7              		.eabi_attribute 24, 1
   8              		.eabi_attribute 25, 1
   9              		.eabi_attribute 26, 1
  10              		.eabi_attribute 30, 1
  11              		.eabi_attribute 34, 1
  12              		.eabi_attribute 18, 4
  13              		.file	"menu_task.c"
  14              		.text
  15              	.Ltext0:
  16              		.cfi_sections	.debug_frame
  17              		.section	.text.read_offset_rocker_from_flash,"ax",%progbits
  18              		.align	1
  19              		.syntax unified
  20              		.thumb
  21              		.thumb_func
  23              	read_offset_rocker_from_flash:
  24              	.LVL0:
  25              	.LFB74:
  26              		.file 1 "Application/menu_task.c"
   1:Application/menu_task.c **** #include "menu_task.h"
   2:Application/menu_task.c **** #include "stdio.h"
   3:Application/menu_task.c **** #include "stm32f1xx_hal.h"
   4:Application/menu_task.c **** #include "flash.h"
   5:Application/menu_task.c **** RC_t *rc;
   6:Application/menu_task.c **** 
   7:Application/menu_task.c **** static void write_offset_rocker_to_flash(uint16_t *offset_rocker)
   8:Application/menu_task.c **** {
   9:Application/menu_task.c ****     uint8_t buffer[12]; // ‰ª•Â≠óËäÇ‰∏∫Âçï‰ΩçÔºåÊØè‰∏™uint16_tÈúÄË¶Å2‰∏™Â≠óËäÇ
  10:Application/menu_task.c **** 
  11:Application/menu_task.c ****     // Â∞Üuint16_tÊï∞ÁªÑÂ§çÂà∂Âà∞uint8_tÁºìÂÜ≤Âå∫‰∏≠
  12:Application/menu_task.c ****     for (int i = 0; i < 6; i++)
  13:Application/menu_task.c ****     {
  14:Application/menu_task.c ****         buffer[i * 2] = (uint8_t)(offset_rocker[i] & 0xFF);            // ‰ΩéÂ≠óËäÇ
  15:Application/menu_task.c ****         buffer[i * 2 + 1] = (uint8_t)((offset_rocker[i] >> 8) & 0xFF); // È´òÂ≠óËäÇ
  16:Application/menu_task.c ****     }
  17:Application/menu_task.c **** 
  18:Application/menu_task.c ****     // Â∞ÜÊï∞ÊçÆÂÜôÂÖ•FlashÂ≠òÂÇ®Âô®
  19:Application/menu_task.c ****     FlashWriteBuff(REMOTE_OFFSET_ADDRESS, buffer, sizeof(buffer));
  20:Application/menu_task.c **** }
  21:Application/menu_task.c **** 
  22:Application/menu_task.c **** static void read_offset_rocker_from_flash(uint16_t *offset_rocker)
  23:Application/menu_task.c **** {
  27              		.loc 1 23 1 view -0
  28              		.cfi_startproc
  29              		@ args = 0, pretend = 0, frame = 16
  30              		@ frame_needed = 0, uses_anonymous_args = 0
  31              		.loc 1 23 1 is_stmt 0 view .LVU1
  32 0000 10B5     		push	{r4, lr}
  33              	.LCFI0:
  34              		.cfi_def_cfa_offset 8
  35              		.cfi_offset 4, -8
ARM GAS  C:\Users\20398\AppData\Local\Temp\cczBaLIa.s 			page 2


  36              		.cfi_offset 14, -4
  37 0002 84B0     		sub	sp, sp, #16
  38              	.LCFI1:
  39              		.cfi_def_cfa_offset 24
  40 0004 0446     		mov	r4, r0
  24:Application/menu_task.c ****     uint8_t buffer[12]; // ‰ª•Â≠óËäÇ‰∏∫Âçï‰ΩçÔºåÊØè‰∏™uint16_tÈúÄË¶Å2‰∏™Â≠óËäÇ
  41              		.loc 1 24 5 is_stmt 1 view .LVU2
  25:Application/menu_task.c **** 
  26:Application/menu_task.c ****     // ‰ªéFlashÂ≠òÂÇ®Âô®‰∏≠ËØªÂèñÊï∞ÊçÆÂà∞ÁºìÂÜ≤Âå∫
  27:Application/menu_task.c ****     FlashReadBuff(REMOTE_OFFSET_ADDRESS, buffer, sizeof(buffer));
  42              		.loc 1 27 5 view .LVU3
  43 0006 0C22     		movs	r2, #12
  44 0008 01A9     		add	r1, sp, #4
  45 000a 0C48     		ldr	r0, .L5
  46              	.LVL1:
  47              		.loc 1 27 5 is_stmt 0 view .LVU4
  48 000c FFF7FEFF 		bl	FlashReadBuff
  49              	.LVL2:
  28:Application/menu_task.c **** 
  29:Application/menu_task.c ****     // Â∞Üuint8_tÁºìÂÜ≤Âå∫Êï∞ÊçÆËΩ¨Êç¢‰∏∫uint16_tÊï∞ÁªÑ
  30:Application/menu_task.c ****     for (int i = 0; i < 6; i++)
  50              		.loc 1 30 5 is_stmt 1 view .LVU5
  51              	.LBB2:
  52              		.loc 1 30 10 view .LVU6
  53              		.loc 1 30 14 is_stmt 0 view .LVU7
  54 0010 0023     		movs	r3, #0
  55              		.loc 1 30 5 view .LVU8
  56 0012 0EE0     		b	.L2
  57              	.LVL3:
  58              	.L3:
  31:Application/menu_task.c ****     {
  32:Application/menu_task.c ****         offset_rocker[i] = (uint16_t)(buffer[i * 2] | (buffer[i * 2 + 1] << 8));
  59              		.loc 1 32 9 is_stmt 1 discriminator 3 view .LVU9
  60              		.loc 1 32 48 is_stmt 0 discriminator 3 view .LVU10
  61 0014 5A00     		lsls	r2, r3, #1
  62              		.loc 1 32 45 discriminator 3 view .LVU11
  63 0016 04A9     		add	r1, sp, #16
  64 0018 01EB4301 		add	r1, r1, r3, lsl #1
  65 001c 11F80C1C 		ldrb	r1, [r1, #-12]	@ zero_extendqisi2
  66              		.loc 1 32 62 discriminator 3 view .LVU12
  67 0020 1132     		adds	r2, r2, #17
  68 0022 6A44     		add	r2, sp, r2
  69 0024 12F80C2C 		ldrb	r2, [r2, #-12]	@ zero_extendqisi2
  70              		.loc 1 32 28 discriminator 3 view .LVU13
  71 0028 41EA0222 		orr	r2, r1, r2, lsl #8
  72              		.loc 1 32 26 discriminator 3 view .LVU14
  73 002c 24F81320 		strh	r2, [r4, r3, lsl #1]	@ movhi
  30:Application/menu_task.c ****     {
  74              		.loc 1 30 28 is_stmt 1 discriminator 3 view .LVU15
  30:Application/menu_task.c ****     {
  75              		.loc 1 30 29 is_stmt 0 discriminator 3 view .LVU16
  76 0030 0133     		adds	r3, r3, #1
  77              	.LVL4:
  78              	.L2:
  30:Application/menu_task.c ****     {
  79              		.loc 1 30 21 is_stmt 1 discriminator 1 view .LVU17
  30:Application/menu_task.c ****     {
ARM GAS  C:\Users\20398\AppData\Local\Temp\cczBaLIa.s 			page 3


  80              		.loc 1 30 5 is_stmt 0 discriminator 1 view .LVU18
  81 0032 052B     		cmp	r3, #5
  82 0034 EEDD     		ble	.L3
  83              	.LBE2:
  33:Application/menu_task.c ****     }
  34:Application/menu_task.c **** }
  84              		.loc 1 34 1 view .LVU19
  85 0036 04B0     		add	sp, sp, #16
  86              	.LCFI2:
  87              		.cfi_def_cfa_offset 8
  88              		@ sp needed
  89 0038 10BD     		pop	{r4, pc}
  90              	.LVL5:
  91              	.L6:
  92              		.loc 1 34 1 view .LVU20
  93 003a 00BF     		.align	2
  94              	.L5:
  95 003c 00FD0008 		.word	134282496
  96              		.cfi_endproc
  97              	.LFE74:
  99              		.section	.text.write_offset_rocker_to_flash,"ax",%progbits
 100              		.align	1
 101              		.syntax unified
 102              		.thumb
 103              		.thumb_func
 105              	write_offset_rocker_to_flash:
 106              	.LVL6:
 107              	.LFB73:
   8:Application/menu_task.c ****     uint8_t buffer[12]; // ‰ª•Â≠óËäÇ‰∏∫Âçï‰ΩçÔºåÊØè‰∏™uint16_tÈúÄË¶Å2‰∏™Â≠óËäÇ
 108              		.loc 1 8 1 is_stmt 1 view -0
 109              		.cfi_startproc
 110              		@ args = 0, pretend = 0, frame = 16
 111              		@ frame_needed = 0, uses_anonymous_args = 0
   8:Application/menu_task.c ****     uint8_t buffer[12]; // ‰ª•Â≠óËäÇ‰∏∫Âçï‰ΩçÔºåÊØè‰∏™uint16_tÈúÄË¶Å2‰∏™Â≠óËäÇ
 112              		.loc 1 8 1 is_stmt 0 view .LVU22
 113 0000 00B5     		push	{lr}
 114              	.LCFI3:
 115              		.cfi_def_cfa_offset 4
 116              		.cfi_offset 14, -4
 117 0002 85B0     		sub	sp, sp, #20
 118              	.LCFI4:
 119              		.cfi_def_cfa_offset 24
   9:Application/menu_task.c **** 
 120              		.loc 1 9 5 is_stmt 1 view .LVU23
  12:Application/menu_task.c ****     {
 121              		.loc 1 12 5 view .LVU24
 122              	.LBB3:
  12:Application/menu_task.c ****     {
 123              		.loc 1 12 10 view .LVU25
 124              	.LVL7:
  12:Application/menu_task.c ****     {
 125              		.loc 1 12 14 is_stmt 0 view .LVU26
 126 0004 0023     		movs	r3, #0
  12:Application/menu_task.c ****     {
 127              		.loc 1 12 5 view .LVU27
 128 0006 0EE0     		b	.L8
 129              	.LVL8:
ARM GAS  C:\Users\20398\AppData\Local\Temp\cczBaLIa.s 			page 4


 130              	.L9:
  14:Application/menu_task.c ****         buffer[i * 2 + 1] = (uint8_t)((offset_rocker[i] >> 8) & 0xFF); // È´òÂ≠óËäÇ
 131              		.loc 1 14 9 is_stmt 1 discriminator 3 view .LVU28
  14:Application/menu_task.c ****         buffer[i * 2 + 1] = (uint8_t)((offset_rocker[i] >> 8) & 0xFF); // È´òÂ≠óËäÇ
 132              		.loc 1 14 48 is_stmt 0 discriminator 3 view .LVU29
 133 0008 5A00     		lsls	r2, r3, #1
 134 000a 30F81310 		ldrh	r1, [r0, r3, lsl #1]
  14:Application/menu_task.c ****         buffer[i * 2 + 1] = (uint8_t)((offset_rocker[i] >> 8) & 0xFF); // È´òÂ≠óËäÇ
 135              		.loc 1 14 23 discriminator 3 view .LVU30
 136 000e 0DF1100C 		add	ip, sp, #16
 137 0012 0CEB430C 		add	ip, ip, r3, lsl #1
 138 0016 0CF80C1C 		strb	r1, [ip, #-12]
  15:Application/menu_task.c ****     }
 139              		.loc 1 15 9 is_stmt 1 discriminator 3 view .LVU31
  15:Application/menu_task.c ****     }
 140              		.loc 1 15 29 is_stmt 0 discriminator 3 view .LVU32
 141 001a 090A     		lsrs	r1, r1, #8
  15:Application/menu_task.c ****     }
 142              		.loc 1 15 27 discriminator 3 view .LVU33
 143 001c 1132     		adds	r2, r2, #17
 144 001e 6A44     		add	r2, sp, r2
 145 0020 02F80C1C 		strb	r1, [r2, #-12]
  12:Application/menu_task.c ****     {
 146              		.loc 1 12 28 is_stmt 1 discriminator 3 view .LVU34
  12:Application/menu_task.c ****     {
 147              		.loc 1 12 29 is_stmt 0 discriminator 3 view .LVU35
 148 0024 0133     		adds	r3, r3, #1
 149              	.LVL9:
 150              	.L8:
  12:Application/menu_task.c ****     {
 151              		.loc 1 12 21 is_stmt 1 discriminator 1 view .LVU36
  12:Application/menu_task.c ****     {
 152              		.loc 1 12 5 is_stmt 0 discriminator 1 view .LVU37
 153 0026 052B     		cmp	r3, #5
 154 0028 EEDD     		ble	.L9
 155              	.LBE3:
  19:Application/menu_task.c **** }
 156              		.loc 1 19 5 is_stmt 1 view .LVU38
 157 002a 0C22     		movs	r2, #12
 158 002c 01A9     		add	r1, sp, #4
 159 002e 0348     		ldr	r0, .L11
 160              	.LVL10:
  19:Application/menu_task.c **** }
 161              		.loc 1 19 5 is_stmt 0 view .LVU39
 162 0030 FFF7FEFF 		bl	FlashWriteBuff
 163              	.LVL11:
  20:Application/menu_task.c **** 
 164              		.loc 1 20 1 view .LVU40
 165 0034 05B0     		add	sp, sp, #20
 166              	.LCFI5:
 167              		.cfi_def_cfa_offset 4
 168              		@ sp needed
 169 0036 5DF804FB 		ldr	pc, [sp], #4
 170              	.L12:
 171 003a 00BF     		.align	2
 172              	.L11:
 173 003c 00FD0008 		.word	134282496
ARM GAS  C:\Users\20398\AppData\Local\Temp\cczBaLIa.s 			page 5


 174              		.cfi_endproc
 175              	.LFE73:
 177              		.section	.text.MENU_Init,"ax",%progbits
 178              		.align	1
 179              		.global	MENU_Init
 180              		.syntax unified
 181              		.thumb
 182              		.thumb_func
 184              	MENU_Init:
 185              	.LFB75:
  35:Application/menu_task.c **** void MENU_Init(void)
  36:Application/menu_task.c **** {
 186              		.loc 1 36 1 is_stmt 1 view -0
 187              		.cfi_startproc
 188              		@ args = 0, pretend = 0, frame = 0
 189              		@ frame_needed = 0, uses_anonymous_args = 0
 190 0000 08B5     		push	{r3, lr}
 191              	.LCFI6:
 192              		.cfi_def_cfa_offset 8
 193              		.cfi_offset 3, -8
 194              		.cfi_offset 14, -4
  37:Application/menu_task.c ****     rc = GetRCpointer();
 195              		.loc 1 37 5 view .LVU42
 196              		.loc 1 37 10 is_stmt 0 view .LVU43
 197 0002 FFF7FEFF 		bl	GetRCpointer
 198              	.LVL12:
 199              		.loc 1 37 8 view .LVU44
 200 0006 034B     		ldr	r3, .L15
 201 0008 1860     		str	r0, [r3]
  38:Application/menu_task.c ****     read_offset_rocker_from_flash(rc->offset_rocker);
 202              		.loc 1 38 5 is_stmt 1 view .LVU45
 203 000a 0A30     		adds	r0, r0, #10
 204 000c FFF7FEFF 		bl	read_offset_rocker_from_flash
 205              	.LVL13:
  39:Application/menu_task.c **** }
 206              		.loc 1 39 1 is_stmt 0 view .LVU46
 207 0010 08BD     		pop	{r3, pc}
 208              	.L16:
 209 0012 00BF     		.align	2
 210              	.L15:
 211 0014 00000000 		.word	.LANCHOR0
 212              		.cfi_endproc
 213              	.LFE75:
 215              		.global	__aeabi_ui2f
 216              		.global	__aeabi_fdiv
 217              		.global	__aeabi_fmul
 218              		.global	__aeabi_f2uiz
 219              		.section	.text.MENU_RockerInfo,"ax",%progbits
 220              		.align	1
 221              		.global	MENU_RockerInfo
 222              		.syntax unified
 223              		.thumb
 224              		.thumb_func
 226              	MENU_RockerInfo:
 227              	.LFB76:
  40:Application/menu_task.c **** 
  41:Application/menu_task.c **** void MENU_RockerInfo(void)
ARM GAS  C:\Users\20398\AppData\Local\Temp\cczBaLIa.s 			page 6


  42:Application/menu_task.c **** {
 228              		.loc 1 42 1 is_stmt 1 view -0
 229              		.cfi_startproc
 230              		@ args = 0, pretend = 0, frame = 0
 231              		@ frame_needed = 0, uses_anonymous_args = 0
 232 0000 10B5     		push	{r4, lr}
 233              	.LCFI7:
 234              		.cfi_def_cfa_offset 8
 235              		.cfi_offset 4, -8
 236              		.cfi_offset 14, -4
 237 0002 82B0     		sub	sp, sp, #8
 238              	.LCFI8:
 239              		.cfi_def_cfa_offset 16
 240 0004 8FE0     		b	.L33
 241              	.LVL14:
 242              	.L19:
 243              	.LBB4:
  43:Application/menu_task.c ****     while (1)
  44:Application/menu_task.c ****     {
  45:Application/menu_task.c ****         OLED_NewFrame();
  46:Application/menu_task.c ****         for (int i = 0; i < 2; i++)
  47:Application/menu_task.c ****         {
  48:Application/menu_task.c ****             OLED_DrawFilledRectangle(7 + i * 64, 10, (((float)rc->res.potVal[i] / 255) * 50), 5, 0)
 244              		.loc 1 48 13 discriminator 3 view .LVU48
 245              		.loc 1 48 65 is_stmt 0 discriminator 3 view .LVU49
 246 0006 604B     		ldr	r3, .L35
 247 0008 1B68     		ldr	r3, [r3]
 248              		.loc 1 48 77 discriminator 3 view .LVU50
 249 000a 2344     		add	r3, r3, r4
 250              		.loc 1 48 56 discriminator 3 view .LVU51
 251 000c D87D     		ldrb	r0, [r3, #23]	@ zero_extendqisi2
 252 000e FFF7FEFF 		bl	__aeabi_ui2f
 253              	.LVL15:
 254              		.loc 1 48 81 discriminator 3 view .LVU52
 255 0012 5E49     		ldr	r1, .L35+4
 256 0014 FFF7FEFF 		bl	__aeabi_fdiv
 257              	.LVL16:
 258              		.loc 1 48 88 discriminator 3 view .LVU53
 259 0018 5D49     		ldr	r1, .L35+8
 260 001a FFF7FEFF 		bl	__aeabi_fmul
 261              	.LVL17:
 262              		.loc 1 48 13 discriminator 3 view .LVU54
 263 001e FFF7FEFF 		bl	__aeabi_f2uiz
 264              	.LVL18:
 265 0022 4FEA841C 		lsl	ip, r4, #6
 266 0026 0CF1070C 		add	ip, ip, #7
 267 002a 0023     		movs	r3, #0
 268 002c 0093     		str	r3, [sp]
 269 002e 0523     		movs	r3, #5
 270 0030 C2B2     		uxtb	r2, r0
 271 0032 0A21     		movs	r1, #10
 272 0034 5FFA8CF0 		uxtb	r0, ip
 273 0038 FFF7FEFF 		bl	OLED_DrawFilledRectangle
 274              	.LVL19:
  46:Application/menu_task.c ****         {
 275              		.loc 1 46 32 is_stmt 1 discriminator 3 view .LVU55
  46:Application/menu_task.c ****         {
ARM GAS  C:\Users\20398\AppData\Local\Temp\cczBaLIa.s 			page 7


 276              		.loc 1 46 33 is_stmt 0 discriminator 3 view .LVU56
 277 003c 0134     		adds	r4, r4, #1
 278              	.LVL20:
 279              	.L18:
  46:Application/menu_task.c ****         {
 280              		.loc 1 46 25 is_stmt 1 discriminator 1 view .LVU57
  46:Application/menu_task.c ****         {
 281              		.loc 1 46 9 is_stmt 0 discriminator 1 view .LVU58
 282 003e 012C     		cmp	r4, #1
 283 0040 E1DD     		ble	.L19
 284              	.LBE4:
  49:Application/menu_task.c ****         }
  50:Application/menu_task.c ****         if (rc->info->key.bits.sw1)
 285              		.loc 1 50 9 is_stmt 1 view .LVU59
 286              		.loc 1 50 15 is_stmt 0 view .LVU60
 287 0042 514B     		ldr	r3, .L35
 288 0044 1B68     		ldr	r3, [r3]
 289 0046 1B68     		ldr	r3, [r3]
 290              		.loc 1 50 13 view .LVU61
 291 0048 1B78     		ldrb	r3, [r3]	@ zero_extendqisi2
 292              		.loc 1 50 12 view .LVU62
 293 004a 13F0010F 		tst	r3, #1
 294 004e 6ED0     		beq	.L20
  51:Application/menu_task.c ****             OLED_DrawFilledCircle(16, 25, 5, 0);
 295              		.loc 1 51 13 is_stmt 1 view .LVU63
 296 0050 0023     		movs	r3, #0
 297 0052 0522     		movs	r2, #5
 298 0054 1921     		movs	r1, #25
 299 0056 1020     		movs	r0, #16
 300 0058 FFF7FEFF 		bl	OLED_DrawFilledCircle
 301              	.LVL21:
 302              	.L21:
  52:Application/menu_task.c ****         else
  53:Application/menu_task.c ****             OLED_DrawCircle(16, 25, 5, 0);
  54:Application/menu_task.c ****         if (rc->info->key.bits.sw2)
 303              		.loc 1 54 9 view .LVU64
 304              		.loc 1 54 15 is_stmt 0 view .LVU65
 305 005c 4A4B     		ldr	r3, .L35
 306 005e 1B68     		ldr	r3, [r3]
 307 0060 1B68     		ldr	r3, [r3]
 308              		.loc 1 54 13 view .LVU66
 309 0062 1B78     		ldrb	r3, [r3]	@ zero_extendqisi2
 310              		.loc 1 54 12 view .LVU67
 311 0064 13F0020F 		tst	r3, #2
 312 0068 68D0     		beq	.L22
  55:Application/menu_task.c ****             OLED_DrawFilledCircle(128 - 16, 25, 5, 0);
 313              		.loc 1 55 13 is_stmt 1 view .LVU68
 314 006a 0023     		movs	r3, #0
 315 006c 0522     		movs	r2, #5
 316 006e 1921     		movs	r1, #25
 317 0070 7020     		movs	r0, #112
 318 0072 FFF7FEFF 		bl	OLED_DrawFilledCircle
 319              	.LVL22:
 320              	.L23:
  56:Application/menu_task.c ****         else
  57:Application/menu_task.c ****             OLED_DrawCircle(128 - 16, 25, 5, 0);
  58:Application/menu_task.c ****         if (rc->info->key.bits.key0)
ARM GAS  C:\Users\20398\AppData\Local\Temp\cczBaLIa.s 			page 8


 321              		.loc 1 58 9 view .LVU69
 322              		.loc 1 58 15 is_stmt 0 view .LVU70
 323 0076 444B     		ldr	r3, .L35
 324 0078 1B68     		ldr	r3, [r3]
 325 007a 1B68     		ldr	r3, [r3]
 326              		.loc 1 58 13 view .LVU71
 327 007c 1B78     		ldrb	r3, [r3]	@ zero_extendqisi2
 328              		.loc 1 58 12 view .LVU72
 329 007e 13F0040F 		tst	r3, #4
 330 0082 62D0     		beq	.L24
  59:Application/menu_task.c ****             OLED_DrawFilledCircle(33, 23, 3, 0);
 331              		.loc 1 59 13 is_stmt 1 view .LVU73
 332 0084 0023     		movs	r3, #0
 333 0086 0322     		movs	r2, #3
 334 0088 1721     		movs	r1, #23
 335 008a 2120     		movs	r0, #33
 336 008c FFF7FEFF 		bl	OLED_DrawFilledCircle
 337              	.LVL23:
 338              	.L25:
  60:Application/menu_task.c ****         else
  61:Application/menu_task.c ****             OLED_DrawCircle(33, 23, 3, 0);
  62:Application/menu_task.c ****         if (rc->info->key.bits.key1)
 339              		.loc 1 62 9 view .LVU74
 340              		.loc 1 62 15 is_stmt 0 view .LVU75
 341 0090 3D4B     		ldr	r3, .L35
 342 0092 1B68     		ldr	r3, [r3]
 343 0094 1B68     		ldr	r3, [r3]
 344              		.loc 1 62 13 view .LVU76
 345 0096 1B78     		ldrb	r3, [r3]	@ zero_extendqisi2
 346              		.loc 1 62 12 view .LVU77
 347 0098 13F0080F 		tst	r3, #8
 348 009c 5CD0     		beq	.L26
  63:Application/menu_task.c ****             OLED_DrawFilledCircle(33 + 18, 23, 3, 0);
 349              		.loc 1 63 13 is_stmt 1 view .LVU78
 350 009e 0023     		movs	r3, #0
 351 00a0 0322     		movs	r2, #3
 352 00a2 1721     		movs	r1, #23
 353 00a4 3320     		movs	r0, #51
 354 00a6 FFF7FEFF 		bl	OLED_DrawFilledCircle
 355              	.LVL24:
 356              	.L27:
  64:Application/menu_task.c ****         else
  65:Application/menu_task.c ****             OLED_DrawCircle(33 + 18, 23, 3, 0);
  66:Application/menu_task.c ****         if (rc->info->key.bits.key2)
 357              		.loc 1 66 9 view .LVU79
 358              		.loc 1 66 15 is_stmt 0 view .LVU80
 359 00aa 374B     		ldr	r3, .L35
 360 00ac 1B68     		ldr	r3, [r3]
 361 00ae 1B68     		ldr	r3, [r3]
 362              		.loc 1 66 13 view .LVU81
 363 00b0 1B78     		ldrb	r3, [r3]	@ zero_extendqisi2
 364              		.loc 1 66 12 view .LVU82
 365 00b2 13F0100F 		tst	r3, #16
 366 00b6 56D0     		beq	.L28
  67:Application/menu_task.c ****             OLED_DrawFilledCircle(36 + 40, 23, 3, 0);
 367              		.loc 1 67 13 is_stmt 1 view .LVU83
 368 00b8 0023     		movs	r3, #0
ARM GAS  C:\Users\20398\AppData\Local\Temp\cczBaLIa.s 			page 9


 369 00ba 0322     		movs	r2, #3
 370 00bc 1721     		movs	r1, #23
 371 00be 4C20     		movs	r0, #76
 372 00c0 FFF7FEFF 		bl	OLED_DrawFilledCircle
 373              	.LVL25:
 374              	.L29:
  68:Application/menu_task.c ****         else
  69:Application/menu_task.c ****             OLED_DrawCircle(36 + 40, 23, 3, 0);
  70:Application/menu_task.c ****         if (rc->info->key.bits.key3)
 375              		.loc 1 70 9 view .LVU84
 376              		.loc 1 70 15 is_stmt 0 view .LVU85
 377 00c4 304B     		ldr	r3, .L35
 378 00c6 1B68     		ldr	r3, [r3]
 379 00c8 1B68     		ldr	r3, [r3]
 380              		.loc 1 70 13 view .LVU86
 381 00ca 1B78     		ldrb	r3, [r3]	@ zero_extendqisi2
 382              		.loc 1 70 12 view .LVU87
 383 00cc 13F0200F 		tst	r3, #32
 384 00d0 50D0     		beq	.L30
  71:Application/menu_task.c ****             OLED_DrawFilledCircle(128 - 36, 23, 3, 0);
 385              		.loc 1 71 13 is_stmt 1 view .LVU88
 386 00d2 0023     		movs	r3, #0
 387 00d4 0322     		movs	r2, #3
 388 00d6 1721     		movs	r1, #23
 389 00d8 5C20     		movs	r0, #92
 390 00da FFF7FEFF 		bl	OLED_DrawFilledCircle
 391              	.LVL26:
 392              	.L31:
  72:Application/menu_task.c ****         else
  73:Application/menu_task.c ****             OLED_DrawCircle(128 - 36, 23, 3, 0);
  74:Application/menu_task.c ****         OLED_DrawRectangle(30, 30, 35 / 1.5, 42 / 1.5, 0);
 393              		.loc 1 74 9 view .LVU89
 394 00de 0024     		movs	r4, #0
 395              	.LVL27:
 396              		.loc 1 74 9 is_stmt 0 view .LVU90
 397 00e0 0094     		str	r4, [sp]
 398 00e2 1C23     		movs	r3, #28
 399 00e4 1722     		movs	r2, #23
 400 00e6 1E21     		movs	r1, #30
 401 00e8 0846     		mov	r0, r1
 402 00ea FFF7FEFF 		bl	OLED_DrawRectangle
 403              	.LVL28:
  75:Application/menu_task.c ****         OLED_DrawFilledCircle(30 + (35 / 1.5) / 2, 30 + (42 / 1.5) / 2, 2, 0); // Ë°®Á§∫ÊëáÊùÜ‰ΩçÁΩ
 404              		.loc 1 75 9 is_stmt 1 view .LVU91
 405 00ee 2346     		mov	r3, r4
 406 00f0 0222     		movs	r2, #2
 407 00f2 2C21     		movs	r1, #44
 408 00f4 2920     		movs	r0, #41
 409 00f6 FFF7FEFF 		bl	OLED_DrawFilledCircle
 410              	.LVL29:
  76:Application/menu_task.c ****         OLED_DrawRectangle(128 - 30 - 35 / 1.5, 30, 35 / 1.5, 42 / 1.5, 0);
 411              		.loc 1 76 9 view .LVU92
 412 00fa 0094     		str	r4, [sp]
 413 00fc 1C23     		movs	r3, #28
 414 00fe 1722     		movs	r2, #23
 415 0100 1E21     		movs	r1, #30
 416 0102 4A20     		movs	r0, #74
ARM GAS  C:\Users\20398\AppData\Local\Temp\cczBaLIa.s 			page 10


 417 0104 FFF7FEFF 		bl	OLED_DrawRectangle
 418              	.LVL30:
  77:Application/menu_task.c ****         OLED_DrawFilledCircle(128 - 30 - 35 / 1.5 + (35 / 1.5) / 2, 30 + (42 / 1.5) / 2, 2, 0); // 
 419              		.loc 1 77 9 view .LVU93
 420 0108 2346     		mov	r3, r4
 421 010a 0222     		movs	r2, #2
 422 010c 2C21     		movs	r1, #44
 423 010e 5620     		movs	r0, #86
 424 0110 FFF7FEFF 		bl	OLED_DrawFilledCircle
 425              	.LVL31:
  78:Application/menu_task.c ****         OLED_ShowFrame();
 426              		.loc 1 78 9 view .LVU94
 427 0114 FFF7FEFF 		bl	OLED_ShowFrame
 428              	.LVL32:
  79:Application/menu_task.c **** 
  80:Application/menu_task.c ****         if (menu_command_callback(GET_EVENT_BACK))
 429              		.loc 1 80 9 view .LVU95
 430              		.loc 1 80 13 is_stmt 0 view .LVU96
 431 0118 0620     		movs	r0, #6
 432 011a FFF7FEFF 		bl	menu_command_callback
 433              	.LVL33:
 434              		.loc 1 80 12 view .LVU97
 435 011e 80BB     		cbnz	r0, .L17
  81:Application/menu_task.c ****             break;
  82:Application/menu_task.c ****         osDelay(5);
 436              		.loc 1 82 9 is_stmt 1 view .LVU98
 437 0120 0520     		movs	r0, #5
 438 0122 FFF7FEFF 		bl	osDelay
 439              	.LVL34:
  43:Application/menu_task.c ****     {
 440              		.loc 1 43 11 view .LVU99
 441              	.L33:
  43:Application/menu_task.c ****     {
 442              		.loc 1 43 5 view .LVU100
  45:Application/menu_task.c ****         for (int i = 0; i < 2; i++)
 443              		.loc 1 45 9 view .LVU101
 444 0126 FFF7FEFF 		bl	OLED_NewFrame
 445              	.LVL35:
  46:Application/menu_task.c ****         {
 446              		.loc 1 46 9 view .LVU102
 447              	.LBB5:
  46:Application/menu_task.c ****         {
 448              		.loc 1 46 14 view .LVU103
  46:Application/menu_task.c ****         {
 449              		.loc 1 46 18 is_stmt 0 view .LVU104
 450 012a 0024     		movs	r4, #0
  46:Application/menu_task.c ****         {
 451              		.loc 1 46 9 view .LVU105
 452 012c 87E7     		b	.L18
 453              	.LVL36:
 454              	.L20:
  46:Application/menu_task.c ****         {
 455              		.loc 1 46 9 view .LVU106
 456              	.LBE5:
  53:Application/menu_task.c ****         if (rc->info->key.bits.sw2)
 457              		.loc 1 53 13 is_stmt 1 view .LVU107
 458 012e 0023     		movs	r3, #0
ARM GAS  C:\Users\20398\AppData\Local\Temp\cczBaLIa.s 			page 11


 459 0130 0522     		movs	r2, #5
 460 0132 1921     		movs	r1, #25
 461 0134 1020     		movs	r0, #16
 462 0136 FFF7FEFF 		bl	OLED_DrawCircle
 463              	.LVL37:
 464 013a 8FE7     		b	.L21
 465              	.L22:
  57:Application/menu_task.c ****         if (rc->info->key.bits.key0)
 466              		.loc 1 57 13 view .LVU108
 467 013c 0023     		movs	r3, #0
 468 013e 0522     		movs	r2, #5
 469 0140 1921     		movs	r1, #25
 470 0142 7020     		movs	r0, #112
 471 0144 FFF7FEFF 		bl	OLED_DrawCircle
 472              	.LVL38:
 473 0148 95E7     		b	.L23
 474              	.L24:
  61:Application/menu_task.c ****         if (rc->info->key.bits.key1)
 475              		.loc 1 61 13 view .LVU109
 476 014a 0023     		movs	r3, #0
 477 014c 0322     		movs	r2, #3
 478 014e 1721     		movs	r1, #23
 479 0150 2120     		movs	r0, #33
 480 0152 FFF7FEFF 		bl	OLED_DrawCircle
 481              	.LVL39:
 482 0156 9BE7     		b	.L25
 483              	.L26:
  65:Application/menu_task.c ****         if (rc->info->key.bits.key2)
 484              		.loc 1 65 13 view .LVU110
 485 0158 0023     		movs	r3, #0
 486 015a 0322     		movs	r2, #3
 487 015c 1721     		movs	r1, #23
 488 015e 3320     		movs	r0, #51
 489 0160 FFF7FEFF 		bl	OLED_DrawCircle
 490              	.LVL40:
 491 0164 A1E7     		b	.L27
 492              	.L28:
  69:Application/menu_task.c ****         if (rc->info->key.bits.key3)
 493              		.loc 1 69 13 view .LVU111
 494 0166 0023     		movs	r3, #0
 495 0168 0322     		movs	r2, #3
 496 016a 1721     		movs	r1, #23
 497 016c 4C20     		movs	r0, #76
 498 016e FFF7FEFF 		bl	OLED_DrawCircle
 499              	.LVL41:
 500 0172 A7E7     		b	.L29
 501              	.L30:
  73:Application/menu_task.c ****         OLED_DrawRectangle(30, 30, 35 / 1.5, 42 / 1.5, 0);
 502              		.loc 1 73 13 view .LVU112
 503 0174 0023     		movs	r3, #0
 504 0176 0322     		movs	r2, #3
 505 0178 1721     		movs	r1, #23
 506 017a 5C20     		movs	r0, #92
 507 017c FFF7FEFF 		bl	OLED_DrawCircle
 508              	.LVL42:
 509 0180 ADE7     		b	.L31
 510              	.LVL43:
ARM GAS  C:\Users\20398\AppData\Local\Temp\cczBaLIa.s 			page 12


 511              	.L17:
  83:Application/menu_task.c ****     }
  84:Application/menu_task.c **** }
 512              		.loc 1 84 1 is_stmt 0 view .LVU113
 513 0182 02B0     		add	sp, sp, #8
 514              	.LCFI9:
 515              		.cfi_def_cfa_offset 8
 516              		@ sp needed
 517 0184 10BD     		pop	{r4, pc}
 518              	.L36:
 519 0186 00BF     		.align	2
 520              	.L35:
 521 0188 00000000 		.word	.LANCHOR0
 522 018c 00007F43 		.word	1132396544
 523 0190 00004842 		.word	1112014848
 524              		.cfi_endproc
 525              	.LFE76:
 527              		.section	.rodata.MENU_Calibration.str1.4,"aMS",%progbits,1
 528              		.align	2
 529              	.LC0:
 530 0000 E69187E6 		.ascii	"\346\221\207\346\235\206\346\240\241\345\207\206\000"
 530      9D86E6A0 
 530      A1E58786 
 530      00
 531 000d 000000   		.align	2
 532              	.LC1:
 533 0010 E5B086E6 		.ascii	"\345\260\206\346\211\200\346\234\211\346\221\207\346"
 533      8980E69C 
 533      89E69187 
 533      E6
 534 001d 9D86E5BD 		.ascii	"\235\206\345\275\222\344\270\255\000"
 534      92E4B8AD 
 534      00
 535 0026 0000     		.align	2
 536              	.LC2:
 537 0028 E68C89E4 		.ascii	"\346\214\211\344\270\213\347\241\256\350\256\244\351"
 537      B88BE7A1 
 537      AEE8AEA4 
 537      E9
 538 0035 94AEE6A0 		.ascii	"\224\256\346\240\241\345\207\206\000"
 538      A1E58786 
 538      00
 539 003e 0000     		.align	2
 540              	.LC3:
 541 0040 E6A0A1E5 		.ascii	"\346\240\241\345\207\206\344\270\255\000"
 541      8786E4B8 
 541      AD00
 542 004a 0000     		.align	2
 543              	.LC4:
 544 004c E6A0A1E5 		.ascii	"\346\240\241\345\207\206\345\256\214\346\210\220\000"
 544      8786E5AE 
 544      8CE68890 
 544      00
 545 0059 000000   		.align	2
 546              	.LC5:
 547 005c E68C89E4 		.ascii	"\346\214\211\344\270\213\347\241\256\350\256\244\351"
 547      B88BE7A1 
ARM GAS  C:\Users\20398\AppData\Local\Temp\cczBaLIa.s 			page 13


 547      AEE8AEA4 
 547      E9
 548 0069 94AEE987 		.ascii	"\224\256\351\207\215\346\226\260\346\240\241\345\207"
 548      8DE696B0 
 548      E6A0A1E5 
 548      87
 549 0076 8600     		.ascii	"\206\000"
 550              		.align	2
 551              	.LC6:
 552 0078 E68C89E4 		.ascii	"\346\214\211\344\270\213\350\277\224\345\233\236\351"
 552      B88BE8BF 
 552      94E59B9E 
 552      E9
 553 0085 94AEE8BF 		.ascii	"\224\256\350\277\224\345\233\236\350\217\234\345\215"
 553      94E59B9E 
 553      E88F9CE5 
 553      8D
 554 0092 9500     		.ascii	"\225\000"
 555              		.section	.text.MENU_Calibration,"ax",%progbits
 556              		.align	1
 557              		.global	MENU_Calibration
 558              		.syntax unified
 559              		.thumb
 560              		.thumb_func
 562              	MENU_Calibration:
 563              	.LFB77:
  85:Application/menu_task.c **** 
  86:Application/menu_task.c **** void MENU_Calibration(void)
  87:Application/menu_task.c **** {
 564              		.loc 1 87 1 is_stmt 1 view -0
 565              		.cfi_startproc
 566              		@ args = 0, pretend = 0, frame = 0
 567              		@ frame_needed = 0, uses_anonymous_args = 0
 568 0000 30B5     		push	{r4, r5, lr}
 569              	.LCFI10:
 570              		.cfi_def_cfa_offset 12
 571              		.cfi_offset 4, -12
 572              		.cfi_offset 5, -8
 573              		.cfi_offset 14, -4
 574 0002 83B0     		sub	sp, sp, #12
 575              	.LCFI11:
 576              		.cfi_def_cfa_offset 24
 577 0004 11E0     		b	.L53
 578              	.L38:
 579              	.LBB6:
  88:Application/menu_task.c ****     while (1)
  89:Application/menu_task.c ****     {
  90:Application/menu_task.c ****         // Áä∂ÊÄÅÊú∫ÊÄùÊÉ≥
  91:Application/menu_task.c ****         static uint8_t state = 0;
  92:Application/menu_task.c ****         static uint32_t adc_sum[6];
  93:Application/menu_task.c ****         static uint16_t adc_cnt = 0;
  94:Application/menu_task.c ****         if (state == 0)
  95:Application/menu_task.c ****         {
  96:Application/menu_task.c ****             // ÊòæÁ§∫Ê†°ÂáÜÊèêÁ§∫Ôºöplz Center all joysticks.
  97:Application/menu_task.c ****             // Êåâ‰∏ãÁ°ÆËÆ§ÊåâÈîÆÂêé ÔºåËøõË°åÊ†°ÂáÜ
  98:Application/menu_task.c ****             OLED_NewFrame();
  99:Application/menu_task.c ****             OLED_PrintString(35, 10, "ÊëáÊùÜÊ†°ÂáÜ", &font16x16, 0);
ARM GAS  C:\Users\20398\AppData\Local\Temp\cczBaLIa.s 			page 14


 100:Application/menu_task.c ****             OLED_PrintString(17, 30, "Â∞ÜÊâÄÊúâÊëáÊùÜÂΩí‰∏≠", &font14x14, 0);
 101:Application/menu_task.c ****             OLED_PrintString(17, 46, "Êåâ‰∏ãÁ°ÆËÆ§ÈîÆÊ†°ÂáÜ", &font14x14, 0);
 102:Application/menu_task.c ****             OLED_ShowFrame();
 103:Application/menu_task.c ****             if (menu_command_callback(GET_EVENT_ENTER))
 104:Application/menu_task.c ****                 state = 1;
 105:Application/menu_task.c ****         }
 106:Application/menu_task.c ****         if (state == 1)
 580              		.loc 1 106 9 view .LVU115
 581              		.loc 1 106 19 is_stmt 0 view .LVU116
 582 0006 784B     		ldr	r3, .L59
 583 0008 1B78     		ldrb	r3, [r3]	@ zero_extendqisi2
 584              		.loc 1 106 12 view .LVU117
 585 000a 012B     		cmp	r3, #1
 586 000c 35D0     		beq	.L56
 587              	.L39:
 107:Application/menu_task.c ****         {
 108:Application/menu_task.c ****             OLED_NewFrame();
 109:Application/menu_task.c ****             OLED_PrintString(42, 15, "Ê†°ÂáÜ‰∏≠", &font16x16, 0);
 110:Application/menu_task.c ****             OLED_DrawFilledRectangle(16, 45, ((float)adc_cnt / 800) * 100, 12, 0);
 111:Application/menu_task.c ****             OLED_ShowFrame();
 112:Application/menu_task.c ****             for (int i = 0; i < 4; i++)
 113:Application/menu_task.c ****             {
 114:Application/menu_task.c ****                 adc_sum[2 + i] += rc->info->rockerVal[i];
 115:Application/menu_task.c ****                 adc_cnt++;
 116:Application/menu_task.c ****             }
 117:Application/menu_task.c ****             for (int i = 0; i < 2; i++)
 118:Application/menu_task.c ****             {
 119:Application/menu_task.c ****                 adc_sum[i] += rc->info->pVal[i];
 120:Application/menu_task.c ****             }
 121:Application/menu_task.c ****             if ((adc_cnt / 4) > 200) // Ê†°ÂáÜÂÆåÊàê
 122:Application/menu_task.c ****             {
 123:Application/menu_task.c ****                 adc_cnt /= 4;
 124:Application/menu_task.c ****                 for (int i = 0; i < 2; i++)
 125:Application/menu_task.c ****                 {
 126:Application/menu_task.c ****                     rc->offset_rocker[i] = adc_sum[i] / adc_cnt;
 127:Application/menu_task.c ****                     adc_sum[i] = 0;
 128:Application/menu_task.c ****                 }
 129:Application/menu_task.c ****                 for (int i = 0; i < 4; i++)
 130:Application/menu_task.c ****                 {
 131:Application/menu_task.c ****                     rc->offset_rocker[2 + i] = adc_sum[2 + i] / adc_cnt;
 132:Application/menu_task.c ****                     adc_sum[2 + i] = 0;
 133:Application/menu_task.c ****                 }
 134:Application/menu_task.c ****                 // __disable_irq();
 135:Application/menu_task.c ****                 // taskENTER_CRITICAL(); // ËøõÂÖ•Âü∫Êú¨‰∏¥ÁïåÂå∫
 136:Application/menu_task.c ****                 // TODO: ‰∏∫‰ªÄ‰πàÂÜôflashÂêéÂÖ∂‰ªñ‰ªªÂä°‰∏çË∑ë‰∫ÜÔºüÔºüÔºüÔºü
 137:Application/menu_task.c ****                 write_offset_rocker_to_flash(rc->offset_rocker);
 138:Application/menu_task.c ****                 // taskEXIT_CRITICAL(); // ÈÄÄÂá∫Âü∫Êú¨‰∏¥ÁïåÂå∫
 139:Application/menu_task.c ****                 // __enable_irq();
 140:Application/menu_task.c ****                 adc_cnt = 0;
 141:Application/menu_task.c ****                 state = 2;
 142:Application/menu_task.c ****             }
 143:Application/menu_task.c ****         }
 144:Application/menu_task.c ****         if (state == 2)
 588              		.loc 1 144 9 is_stmt 1 view .LVU118
 589              		.loc 1 144 19 is_stmt 0 view .LVU119
 590 000e 764B     		ldr	r3, .L59
 591 0010 1B78     		ldrb	r3, [r3]	@ zero_extendqisi2
ARM GAS  C:\Users\20398\AppData\Local\Temp\cczBaLIa.s 			page 15


 592              		.loc 1 144 12 view .LVU120
 593 0012 022B     		cmp	r3, #2
 594 0014 00F0B480 		beq	.L57
 595              	.L48:
 145:Application/menu_task.c ****         {
 146:Application/menu_task.c ****             OLED_NewFrame();
 147:Application/menu_task.c ****             OLED_PrintString(35, 10, "Ê†°ÂáÜÂÆåÊàê", &font16x16, 0);
 148:Application/menu_task.c ****             OLED_PrintString(3, 30, "Êåâ‰∏ãÁ°ÆËÆ§ÈîÆÈáçÊñ∞Ê†°ÂáÜ", &font14x14, 0);
 149:Application/menu_task.c ****             OLED_PrintString(3, 46, "Êåâ‰∏ãËøîÂõûÈîÆËøîÂõûËèúÂçï", &font14x14, 0);
 150:Application/menu_task.c ****             OLED_ShowFrame();
 151:Application/menu_task.c ****             if (menu_command_callback(GET_EVENT_ENTER))
 152:Application/menu_task.c ****                 state = 1;
 153:Application/menu_task.c ****         }
 154:Application/menu_task.c ****         if (menu_command_callback(GET_EVENT_BACK))
 596              		.loc 1 154 9 is_stmt 1 view .LVU121
 597              		.loc 1 154 13 is_stmt 0 view .LVU122
 598 0018 0620     		movs	r0, #6
 599 001a FFF7FEFF 		bl	menu_command_callback
 600              	.LVL44:
 601              		.loc 1 154 12 view .LVU123
 602 001e 0028     		cmp	r0, #0
 603 0020 40F0D380 		bne	.L58
 155:Application/menu_task.c ****         {
 156:Application/menu_task.c ****             state = 0;
 157:Application/menu_task.c ****             adc_cnt = 0;
 158:Application/menu_task.c ****             for (int i = 0; i < 6; i++)
 159:Application/menu_task.c ****             {
 160:Application/menu_task.c ****                 adc_sum[i] = 0;
 161:Application/menu_task.c ****             }
 162:Application/menu_task.c ****             break;
 163:Application/menu_task.c ****         }
 164:Application/menu_task.c **** 
 165:Application/menu_task.c ****         osDelay(5);
 604              		.loc 1 165 9 is_stmt 1 view .LVU124
 605 0024 0520     		movs	r0, #5
 606 0026 FFF7FEFF 		bl	osDelay
 607              	.LVL45:
 608              	.LBE6:
  88:Application/menu_task.c ****     {
 609              		.loc 1 88 11 view .LVU125
 610              	.L53:
  88:Application/menu_task.c ****     {
 611              		.loc 1 88 5 view .LVU126
 612              	.LBB12:
  91:Application/menu_task.c ****         static uint32_t adc_sum[6];
 613              		.loc 1 91 9 view .LVU127
  92:Application/menu_task.c ****         static uint16_t adc_cnt = 0;
 614              		.loc 1 92 9 view .LVU128
  93:Application/menu_task.c ****         if (state == 0)
 615              		.loc 1 93 9 view .LVU129
  94:Application/menu_task.c ****         {
 616              		.loc 1 94 9 view .LVU130
  94:Application/menu_task.c ****         {
 617              		.loc 1 94 19 is_stmt 0 view .LVU131
 618 002a 6F4B     		ldr	r3, .L59
 619 002c 1B78     		ldrb	r3, [r3]	@ zero_extendqisi2
  94:Application/menu_task.c ****         {
ARM GAS  C:\Users\20398\AppData\Local\Temp\cczBaLIa.s 			page 16


 620              		.loc 1 94 12 view .LVU132
 621 002e 002B     		cmp	r3, #0
 622 0030 E9D1     		bne	.L38
  98:Application/menu_task.c ****             OLED_PrintString(35, 10, "ÊëáÊùÜÊ†°ÂáÜ", &font16x16, 0);
 623              		.loc 1 98 13 is_stmt 1 view .LVU133
 624 0032 FFF7FEFF 		bl	OLED_NewFrame
 625              	.LVL46:
  99:Application/menu_task.c ****             OLED_PrintString(17, 30, "Â∞ÜÊâÄÊúâÊëáÊùÜÂΩí‰∏≠", &font14x14, 0);
 626              		.loc 1 99 13 view .LVU134
 627 0036 0024     		movs	r4, #0
 628 0038 0094     		str	r4, [sp]
 629 003a 6C4B     		ldr	r3, .L59+4
 630 003c 6C4A     		ldr	r2, .L59+8
 631 003e 0A21     		movs	r1, #10
 632 0040 2320     		movs	r0, #35
 633 0042 FFF7FEFF 		bl	OLED_PrintString
 634              	.LVL47:
 100:Application/menu_task.c ****             OLED_PrintString(17, 46, "Êåâ‰∏ãÁ°ÆËÆ§ÈîÆÊ†°ÂáÜ", &font14x14, 0);
 635              		.loc 1 100 13 view .LVU135
 636 0046 6B4D     		ldr	r5, .L59+12
 637 0048 0094     		str	r4, [sp]
 638 004a 2B46     		mov	r3, r5
 639 004c 6A4A     		ldr	r2, .L59+16
 640 004e 1E21     		movs	r1, #30
 641 0050 1120     		movs	r0, #17
 642 0052 FFF7FEFF 		bl	OLED_PrintString
 643              	.LVL48:
 101:Application/menu_task.c ****             OLED_ShowFrame();
 644              		.loc 1 101 13 view .LVU136
 645 0056 0094     		str	r4, [sp]
 646 0058 2B46     		mov	r3, r5
 647 005a 684A     		ldr	r2, .L59+20
 648 005c 2E21     		movs	r1, #46
 649 005e 1120     		movs	r0, #17
 650 0060 FFF7FEFF 		bl	OLED_PrintString
 651              	.LVL49:
 102:Application/menu_task.c ****             if (menu_command_callback(GET_EVENT_ENTER))
 652              		.loc 1 102 13 view .LVU137
 653 0064 FFF7FEFF 		bl	OLED_ShowFrame
 654              	.LVL50:
 103:Application/menu_task.c ****                 state = 1;
 655              		.loc 1 103 13 view .LVU138
 103:Application/menu_task.c ****                 state = 1;
 656              		.loc 1 103 17 is_stmt 0 view .LVU139
 657 0068 0520     		movs	r0, #5
 658 006a FFF7FEFF 		bl	menu_command_callback
 659              	.LVL51:
 103:Application/menu_task.c ****                 state = 1;
 660              		.loc 1 103 16 view .LVU140
 661 006e 0028     		cmp	r0, #0
 662 0070 C9D0     		beq	.L38
 104:Application/menu_task.c ****         }
 663              		.loc 1 104 17 is_stmt 1 view .LVU141
 104:Application/menu_task.c ****         }
 664              		.loc 1 104 23 is_stmt 0 view .LVU142
 665 0072 5D4B     		ldr	r3, .L59
 666 0074 0122     		movs	r2, #1
ARM GAS  C:\Users\20398\AppData\Local\Temp\cczBaLIa.s 			page 17


 667 0076 1A70     		strb	r2, [r3]
 668 0078 C5E7     		b	.L38
 669              	.L56:
 108:Application/menu_task.c ****             OLED_PrintString(42, 15, "Ê†°ÂáÜ‰∏≠", &font16x16, 0);
 670              		.loc 1 108 13 is_stmt 1 view .LVU143
 671 007a FFF7FEFF 		bl	OLED_NewFrame
 672              	.LVL52:
 109:Application/menu_task.c ****             OLED_DrawFilledRectangle(16, 45, ((float)adc_cnt / 800) * 100, 12, 0);
 673              		.loc 1 109 13 view .LVU144
 674 007e 0024     		movs	r4, #0
 675 0080 0094     		str	r4, [sp]
 676 0082 5A4B     		ldr	r3, .L59+4
 677 0084 5E4A     		ldr	r2, .L59+24
 678 0086 0F21     		movs	r1, #15
 679 0088 2A20     		movs	r0, #42
 680 008a FFF7FEFF 		bl	OLED_PrintString
 681              	.LVL53:
 110:Application/menu_task.c ****             OLED_ShowFrame();
 682              		.loc 1 110 13 view .LVU145
 110:Application/menu_task.c ****             OLED_ShowFrame();
 683              		.loc 1 110 47 is_stmt 0 view .LVU146
 684 008e 5D4B     		ldr	r3, .L59+28
 685 0090 1888     		ldrh	r0, [r3]
 686 0092 FFF7FEFF 		bl	__aeabi_ui2f
 687              	.LVL54:
 110:Application/menu_task.c ****             OLED_ShowFrame();
 688              		.loc 1 110 62 view .LVU147
 689 0096 5C49     		ldr	r1, .L59+32
 690 0098 FFF7FEFF 		bl	__aeabi_fdiv
 691              	.LVL55:
 110:Application/menu_task.c ****             OLED_ShowFrame();
 692              		.loc 1 110 69 view .LVU148
 693 009c 5B49     		ldr	r1, .L59+36
 694 009e FFF7FEFF 		bl	__aeabi_fmul
 695              	.LVL56:
 110:Application/menu_task.c ****             OLED_ShowFrame();
 696              		.loc 1 110 13 view .LVU149
 697 00a2 FFF7FEFF 		bl	__aeabi_f2uiz
 698              	.LVL57:
 699 00a6 0094     		str	r4, [sp]
 700 00a8 0C23     		movs	r3, #12
 701 00aa C2B2     		uxtb	r2, r0
 702 00ac 2D21     		movs	r1, #45
 703 00ae 1020     		movs	r0, #16
 704 00b0 FFF7FEFF 		bl	OLED_DrawFilledRectangle
 705              	.LVL58:
 111:Application/menu_task.c ****             for (int i = 0; i < 4; i++)
 706              		.loc 1 111 13 is_stmt 1 view .LVU150
 707 00b4 FFF7FEFF 		bl	OLED_ShowFrame
 708              	.LVL59:
 112:Application/menu_task.c ****             {
 709              		.loc 1 112 13 view .LVU151
 710              	.LBB7:
 112:Application/menu_task.c ****             {
 711              		.loc 1 112 18 view .LVU152
 112:Application/menu_task.c ****             {
 712              		.loc 1 112 22 is_stmt 0 view .LVU153
ARM GAS  C:\Users\20398\AppData\Local\Temp\cczBaLIa.s 			page 18


 713 00b8 2346     		mov	r3, r4
 112:Application/menu_task.c ****             {
 714              		.loc 1 112 13 view .LVU154
 715 00ba 11E0     		b	.L40
 716              	.LVL60:
 717              	.L41:
 114:Application/menu_task.c ****                 adc_cnt++;
 718              		.loc 1 114 17 is_stmt 1 discriminator 3 view .LVU155
 114:Application/menu_task.c ****                 adc_cnt++;
 719              		.loc 1 114 32 is_stmt 0 discriminator 3 view .LVU156
 720 00bc 981C     		adds	r0, r3, #2
 114:Application/menu_task.c ****                 adc_cnt++;
 721              		.loc 1 114 37 discriminator 3 view .LVU157
 722 00be 544A     		ldr	r2, .L59+40
 723 00c0 1268     		ldr	r2, [r2]
 724 00c2 1268     		ldr	r2, [r2]
 114:Application/menu_task.c ****                 adc_cnt++;
 725              		.loc 1 114 54 discriminator 3 view .LVU158
 726 00c4 02EB4302 		add	r2, r2, r3, lsl #1
 727 00c8 D488     		ldrh	r4, [r2, #6]
 114:Application/menu_task.c ****                 adc_cnt++;
 728              		.loc 1 114 32 discriminator 3 view .LVU159
 729 00ca 5249     		ldr	r1, .L59+44
 730 00cc 51F82020 		ldr	r2, [r1, r0, lsl #2]
 731 00d0 2244     		add	r2, r2, r4
 732 00d2 41F82020 		str	r2, [r1, r0, lsl #2]
 115:Application/menu_task.c ****             }
 733              		.loc 1 115 17 is_stmt 1 discriminator 3 view .LVU160
 115:Application/menu_task.c ****             }
 734              		.loc 1 115 24 is_stmt 0 discriminator 3 view .LVU161
 735 00d6 4B49     		ldr	r1, .L59+28
 736 00d8 0A88     		ldrh	r2, [r1]
 737 00da 0132     		adds	r2, r2, #1
 738 00dc 0A80     		strh	r2, [r1]	@ movhi
 112:Application/menu_task.c ****             {
 739              		.loc 1 112 36 is_stmt 1 discriminator 3 view .LVU162
 112:Application/menu_task.c ****             {
 740              		.loc 1 112 37 is_stmt 0 discriminator 3 view .LVU163
 741 00de 0133     		adds	r3, r3, #1
 742              	.LVL61:
 743              	.L40:
 112:Application/menu_task.c ****             {
 744              		.loc 1 112 29 is_stmt 1 discriminator 1 view .LVU164
 112:Application/menu_task.c ****             {
 745              		.loc 1 112 13 is_stmt 0 discriminator 1 view .LVU165
 746 00e0 032B     		cmp	r3, #3
 747 00e2 EBDD     		ble	.L41
 748              	.LBE7:
 749              	.LBB8:
 117:Application/menu_task.c ****             {
 750              		.loc 1 117 22 view .LVU166
 751 00e4 0023     		movs	r3, #0
 752              	.LVL62:
 117:Application/menu_task.c ****             {
 753              		.loc 1 117 22 view .LVU167
 754 00e6 0CE0     		b	.L42
 755              	.LVL63:
ARM GAS  C:\Users\20398\AppData\Local\Temp\cczBaLIa.s 			page 19


 756              	.L43:
 119:Application/menu_task.c ****             }
 757              		.loc 1 119 17 is_stmt 1 discriminator 3 view .LVU168
 119:Application/menu_task.c ****             }
 758              		.loc 1 119 33 is_stmt 0 discriminator 3 view .LVU169
 759 00e8 494A     		ldr	r2, .L59+40
 760 00ea 1268     		ldr	r2, [r2]
 761 00ec 1268     		ldr	r2, [r2]
 119:Application/menu_task.c ****             }
 762              		.loc 1 119 45 discriminator 3 view .LVU170
 763 00ee 02EB4302 		add	r2, r2, r3, lsl #1
 764 00f2 5088     		ldrh	r0, [r2, #2]
 119:Application/menu_task.c ****             }
 765              		.loc 1 119 28 discriminator 3 view .LVU171
 766 00f4 4749     		ldr	r1, .L59+44
 767 00f6 51F82320 		ldr	r2, [r1, r3, lsl #2]
 768 00fa 0244     		add	r2, r2, r0
 769 00fc 41F82320 		str	r2, [r1, r3, lsl #2]
 117:Application/menu_task.c ****             {
 770              		.loc 1 117 36 is_stmt 1 discriminator 3 view .LVU172
 117:Application/menu_task.c ****             {
 771              		.loc 1 117 37 is_stmt 0 discriminator 3 view .LVU173
 772 0100 0133     		adds	r3, r3, #1
 773              	.LVL64:
 774              	.L42:
 117:Application/menu_task.c ****             {
 775              		.loc 1 117 29 is_stmt 1 discriminator 1 view .LVU174
 117:Application/menu_task.c ****             {
 776              		.loc 1 117 13 is_stmt 0 discriminator 1 view .LVU175
 777 0102 012B     		cmp	r3, #1
 778 0104 F0DD     		ble	.L43
 779              	.LBE8:
 121:Application/menu_task.c ****             {
 780              		.loc 1 121 13 is_stmt 1 view .LVU176
 121:Application/menu_task.c ****             {
 781              		.loc 1 121 31 is_stmt 0 view .LVU177
 782 0106 3F4B     		ldr	r3, .L59+28
 783              	.LVL65:
 121:Application/menu_task.c ****             {
 784              		.loc 1 121 31 view .LVU178
 785 0108 1B88     		ldrh	r3, [r3]
 121:Application/menu_task.c ****             {
 786              		.loc 1 121 16 view .LVU179
 787 010a B3F5497F 		cmp	r3, #804
 788 010e FFF47EAF 		bcc	.L39
 123:Application/menu_task.c ****                 for (int i = 0; i < 2; i++)
 789              		.loc 1 123 17 is_stmt 1 view .LVU180
 123:Application/menu_task.c ****                 for (int i = 0; i < 2; i++)
 790              		.loc 1 123 25 is_stmt 0 view .LVU181
 791 0112 9D08     		lsrs	r5, r3, #2
 792 0114 3B4B     		ldr	r3, .L59+28
 793 0116 1D80     		strh	r5, [r3]	@ movhi
 124:Application/menu_task.c ****                 {
 794              		.loc 1 124 17 is_stmt 1 view .LVU182
 795              	.LBB9:
 124:Application/menu_task.c ****                 {
 796              		.loc 1 124 22 view .LVU183
ARM GAS  C:\Users\20398\AppData\Local\Temp\cczBaLIa.s 			page 20


 797              	.LVL66:
 124:Application/menu_task.c ****                 {
 798              		.loc 1 124 26 is_stmt 0 view .LVU184
 799 0118 0023     		movs	r3, #0
 124:Application/menu_task.c ****                 {
 800              		.loc 1 124 17 view .LVU185
 801 011a 0EE0     		b	.L44
 802              	.LVL67:
 803              	.L45:
 126:Application/menu_task.c ****                     adc_sum[i] = 0;
 804              		.loc 1 126 21 is_stmt 1 discriminator 3 view .LVU186
 126:Application/menu_task.c ****                     adc_sum[i] = 0;
 805              		.loc 1 126 51 is_stmt 0 discriminator 3 view .LVU187
 806 011c 3D48     		ldr	r0, .L59+44
 807 011e 50F82320 		ldr	r2, [r0, r3, lsl #2]
 126:Application/menu_task.c ****                     adc_sum[i] = 0;
 808              		.loc 1 126 55 discriminator 3 view .LVU188
 809 0122 B2FBF5F1 		udiv	r1, r2, r5
 126:Application/menu_task.c ****                     adc_sum[i] = 0;
 810              		.loc 1 126 23 discriminator 3 view .LVU189
 811 0126 3A4A     		ldr	r2, .L59+40
 812 0128 1268     		ldr	r2, [r2]
 126:Application/menu_task.c ****                     adc_sum[i] = 0;
 813              		.loc 1 126 42 discriminator 3 view .LVU190
 814 012a 1C1D     		adds	r4, r3, #4
 815 012c 02EB4402 		add	r2, r2, r4, lsl #1
 816 0130 5180     		strh	r1, [r2, #2]	@ movhi
 127:Application/menu_task.c ****                 }
 817              		.loc 1 127 21 is_stmt 1 discriminator 3 view .LVU191
 127:Application/menu_task.c ****                 }
 818              		.loc 1 127 32 is_stmt 0 discriminator 3 view .LVU192
 819 0132 0022     		movs	r2, #0
 820 0134 40F82320 		str	r2, [r0, r3, lsl #2]
 124:Application/menu_task.c ****                 {
 821              		.loc 1 124 40 is_stmt 1 discriminator 3 view .LVU193
 124:Application/menu_task.c ****                 {
 822              		.loc 1 124 41 is_stmt 0 discriminator 3 view .LVU194
 823 0138 0133     		adds	r3, r3, #1
 824              	.LVL68:
 825              	.L44:
 124:Application/menu_task.c ****                 {
 826              		.loc 1 124 33 is_stmt 1 discriminator 1 view .LVU195
 124:Application/menu_task.c ****                 {
 827              		.loc 1 124 17 is_stmt 0 discriminator 1 view .LVU196
 828 013a 012B     		cmp	r3, #1
 829 013c EEDD     		ble	.L45
 830              	.LBE9:
 831              	.LBB10:
 129:Application/menu_task.c ****                 {
 832              		.loc 1 129 26 view .LVU197
 833 013e 0023     		movs	r3, #0
 834              	.LVL69:
 129:Application/menu_task.c ****                 {
 835              		.loc 1 129 26 view .LVU198
 836 0140 10E0     		b	.L46
 837              	.LVL70:
 838              	.L47:
ARM GAS  C:\Users\20398\AppData\Local\Temp\cczBaLIa.s 			page 21


 131:Application/menu_task.c ****                     adc_sum[2 + i] = 0;
 839              		.loc 1 131 21 is_stmt 1 discriminator 3 view .LVU199
 131:Application/menu_task.c ****                     adc_sum[2 + i] = 0;
 840              		.loc 1 131 58 is_stmt 0 discriminator 3 view .LVU200
 841 0142 9C1C     		adds	r4, r3, #2
 131:Application/menu_task.c ****                     adc_sum[2 + i] = 0;
 842              		.loc 1 131 55 discriminator 3 view .LVU201
 843 0144 3348     		ldr	r0, .L59+44
 844 0146 50F82420 		ldr	r2, [r0, r4, lsl #2]
 131:Application/menu_task.c ****                     adc_sum[2 + i] = 0;
 845              		.loc 1 131 63 discriminator 3 view .LVU202
 846 014a B2FBF5F1 		udiv	r1, r2, r5
 131:Application/menu_task.c ****                     adc_sum[2 + i] = 0;
 847              		.loc 1 131 23 discriminator 3 view .LVU203
 848 014e 304A     		ldr	r2, .L59+40
 849 0150 1268     		ldr	r2, [r2]
 131:Application/menu_task.c ****                     adc_sum[2 + i] = 0;
 850              		.loc 1 131 46 discriminator 3 view .LVU204
 851 0152 03F1060C 		add	ip, r3, #6
 852 0156 02EB4C02 		add	r2, r2, ip, lsl #1
 853 015a 5180     		strh	r1, [r2, #2]	@ movhi
 132:Application/menu_task.c ****                 }
 854              		.loc 1 132 21 is_stmt 1 discriminator 3 view .LVU205
 132:Application/menu_task.c ****                 }
 855              		.loc 1 132 36 is_stmt 0 discriminator 3 view .LVU206
 856 015c 0022     		movs	r2, #0
 857 015e 40F82420 		str	r2, [r0, r4, lsl #2]
 129:Application/menu_task.c ****                 {
 858              		.loc 1 129 40 is_stmt 1 discriminator 3 view .LVU207
 129:Application/menu_task.c ****                 {
 859              		.loc 1 129 41 is_stmt 0 discriminator 3 view .LVU208
 860 0162 0133     		adds	r3, r3, #1
 861              	.LVL71:
 862              	.L46:
 129:Application/menu_task.c ****                 {
 863              		.loc 1 129 33 is_stmt 1 discriminator 1 view .LVU209
 129:Application/menu_task.c ****                 {
 864              		.loc 1 129 17 is_stmt 0 discriminator 1 view .LVU210
 865 0164 032B     		cmp	r3, #3
 866 0166 ECDD     		ble	.L47
 867              	.LBE10:
 137:Application/menu_task.c ****                 // taskEXIT_CRITICAL(); // ÈÄÄÂá∫Âü∫Êú¨‰∏¥ÁïåÂå∫
 868              		.loc 1 137 17 is_stmt 1 view .LVU211
 137:Application/menu_task.c ****                 // taskEXIT_CRITICAL(); // ÈÄÄÂá∫Âü∫Êú¨‰∏¥ÁïåÂå∫
 869              		.loc 1 137 48 is_stmt 0 view .LVU212
 870 0168 294B     		ldr	r3, .L59+40
 871              	.LVL72:
 137:Application/menu_task.c ****                 // taskEXIT_CRITICAL(); // ÈÄÄÂá∫Âü∫Êú¨‰∏¥ÁïåÂå∫
 872              		.loc 1 137 48 view .LVU213
 873 016a 1868     		ldr	r0, [r3]
 137:Application/menu_task.c ****                 // taskEXIT_CRITICAL(); // ÈÄÄÂá∫Âü∫Êú¨‰∏¥ÁïåÂå∫
 874              		.loc 1 137 17 view .LVU214
 875 016c 0A30     		adds	r0, r0, #10
 876 016e FFF7FEFF 		bl	write_offset_rocker_to_flash
 877              	.LVL73:
 140:Application/menu_task.c ****                 state = 2;
 878              		.loc 1 140 17 is_stmt 1 view .LVU215
ARM GAS  C:\Users\20398\AppData\Local\Temp\cczBaLIa.s 			page 22


 140:Application/menu_task.c ****                 state = 2;
 879              		.loc 1 140 25 is_stmt 0 view .LVU216
 880 0172 244B     		ldr	r3, .L59+28
 881 0174 0022     		movs	r2, #0
 882 0176 1A80     		strh	r2, [r3]	@ movhi
 141:Application/menu_task.c ****             }
 883              		.loc 1 141 17 is_stmt 1 view .LVU217
 141:Application/menu_task.c ****             }
 884              		.loc 1 141 23 is_stmt 0 view .LVU218
 885 0178 1B4B     		ldr	r3, .L59
 886 017a 0222     		movs	r2, #2
 887 017c 1A70     		strb	r2, [r3]
 888 017e 46E7     		b	.L39
 889              	.L57:
 146:Application/menu_task.c ****             OLED_PrintString(35, 10, "Ê†°ÂáÜÂÆåÊàê", &font16x16, 0);
 890              		.loc 1 146 13 is_stmt 1 view .LVU219
 891 0180 FFF7FEFF 		bl	OLED_NewFrame
 892              	.LVL74:
 147:Application/menu_task.c ****             OLED_PrintString(3, 30, "Êåâ‰∏ãÁ°ÆËÆ§ÈîÆÈáçÊñ∞Ê†°ÂáÜ", &font14x14, 0);
 893              		.loc 1 147 13 view .LVU220
 894 0184 0024     		movs	r4, #0
 895 0186 0094     		str	r4, [sp]
 896 0188 184B     		ldr	r3, .L59+4
 897 018a 234A     		ldr	r2, .L59+48
 898 018c 0A21     		movs	r1, #10
 899 018e 2320     		movs	r0, #35
 900 0190 FFF7FEFF 		bl	OLED_PrintString
 901              	.LVL75:
 148:Application/menu_task.c ****             OLED_PrintString(3, 46, "Êåâ‰∏ãËøîÂõûÈîÆËøîÂõûËèúÂçï", &font14x14, 0);
 902              		.loc 1 148 13 view .LVU221
 903 0194 174D     		ldr	r5, .L59+12
 904 0196 0094     		str	r4, [sp]
 905 0198 2B46     		mov	r3, r5
 906 019a 204A     		ldr	r2, .L59+52
 907 019c 1E21     		movs	r1, #30
 908 019e 0320     		movs	r0, #3
 909 01a0 FFF7FEFF 		bl	OLED_PrintString
 910              	.LVL76:
 149:Application/menu_task.c ****             OLED_ShowFrame();
 911              		.loc 1 149 13 view .LVU222
 912 01a4 0094     		str	r4, [sp]
 913 01a6 2B46     		mov	r3, r5
 914 01a8 1D4A     		ldr	r2, .L59+56
 915 01aa 2E21     		movs	r1, #46
 916 01ac 0320     		movs	r0, #3
 917 01ae FFF7FEFF 		bl	OLED_PrintString
 918              	.LVL77:
 150:Application/menu_task.c ****             if (menu_command_callback(GET_EVENT_ENTER))
 919              		.loc 1 150 13 view .LVU223
 920 01b2 FFF7FEFF 		bl	OLED_ShowFrame
 921              	.LVL78:
 151:Application/menu_task.c ****                 state = 1;
 922              		.loc 1 151 13 view .LVU224
 151:Application/menu_task.c ****                 state = 1;
 923              		.loc 1 151 17 is_stmt 0 view .LVU225
 924 01b6 0520     		movs	r0, #5
 925 01b8 FFF7FEFF 		bl	menu_command_callback
ARM GAS  C:\Users\20398\AppData\Local\Temp\cczBaLIa.s 			page 23


 926              	.LVL79:
 151:Application/menu_task.c ****                 state = 1;
 927              		.loc 1 151 16 view .LVU226
 928 01bc 0028     		cmp	r0, #0
 929 01be 3FF42BAF 		beq	.L48
 152:Application/menu_task.c ****         }
 930              		.loc 1 152 17 is_stmt 1 view .LVU227
 152:Application/menu_task.c ****         }
 931              		.loc 1 152 23 is_stmt 0 view .LVU228
 932 01c2 094B     		ldr	r3, .L59
 933 01c4 0122     		movs	r2, #1
 934 01c6 1A70     		strb	r2, [r3]
 935 01c8 26E7     		b	.L48
 936              	.L58:
 156:Application/menu_task.c ****             adc_cnt = 0;
 937              		.loc 1 156 13 is_stmt 1 view .LVU229
 156:Application/menu_task.c ****             adc_cnt = 0;
 938              		.loc 1 156 19 is_stmt 0 view .LVU230
 939 01ca 0023     		movs	r3, #0
 940 01cc 064A     		ldr	r2, .L59
 941 01ce 1370     		strb	r3, [r2]
 157:Application/menu_task.c ****             for (int i = 0; i < 6; i++)
 942              		.loc 1 157 13 is_stmt 1 view .LVU231
 157:Application/menu_task.c ****             for (int i = 0; i < 6; i++)
 943              		.loc 1 157 21 is_stmt 0 view .LVU232
 944 01d0 0C4A     		ldr	r2, .L59+28
 945 01d2 1380     		strh	r3, [r2]	@ movhi
 158:Application/menu_task.c ****             {
 946              		.loc 1 158 13 is_stmt 1 view .LVU233
 947              	.LBB11:
 158:Application/menu_task.c ****             {
 948              		.loc 1 158 18 view .LVU234
 949              	.LVL80:
 158:Application/menu_task.c ****             {
 950              		.loc 1 158 13 is_stmt 0 view .LVU235
 951 01d4 04E0     		b	.L50
 952              	.LVL81:
 953              	.L51:
 160:Application/menu_task.c ****             }
 954              		.loc 1 160 17 is_stmt 1 discriminator 3 view .LVU236
 160:Application/menu_task.c ****             }
 955              		.loc 1 160 28 is_stmt 0 discriminator 3 view .LVU237
 956 01d6 0F4A     		ldr	r2, .L59+44
 957 01d8 0021     		movs	r1, #0
 958 01da 42F82310 		str	r1, [r2, r3, lsl #2]
 158:Application/menu_task.c ****             {
 959              		.loc 1 158 36 is_stmt 1 discriminator 3 view .LVU238
 158:Application/menu_task.c ****             {
 960              		.loc 1 158 37 is_stmt 0 discriminator 3 view .LVU239
 961 01de 0133     		adds	r3, r3, #1
 962              	.LVL82:
 963              	.L50:
 158:Application/menu_task.c ****             {
 964              		.loc 1 158 29 is_stmt 1 discriminator 1 view .LVU240
 158:Application/menu_task.c ****             {
 965              		.loc 1 158 13 is_stmt 0 discriminator 1 view .LVU241
 966 01e0 052B     		cmp	r3, #5
ARM GAS  C:\Users\20398\AppData\Local\Temp\cczBaLIa.s 			page 24


 967 01e2 F8DD     		ble	.L51
 968              	.LBE11:
 969              	.LBE12:
 166:Application/menu_task.c ****     }
 167:Application/menu_task.c **** }
 970              		.loc 1 167 1 view .LVU242
 971 01e4 03B0     		add	sp, sp, #12
 972              	.LCFI12:
 973              		.cfi_def_cfa_offset 12
 974              		@ sp needed
 975 01e6 30BD     		pop	{r4, r5, pc}
 976              	.L60:
 977              		.align	2
 978              	.L59:
 979 01e8 00000000 		.word	.LANCHOR1
 980 01ec 00000000 		.word	font16x16
 981 01f0 00000000 		.word	.LC0
 982 01f4 00000000 		.word	font14x14
 983 01f8 10000000 		.word	.LC1
 984 01fc 28000000 		.word	.LC2
 985 0200 40000000 		.word	.LC3
 986 0204 00000000 		.word	.LANCHOR2
 987 0208 00004844 		.word	1145569280
 988 020c 0000C842 		.word	1120403456
 989 0210 00000000 		.word	.LANCHOR0
 990 0214 00000000 		.word	.LANCHOR3
 991 0218 4C000000 		.word	.LC4
 992 021c 5C000000 		.word	.LC5
 993 0220 78000000 		.word	.LC6
 994              		.cfi_endproc
 995              	.LFE77:
 997              		.section	.text.MENU_ShowImage,"ax",%progbits
 998              		.align	1
 999              		.global	MENU_ShowImage
 1000              		.syntax unified
 1001              		.thumb
 1002              		.thumb_func
 1004              	MENU_ShowImage:
 1005              	.LFB78:
 168:Application/menu_task.c **** 
 169:Application/menu_task.c **** void MENU_ShowImage(void)
 170:Application/menu_task.c **** {
 1006              		.loc 1 170 1 is_stmt 1 view -0
 1007              		.cfi_startproc
 1008              		@ args = 0, pretend = 0, frame = 0
 1009              		@ frame_needed = 0, uses_anonymous_args = 0
 1010 0000 08B5     		push	{r3, lr}
 1011              	.LCFI13:
 1012              		.cfi_def_cfa_offset 8
 1013              		.cfi_offset 3, -8
 1014              		.cfi_offset 14, -4
 1015 0002 17E0     		b	.L75
 1016              	.L63:
 1017              	.LBB13:
 1018              	.LBB14:
 171:Application/menu_task.c ****     while (1)
 172:Application/menu_task.c ****     {
ARM GAS  C:\Users\20398\AppData\Local\Temp\cczBaLIa.s 			page 25


 173:Application/menu_task.c ****         static int8_t rank_img = 5;
 174:Application/menu_task.c ****         // Êåâ‰∏ä/‰∏ãÈîÆÂàáÊç¢ÂõæÁâá
 175:Application/menu_task.c ****         if (Key_GetEvent_Up())
 176:Application/menu_task.c ****             if (rank_img > 7)
 177:Application/menu_task.c ****                 rank_img = 0;
 178:Application/menu_task.c ****             else
 179:Application/menu_task.c ****                 rank_img++;
 1019              		.loc 1 179 17 view .LVU244
 1020              		.loc 1 179 25 is_stmt 0 view .LVU245
 1021 0004 0133     		adds	r3, r3, #1
 1022 0006 394A     		ldr	r2, .L84
 1023 0008 1370     		strb	r3, [r2]
 1024 000a 1EE0     		b	.L62
 1025              	.L77:
 1026              	.LBE14:
 1027              	.LBB15:
 180:Application/menu_task.c ****         if (Key_GetEvent_Down())
 181:Application/menu_task.c ****             if (rank_img < 2)
 182:Application/menu_task.c ****                 rank_img = 7;
 1028              		.loc 1 182 17 is_stmt 1 view .LVU246
 1029              		.loc 1 182 26 is_stmt 0 view .LVU247
 1030 000c 374B     		ldr	r3, .L84
 1031 000e 0722     		movs	r2, #7
 1032 0010 1A70     		strb	r2, [r3]
 1033 0012 25E0     		b	.L64
 1034              	.L78:
 1035              	.LBE15:
 183:Application/menu_task.c ****             else
 184:Application/menu_task.c ****                 rank_img--;
 185:Application/menu_task.c **** 
 186:Application/menu_task.c ****         OLED_NewFrame();
 187:Application/menu_task.c ****         if (rank_img > 7)
 188:Application/menu_task.c ****             OLED_DrawImage(24, 0, &infantry34Img, 0);
 1036              		.loc 1 188 13 is_stmt 1 view .LVU248
 1037 0014 0023     		movs	r3, #0
 1038 0016 364A     		ldr	r2, .L84+4
 1039 0018 1946     		mov	r1, r3
 1040 001a 1820     		movs	r0, #24
 1041 001c FFF7FEFF 		bl	OLED_DrawImage
 1042              	.LVL83:
 1043              	.L67:
 189:Application/menu_task.c ****         else if (rank_img > 6)
 190:Application/menu_task.c ****             OLED_DrawImage(16, 0, &inf4Img, 0);
 191:Application/menu_task.c ****         else if (rank_img > 5)
 192:Application/menu_task.c ****             OLED_DrawImage(16, 0, &heroainfImg, 0);
 193:Application/menu_task.c ****         else if (rank_img > 4) // 5
 194:Application/menu_task.c ****             OLED_DrawImage(33, 0, &APEXImg, 0);
 195:Application/menu_task.c ****         else if (rank_img > 3) // 4
 196:Application/menu_task.c ****             OLED_DrawImage(30, 0, &ACEImg, 0);
 197:Application/menu_task.c ****         else if (rank_img > 2) // 3
 198:Application/menu_task.c ****             OLED_DrawImage(17, 0, &ROBOMASTERImg, 0);
 199:Application/menu_task.c ****         else if (rank_img > 1) // 2
 200:Application/menu_task.c ****             OLED_DrawImage(17, 0, &CSGOImg, 0);
 201:Application/menu_task.c ****         else // 1
 202:Application/menu_task.c ****             OLED_DrawImage(24, 0, &dafuImg, 0);
 203:Application/menu_task.c ****         OLED_ShowFrame();
 1044              		.loc 1 203 9 view .LVU249
ARM GAS  C:\Users\20398\AppData\Local\Temp\cczBaLIa.s 			page 26


 1045 0020 FFF7FEFF 		bl	OLED_ShowFrame
 1046              	.LVL84:
 204:Application/menu_task.c **** 
 205:Application/menu_task.c ****         if (menu_command_callback(GET_EVENT_BACK))
 1047              		.loc 1 205 9 view .LVU250
 1048              		.loc 1 205 13 is_stmt 0 view .LVU251
 1049 0024 0620     		movs	r0, #6
 1050 0026 FFF7FEFF 		bl	menu_command_callback
 1051              	.LVL85:
 1052              		.loc 1 205 12 view .LVU252
 1053 002a 0028     		cmp	r0, #0
 1054 002c 5CD1     		bne	.L61
 206:Application/menu_task.c ****             break;
 207:Application/menu_task.c ****         osDelay(5);
 1055              		.loc 1 207 9 is_stmt 1 view .LVU253
 1056 002e 0520     		movs	r0, #5
 1057 0030 FFF7FEFF 		bl	osDelay
 1058              	.LVL86:
 1059              	.LBE13:
 171:Application/menu_task.c ****     {
 1060              		.loc 1 171 11 view .LVU254
 1061              	.L75:
 171:Application/menu_task.c ****     {
 1062              		.loc 1 171 5 view .LVU255
 1063              	.LBB18:
 173:Application/menu_task.c ****         // Êåâ‰∏ä/‰∏ãÈîÆÂàáÊç¢ÂõæÁâá
 1064              		.loc 1 173 9 view .LVU256
 175:Application/menu_task.c ****             if (rank_img > 7)
 1065              		.loc 1 175 9 view .LVU257
 1066              	.LBB16:
 175:Application/menu_task.c ****             if (rank_img > 7)
 1067              		.loc 1 175 13 is_stmt 0 view .LVU258
 1068 0034 FFF7FEFF 		bl	Key_GetEvent_Up
 1069              	.LVL87:
 175:Application/menu_task.c ****             if (rank_img > 7)
 1070              		.loc 1 175 12 view .LVU259
 1071 0038 38B1     		cbz	r0, .L62
 176:Application/menu_task.c ****                 rank_img = 0;
 1072              		.loc 1 176 13 is_stmt 1 view .LVU260
 176:Application/menu_task.c ****                 rank_img = 0;
 1073              		.loc 1 176 26 is_stmt 0 view .LVU261
 1074 003a 2C4B     		ldr	r3, .L84
 1075 003c 93F90030 		ldrsb	r3, [r3]
 176:Application/menu_task.c ****                 rank_img = 0;
 1076              		.loc 1 176 16 view .LVU262
 1077 0040 072B     		cmp	r3, #7
 1078 0042 DFDD     		ble	.L63
 177:Application/menu_task.c ****             else
 1079              		.loc 1 177 17 is_stmt 1 view .LVU263
 177:Application/menu_task.c ****             else
 1080              		.loc 1 177 26 is_stmt 0 view .LVU264
 1081 0044 294B     		ldr	r3, .L84
 1082 0046 0022     		movs	r2, #0
 1083 0048 1A70     		strb	r2, [r3]
 1084              	.L62:
 1085              	.LBE16:
 180:Application/menu_task.c ****             if (rank_img < 2)
ARM GAS  C:\Users\20398\AppData\Local\Temp\cczBaLIa.s 			page 27


 1086              		.loc 1 180 9 is_stmt 1 view .LVU265
 1087              	.LBB17:
 180:Application/menu_task.c ****             if (rank_img < 2)
 1088              		.loc 1 180 13 is_stmt 0 view .LVU266
 1089 004a FFF7FEFF 		bl	Key_GetEvent_Down
 1090              	.LVL88:
 180:Application/menu_task.c ****             if (rank_img < 2)
 1091              		.loc 1 180 12 view .LVU267
 1092 004e 38B1     		cbz	r0, .L64
 181:Application/menu_task.c ****                 rank_img = 7;
 1093              		.loc 1 181 13 is_stmt 1 view .LVU268
 181:Application/menu_task.c ****                 rank_img = 7;
 1094              		.loc 1 181 26 is_stmt 0 view .LVU269
 1095 0050 264B     		ldr	r3, .L84
 1096 0052 93F90030 		ldrsb	r3, [r3]
 181:Application/menu_task.c ****                 rank_img = 7;
 1097              		.loc 1 181 16 view .LVU270
 1098 0056 012B     		cmp	r3, #1
 1099 0058 D8DD     		ble	.L77
 184:Application/menu_task.c **** 
 1100              		.loc 1 184 17 is_stmt 1 view .LVU271
 184:Application/menu_task.c **** 
 1101              		.loc 1 184 25 is_stmt 0 view .LVU272
 1102 005a 013B     		subs	r3, r3, #1
 1103 005c 234A     		ldr	r2, .L84
 1104 005e 1370     		strb	r3, [r2]
 1105              	.L64:
 1106              	.LBE17:
 186:Application/menu_task.c ****         if (rank_img > 7)
 1107              		.loc 1 186 9 is_stmt 1 view .LVU273
 1108 0060 FFF7FEFF 		bl	OLED_NewFrame
 1109              	.LVL89:
 187:Application/menu_task.c ****             OLED_DrawImage(24, 0, &infantry34Img, 0);
 1110              		.loc 1 187 9 view .LVU274
 187:Application/menu_task.c ****             OLED_DrawImage(24, 0, &infantry34Img, 0);
 1111              		.loc 1 187 22 is_stmt 0 view .LVU275
 1112 0064 214B     		ldr	r3, .L84
 1113 0066 93F90030 		ldrsb	r3, [r3]
 187:Application/menu_task.c ****             OLED_DrawImage(24, 0, &infantry34Img, 0);
 1114              		.loc 1 187 12 view .LVU276
 1115 006a 072B     		cmp	r3, #7
 1116 006c D2DC     		bgt	.L78
 189:Application/menu_task.c ****             OLED_DrawImage(16, 0, &inf4Img, 0);
 1117              		.loc 1 189 14 is_stmt 1 view .LVU277
 189:Application/menu_task.c ****             OLED_DrawImage(16, 0, &inf4Img, 0);
 1118              		.loc 1 189 17 is_stmt 0 view .LVU278
 1119 006e 062B     		cmp	r3, #6
 1120 0070 10DC     		bgt	.L79
 191:Application/menu_task.c ****             OLED_DrawImage(16, 0, &heroainfImg, 0);
 1121              		.loc 1 191 14 is_stmt 1 view .LVU279
 191:Application/menu_task.c ****             OLED_DrawImage(16, 0, &heroainfImg, 0);
 1122              		.loc 1 191 17 is_stmt 0 view .LVU280
 1123 0072 052B     		cmp	r3, #5
 1124 0074 15DC     		bgt	.L80
 193:Application/menu_task.c ****             OLED_DrawImage(33, 0, &APEXImg, 0);
 1125              		.loc 1 193 14 is_stmt 1 view .LVU281
 193:Application/menu_task.c ****             OLED_DrawImage(33, 0, &APEXImg, 0);
ARM GAS  C:\Users\20398\AppData\Local\Temp\cczBaLIa.s 			page 28


 1126              		.loc 1 193 17 is_stmt 0 view .LVU282
 1127 0076 042B     		cmp	r3, #4
 1128 0078 1ADC     		bgt	.L81
 195:Application/menu_task.c ****             OLED_DrawImage(30, 0, &ACEImg, 0);
 1129              		.loc 1 195 14 is_stmt 1 view .LVU283
 195:Application/menu_task.c ****             OLED_DrawImage(30, 0, &ACEImg, 0);
 1130              		.loc 1 195 17 is_stmt 0 view .LVU284
 1131 007a 032B     		cmp	r3, #3
 1132 007c 1FDC     		bgt	.L82
 197:Application/menu_task.c ****             OLED_DrawImage(17, 0, &ROBOMASTERImg, 0);
 1133              		.loc 1 197 14 is_stmt 1 view .LVU285
 197:Application/menu_task.c ****             OLED_DrawImage(17, 0, &ROBOMASTERImg, 0);
 1134              		.loc 1 197 17 is_stmt 0 view .LVU286
 1135 007e 022B     		cmp	r3, #2
 1136 0080 24DC     		bgt	.L83
 199:Application/menu_task.c ****             OLED_DrawImage(17, 0, &CSGOImg, 0);
 1137              		.loc 1 199 14 is_stmt 1 view .LVU287
 199:Application/menu_task.c ****             OLED_DrawImage(17, 0, &CSGOImg, 0);
 1138              		.loc 1 199 17 is_stmt 0 view .LVU288
 1139 0082 012B     		cmp	r3, #1
 1140 0084 29DD     		ble	.L73
 200:Application/menu_task.c ****         else // 1
 1141              		.loc 1 200 13 is_stmt 1 view .LVU289
 1142 0086 0023     		movs	r3, #0
 1143 0088 1A4A     		ldr	r2, .L84+8
 1144 008a 1946     		mov	r1, r3
 1145 008c 1120     		movs	r0, #17
 1146 008e FFF7FEFF 		bl	OLED_DrawImage
 1147              	.LVL90:
 1148 0092 C5E7     		b	.L67
 1149              	.L79:
 190:Application/menu_task.c ****         else if (rank_img > 5)
 1150              		.loc 1 190 13 view .LVU290
 1151 0094 0023     		movs	r3, #0
 1152 0096 184A     		ldr	r2, .L84+12
 1153 0098 1946     		mov	r1, r3
 1154 009a 1020     		movs	r0, #16
 1155 009c FFF7FEFF 		bl	OLED_DrawImage
 1156              	.LVL91:
 1157 00a0 BEE7     		b	.L67
 1158              	.L80:
 192:Application/menu_task.c ****         else if (rank_img > 4) // 5
 1159              		.loc 1 192 13 view .LVU291
 1160 00a2 0023     		movs	r3, #0
 1161 00a4 154A     		ldr	r2, .L84+16
 1162 00a6 1946     		mov	r1, r3
 1163 00a8 1020     		movs	r0, #16
 1164 00aa FFF7FEFF 		bl	OLED_DrawImage
 1165              	.LVL92:
 1166 00ae B7E7     		b	.L67
 1167              	.L81:
 194:Application/menu_task.c ****         else if (rank_img > 3) // 4
 1168              		.loc 1 194 13 view .LVU292
 1169 00b0 0023     		movs	r3, #0
 1170 00b2 134A     		ldr	r2, .L84+20
 1171 00b4 1946     		mov	r1, r3
 1172 00b6 2120     		movs	r0, #33
ARM GAS  C:\Users\20398\AppData\Local\Temp\cczBaLIa.s 			page 29


 1173 00b8 FFF7FEFF 		bl	OLED_DrawImage
 1174              	.LVL93:
 1175 00bc B0E7     		b	.L67
 1176              	.L82:
 196:Application/menu_task.c ****         else if (rank_img > 2) // 3
 1177              		.loc 1 196 13 view .LVU293
 1178 00be 0023     		movs	r3, #0
 1179 00c0 104A     		ldr	r2, .L84+24
 1180 00c2 1946     		mov	r1, r3
 1181 00c4 1E20     		movs	r0, #30
 1182 00c6 FFF7FEFF 		bl	OLED_DrawImage
 1183              	.LVL94:
 1184 00ca A9E7     		b	.L67
 1185              	.L83:
 198:Application/menu_task.c ****         else if (rank_img > 1) // 2
 1186              		.loc 1 198 13 view .LVU294
 1187 00cc 0023     		movs	r3, #0
 1188 00ce 0E4A     		ldr	r2, .L84+28
 1189 00d0 1946     		mov	r1, r3
 1190 00d2 1120     		movs	r0, #17
 1191 00d4 FFF7FEFF 		bl	OLED_DrawImage
 1192              	.LVL95:
 1193 00d8 A2E7     		b	.L67
 1194              	.L73:
 202:Application/menu_task.c ****         OLED_ShowFrame();
 1195              		.loc 1 202 13 view .LVU295
 1196 00da 0023     		movs	r3, #0
 1197 00dc 0B4A     		ldr	r2, .L84+32
 1198 00de 1946     		mov	r1, r3
 1199 00e0 1820     		movs	r0, #24
 1200 00e2 FFF7FEFF 		bl	OLED_DrawImage
 1201              	.LVL96:
 1202 00e6 9BE7     		b	.L67
 1203              	.L61:
 1204              	.LBE18:
 208:Application/menu_task.c ****     }
 209:Application/menu_task.c **** }
 1205              		.loc 1 209 1 is_stmt 0 view .LVU296
 1206 00e8 08BD     		pop	{r3, pc}
 1207              	.L85:
 1208 00ea 00BF     		.align	2
 1209              	.L84:
 1210 00ec 00000000 		.word	.LANCHOR4
 1211 00f0 00000000 		.word	infantry34Img
 1212 00f4 00000000 		.word	CSGOImg
 1213 00f8 00000000 		.word	inf4Img
 1214 00fc 00000000 		.word	heroainfImg
 1215 0100 00000000 		.word	APEXImg
 1216 0104 00000000 		.word	ACEImg
 1217 0108 00000000 		.word	ROBOMASTERImg
 1218 010c 00000000 		.word	dafuImg
 1219              		.cfi_endproc
 1220              	.LFE78:
 1222              		.global	__aeabi_f2d
 1223              		.global	__aeabi_ddiv
 1224              		.global	__aeabi_d2f
 1225              		.global	__aeabi_dsub
ARM GAS  C:\Users\20398\AppData\Local\Temp\cczBaLIa.s 			page 30


 1226              		.global	__aeabi_dadd
 1227              		.global	__aeabi_f2iz
 1228              		.global	__aeabi_i2f
 1229              		.global	__aeabi_fsub
 1230              		.section	.rodata.MENU_ShowInfomation.str1.4,"aMS",%progbits,1
 1231              		.align	2
 1232              	.LC7:
 1233 0000 56726566 		.ascii	"Vref=%d.%dV\000"
 1233      3D25642E 
 1233      25645600 
 1234              		.align	2
 1235              	.LC8:
 1236 000c 54656D70 		.ascii	"Temp=%d.%dC\000"
 1236      3D25642E 
 1236      25644300 
 1237              		.align	2
 1238              	.LC9:
 1239 0018 4F4E4C49 		.ascii	"ONLINE\000"
 1239      4E4500
 1240 001f 00       		.align	2
 1241              	.LC10:
 1242 0020 4F46464C 		.ascii	"OFFLINE\000"
 1242      494E4500 
 1243              		.align	2
 1244              	.LC11:
 1245 0028 42792043 		.ascii	"By CAYON\000"
 1245      41594F4E 
 1245      00
 1246              		.section	.text.MENU_ShowInfomation,"ax",%progbits
 1247              		.align	1
 1248              		.global	MENU_ShowInfomation
 1249              		.syntax unified
 1250              		.thumb
 1251              		.thumb_func
 1253              	MENU_ShowInfomation:
 1254              	.LFB79:
 210:Application/menu_task.c **** 
 211:Application/menu_task.c **** void MENU_ShowInfomation(void)
 212:Application/menu_task.c **** {
 1255              		.loc 1 212 1 is_stmt 1 view -0
 1256              		.cfi_startproc
 1257              		@ args = 0, pretend = 0, frame = 104
 1258              		@ frame_needed = 0, uses_anonymous_args = 0
 1259 0000 F0B5     		push	{r4, r5, r6, r7, lr}
 1260              	.LCFI14:
 1261              		.cfi_def_cfa_offset 20
 1262              		.cfi_offset 4, -20
 1263              		.cfi_offset 5, -16
 1264              		.cfi_offset 6, -12
 1265              		.cfi_offset 7, -8
 1266              		.cfi_offset 14, -4
 1267 0002 9DB0     		sub	sp, sp, #116
 1268              	.LCFI15:
 1269              		.cfi_def_cfa_offset 136
 1270 0004 18E0     		b	.L90
 1271              	.LVL97:
 1272              	.L92:
ARM GAS  C:\Users\20398\AppData\Local\Temp\cczBaLIa.s 			page 31


 1273              	.LBB19:
 213:Application/menu_task.c ****     while (1)
 214:Application/menu_task.c ****     {
 215:Application/menu_task.c ****         char Vbuf[50];
 216:Application/menu_task.c ****         char Tbuf[50];
 217:Application/menu_task.c ****         float Vref = (1.2 / ((float)rc->Vref / 4095));
 218:Application/menu_task.c ****         float temperature = ((1.34 - ((float)rc->temperature) * Vref / 4096) / 4.3) + 25.0;
 219:Application/menu_task.c ****         int intValue = (int)Vref;
 220:Application/menu_task.c ****         float decimalValue = Vref - (float)intValue;
 221:Application/menu_task.c ****         int decimalIntValue = (int)(decimalValue * 1000); // ‰øùÁïô‰∏§‰ΩçÂ∞èÊï∞
 222:Application/menu_task.c ****         sprintf(Vbuf, "Vref=%d.%dV", intValue, decimalIntValue);
 223:Application/menu_task.c ****         intValue = (int)temperature;
 224:Application/menu_task.c ****         decimalValue = temperature - (float)intValue;
 225:Application/menu_task.c ****         decimalIntValue = (int)(decimalValue * 1000); // ‰øùÁïô‰∏§‰ΩçÂ∞èÊï∞
 226:Application/menu_task.c ****         sprintf(Tbuf, "Temp=%d.%dC", intValue, decimalIntValue);
 227:Application/menu_task.c ****         OLED_NewFrame();
 228:Application/menu_task.c ****         OLED_PrintASCIIString(5, 4, Vbuf, &afont16x8, 0);
 229:Application/menu_task.c ****         OLED_PrintASCIIString(5, 24, Tbuf, &afont16x8, 0);
 230:Application/menu_task.c ****         if (rc->online)
 231:Application/menu_task.c ****             OLED_PrintASCIIString(5, 44, "ONLINE", &afont16x8, 0);
 1274              		.loc 1 231 13 view .LVU298
 1275 0006 0095     		str	r5, [sp]
 1276 0008 2346     		mov	r3, r4
 1277 000a 4F4A     		ldr	r2, .L93+16
 1278 000c 2C21     		movs	r1, #44
 1279 000e 0520     		movs	r0, #5
 1280 0010 FFF7FEFF 		bl	OLED_PrintASCIIString
 1281              	.LVL98:
 1282              	.L88:
 232:Application/menu_task.c ****         else
 233:Application/menu_task.c ****             OLED_PrintASCIIString(5, 44, "OFFLINE", &afont16x8, 0);
 234:Application/menu_task.c ****         OLED_PrintASCIIString(72, 48, "By CAYON", &afont12x6, 0);
 1283              		.loc 1 234 9 view .LVU299
 1284 0014 0023     		movs	r3, #0
 1285 0016 0093     		str	r3, [sp]
 1286 0018 4C4B     		ldr	r3, .L93+20
 1287 001a 4D4A     		ldr	r2, .L93+24
 1288 001c 3021     		movs	r1, #48
 1289 001e 4820     		movs	r0, #72
 1290 0020 FFF7FEFF 		bl	OLED_PrintASCIIString
 1291              	.LVL99:
 235:Application/menu_task.c ****         OLED_ShowFrame();
 1292              		.loc 1 235 9 view .LVU300
 1293 0024 FFF7FEFF 		bl	OLED_ShowFrame
 1294              	.LVL100:
 236:Application/menu_task.c ****         if (menu_command_callback(GET_EVENT_BACK))
 1295              		.loc 1 236 9 view .LVU301
 1296              		.loc 1 236 13 is_stmt 0 view .LVU302
 1297 0028 0620     		movs	r0, #6
 1298 002a FFF7FEFF 		bl	menu_command_callback
 1299              	.LVL101:
 1300              		.loc 1 236 12 view .LVU303
 1301 002e 0028     		cmp	r0, #0
 1302 0030 7FD1     		bne	.L86
 237:Application/menu_task.c ****             break;
 238:Application/menu_task.c ****         osDelay(5);
 1303              		.loc 1 238 9 is_stmt 1 view .LVU304
ARM GAS  C:\Users\20398\AppData\Local\Temp\cczBaLIa.s 			page 32


 1304 0032 0520     		movs	r0, #5
 1305 0034 FFF7FEFF 		bl	osDelay
 1306              	.LVL102:
 1307              	.LBE19:
 213:Application/menu_task.c ****     {
 1308              		.loc 1 213 11 view .LVU305
 1309              	.L90:
 213:Application/menu_task.c ****     {
 1310              		.loc 1 213 5 view .LVU306
 1311              	.LBB20:
 215:Application/menu_task.c ****         char Tbuf[50];
 1312              		.loc 1 215 9 view .LVU307
 216:Application/menu_task.c ****         float Vref = (1.2 / ((float)rc->Vref / 4095));
 1313              		.loc 1 216 9 view .LVU308
 217:Application/menu_task.c ****         float temperature = ((1.34 - ((float)rc->temperature) * Vref / 4096) / 4.3) + 25.0;
 1314              		.loc 1 217 9 view .LVU309
 217:Application/menu_task.c ****         float temperature = ((1.34 - ((float)rc->temperature) * Vref / 4096) / 4.3) + 25.0;
 1315              		.loc 1 217 39 is_stmt 0 view .LVU310
 1316 0038 464F     		ldr	r7, .L93+28
 1317 003a 3D68     		ldr	r5, [r7]
 217:Application/menu_task.c ****         float temperature = ((1.34 - ((float)rc->temperature) * Vref / 4096) / 4.3) + 25.0;
 1318              		.loc 1 217 30 view .LVU311
 1319 003c A888     		ldrh	r0, [r5, #4]
 1320 003e FFF7FEFF 		bl	__aeabi_ui2f
 1321              	.LVL103:
 217:Application/menu_task.c ****         float temperature = ((1.34 - ((float)rc->temperature) * Vref / 4096) / 4.3) + 25.0;
 1322              		.loc 1 217 46 view .LVU312
 1323 0042 4549     		ldr	r1, .L93+32
 1324 0044 FFF7FEFF 		bl	__aeabi_fdiv
 1325              	.LVL104:
 1326 0048 FFF7FEFF 		bl	__aeabi_f2d
 1327              	.LVL105:
 1328 004c 0246     		mov	r2, r0
 1329 004e 0B46     		mov	r3, r1
 217:Application/menu_task.c ****         float temperature = ((1.34 - ((float)rc->temperature) * Vref / 4096) / 4.3) + 25.0;
 1330              		.loc 1 217 27 view .LVU313
 1331 0050 4FF03330 		mov	r0, #858993459
 1332 0054 4149     		ldr	r1, .L93+36
 1333 0056 FFF7FEFF 		bl	__aeabi_ddiv
 1334              	.LVL106:
 217:Application/menu_task.c ****         float temperature = ((1.34 - ((float)rc->temperature) * Vref / 4096) / 4.3) + 25.0;
 1335              		.loc 1 217 15 view .LVU314
 1336 005a FFF7FEFF 		bl	__aeabi_d2f
 1337              	.LVL107:
 1338 005e 0446     		mov	r4, r0
 1339              	.LVL108:
 218:Application/menu_task.c ****         int intValue = (int)Vref;
 1340              		.loc 1 218 9 is_stmt 1 view .LVU315
 218:Application/menu_task.c ****         int intValue = (int)Vref;
 1341              		.loc 1 218 39 is_stmt 0 view .LVU316
 1342 0060 E888     		ldrh	r0, [r5, #6]
 1343              	.LVL109:
 218:Application/menu_task.c ****         int intValue = (int)Vref;
 1344              		.loc 1 218 39 view .LVU317
 1345 0062 FFF7FEFF 		bl	__aeabi_ui2f
 1346              	.LVL110:
 218:Application/menu_task.c ****         int intValue = (int)Vref;
ARM GAS  C:\Users\20398\AppData\Local\Temp\cczBaLIa.s 			page 33


 1347              		.loc 1 218 63 view .LVU318
 1348 0066 2146     		mov	r1, r4
 1349 0068 FFF7FEFF 		bl	__aeabi_fmul
 1350              	.LVL111:
 218:Application/menu_task.c ****         int intValue = (int)Vref;
 1351              		.loc 1 218 70 view .LVU319
 1352 006c 4FF06651 		mov	r1, #964689920
 1353 0070 FFF7FEFF 		bl	__aeabi_fmul
 1354              	.LVL112:
 1355 0074 FFF7FEFF 		bl	__aeabi_f2d
 1356              	.LVL113:
 1357 0078 0246     		mov	r2, r0
 1358 007a 0B46     		mov	r3, r1
 218:Application/menu_task.c ****         int intValue = (int)Vref;
 1359              		.loc 1 218 36 view .LVU320
 1360 007c 2EA1     		adr	r1, .L93
 1361 007e D1E90001 		ldrd	r0, [r1]
 1362 0082 FFF7FEFF 		bl	__aeabi_dsub
 1363              	.LVL114:
 218:Application/menu_task.c ****         int intValue = (int)Vref;
 1364              		.loc 1 218 78 view .LVU321
 1365 0086 2EA3     		adr	r3, .L93+8
 1366 0088 D3E90023 		ldrd	r2, [r3]
 1367 008c FFF7FEFF 		bl	__aeabi_ddiv
 1368              	.LVL115:
 218:Application/menu_task.c ****         int intValue = (int)Vref;
 1369              		.loc 1 218 85 view .LVU322
 1370 0090 0022     		movs	r2, #0
 1371 0092 334B     		ldr	r3, .L93+40
 1372 0094 FFF7FEFF 		bl	__aeabi_dadd
 1373              	.LVL116:
 218:Application/menu_task.c ****         int intValue = (int)Vref;
 1374              		.loc 1 218 15 view .LVU323
 1375 0098 FFF7FEFF 		bl	__aeabi_d2f
 1376              	.LVL117:
 1377 009c 0546     		mov	r5, r0
 1378              	.LVL118:
 219:Application/menu_task.c ****         float decimalValue = Vref - (float)intValue;
 1379              		.loc 1 219 9 is_stmt 1 view .LVU324
 219:Application/menu_task.c ****         float decimalValue = Vref - (float)intValue;
 1380              		.loc 1 219 13 is_stmt 0 view .LVU325
 1381 009e 2046     		mov	r0, r4
 1382              	.LVL119:
 219:Application/menu_task.c ****         float decimalValue = Vref - (float)intValue;
 1383              		.loc 1 219 13 view .LVU326
 1384 00a0 FFF7FEFF 		bl	__aeabi_f2iz
 1385              	.LVL120:
 1386 00a4 0646     		mov	r6, r0
 1387              	.LVL121:
 220:Application/menu_task.c ****         int decimalIntValue = (int)(decimalValue * 1000); // ‰øùÁïô‰∏§‰ΩçÂ∞èÊï∞
 1388              		.loc 1 220 9 is_stmt 1 view .LVU327
 220:Application/menu_task.c ****         int decimalIntValue = (int)(decimalValue * 1000); // ‰øùÁïô‰∏§‰ΩçÂ∞èÊï∞
 1389              		.loc 1 220 37 is_stmt 0 view .LVU328
 1390 00a6 FFF7FEFF 		bl	__aeabi_i2f
 1391              	.LVL122:
 220:Application/menu_task.c ****         int decimalIntValue = (int)(decimalValue * 1000); // ‰øùÁïô‰∏§‰ΩçÂ∞èÊï∞
 1392              		.loc 1 220 37 view .LVU329
ARM GAS  C:\Users\20398\AppData\Local\Temp\cczBaLIa.s 			page 34


 1393 00aa 0146     		mov	r1, r0
 220:Application/menu_task.c ****         int decimalIntValue = (int)(decimalValue * 1000); // ‰øùÁïô‰∏§‰ΩçÂ∞èÊï∞
 1394              		.loc 1 220 15 view .LVU330
 1395 00ac 2046     		mov	r0, r4
 1396 00ae FFF7FEFF 		bl	__aeabi_fsub
 1397              	.LVL123:
 221:Application/menu_task.c ****         sprintf(Vbuf, "Vref=%d.%dV", intValue, decimalIntValue);
 1398              		.loc 1 221 9 is_stmt 1 view .LVU331
 221:Application/menu_task.c ****         sprintf(Vbuf, "Vref=%d.%dV", intValue, decimalIntValue);
 1399              		.loc 1 221 50 is_stmt 0 view .LVU332
 1400 00b2 2C49     		ldr	r1, .L93+44
 1401 00b4 FFF7FEFF 		bl	__aeabi_fmul
 1402              	.LVL124:
 221:Application/menu_task.c ****         sprintf(Vbuf, "Vref=%d.%dV", intValue, decimalIntValue);
 1403              		.loc 1 221 13 view .LVU333
 1404 00b8 FFF7FEFF 		bl	__aeabi_f2iz
 1405              	.LVL125:
 1406 00bc 0346     		mov	r3, r0
 1407              	.LVL126:
 222:Application/menu_task.c ****         intValue = (int)temperature;
 1408              		.loc 1 222 9 is_stmt 1 view .LVU334
 1409 00be 3246     		mov	r2, r6
 1410 00c0 2949     		ldr	r1, .L93+48
 1411 00c2 02A8     		add	r0, sp, #8
 1412              	.LVL127:
 222:Application/menu_task.c ****         intValue = (int)temperature;
 1413              		.loc 1 222 9 is_stmt 0 view .LVU335
 1414 00c4 FFF7FEFF 		bl	sprintf
 1415              	.LVL128:
 223:Application/menu_task.c ****         decimalValue = temperature - (float)intValue;
 1416              		.loc 1 223 9 is_stmt 1 view .LVU336
 223:Application/menu_task.c ****         decimalValue = temperature - (float)intValue;
 1417              		.loc 1 223 18 is_stmt 0 view .LVU337
 1418 00c8 2846     		mov	r0, r5
 1419 00ca FFF7FEFF 		bl	__aeabi_f2iz
 1420              	.LVL129:
 1421 00ce 0446     		mov	r4, r0
 1422              	.LVL130:
 224:Application/menu_task.c ****         decimalIntValue = (int)(decimalValue * 1000); // ‰øùÁïô‰∏§‰ΩçÂ∞èÊï∞
 1423              		.loc 1 224 9 is_stmt 1 view .LVU338
 224:Application/menu_task.c ****         decimalIntValue = (int)(decimalValue * 1000); // ‰øùÁïô‰∏§‰ΩçÂ∞èÊï∞
 1424              		.loc 1 224 38 is_stmt 0 view .LVU339
 1425 00d0 FFF7FEFF 		bl	__aeabi_i2f
 1426              	.LVL131:
 224:Application/menu_task.c ****         decimalIntValue = (int)(decimalValue * 1000); // ‰øùÁïô‰∏§‰ΩçÂ∞èÊï∞
 1427              		.loc 1 224 38 view .LVU340
 1428 00d4 0146     		mov	r1, r0
 224:Application/menu_task.c ****         decimalIntValue = (int)(decimalValue * 1000); // ‰øùÁïô‰∏§‰ΩçÂ∞èÊï∞
 1429              		.loc 1 224 22 view .LVU341
 1430 00d6 2846     		mov	r0, r5
 1431 00d8 FFF7FEFF 		bl	__aeabi_fsub
 1432              	.LVL132:
 225:Application/menu_task.c ****         sprintf(Tbuf, "Temp=%d.%dC", intValue, decimalIntValue);
 1433              		.loc 1 225 9 is_stmt 1 view .LVU342
 225:Application/menu_task.c ****         sprintf(Tbuf, "Temp=%d.%dC", intValue, decimalIntValue);
 1434              		.loc 1 225 46 is_stmt 0 view .LVU343
 1435 00dc 2149     		ldr	r1, .L93+44
ARM GAS  C:\Users\20398\AppData\Local\Temp\cczBaLIa.s 			page 35


 1436 00de FFF7FEFF 		bl	__aeabi_fmul
 1437              	.LVL133:
 225:Application/menu_task.c ****         sprintf(Tbuf, "Temp=%d.%dC", intValue, decimalIntValue);
 1438              		.loc 1 225 25 view .LVU344
 1439 00e2 FFF7FEFF 		bl	__aeabi_f2iz
 1440              	.LVL134:
 1441 00e6 0346     		mov	r3, r0
 1442              	.LVL135:
 226:Application/menu_task.c ****         OLED_NewFrame();
 1443              		.loc 1 226 9 is_stmt 1 view .LVU345
 1444 00e8 2246     		mov	r2, r4
 1445 00ea 2049     		ldr	r1, .L93+52
 1446 00ec 0FA8     		add	r0, sp, #60
 1447              	.LVL136:
 226:Application/menu_task.c ****         OLED_NewFrame();
 1448              		.loc 1 226 9 is_stmt 0 view .LVU346
 1449 00ee FFF7FEFF 		bl	sprintf
 1450              	.LVL137:
 227:Application/menu_task.c ****         OLED_PrintASCIIString(5, 4, Vbuf, &afont16x8, 0);
 1451              		.loc 1 227 9 is_stmt 1 view .LVU347
 1452 00f2 FFF7FEFF 		bl	OLED_NewFrame
 1453              	.LVL138:
 228:Application/menu_task.c ****         OLED_PrintASCIIString(5, 24, Tbuf, &afont16x8, 0);
 1454              		.loc 1 228 9 view .LVU348
 1455 00f6 1E4C     		ldr	r4, .L93+56
 1456              	.LVL139:
 228:Application/menu_task.c ****         OLED_PrintASCIIString(5, 24, Tbuf, &afont16x8, 0);
 1457              		.loc 1 228 9 is_stmt 0 view .LVU349
 1458 00f8 0025     		movs	r5, #0
 1459              	.LVL140:
 228:Application/menu_task.c ****         OLED_PrintASCIIString(5, 24, Tbuf, &afont16x8, 0);
 1460              		.loc 1 228 9 view .LVU350
 1461 00fa 0095     		str	r5, [sp]
 1462 00fc 2346     		mov	r3, r4
 1463 00fe 02AA     		add	r2, sp, #8
 1464 0100 0421     		movs	r1, #4
 1465 0102 0520     		movs	r0, #5
 1466 0104 FFF7FEFF 		bl	OLED_PrintASCIIString
 1467              	.LVL141:
 229:Application/menu_task.c ****         if (rc->online)
 1468              		.loc 1 229 9 is_stmt 1 view .LVU351
 1469 0108 0095     		str	r5, [sp]
 1470 010a 2346     		mov	r3, r4
 1471 010c 0FAA     		add	r2, sp, #60
 1472 010e 1821     		movs	r1, #24
 1473 0110 0520     		movs	r0, #5
 1474 0112 FFF7FEFF 		bl	OLED_PrintASCIIString
 1475              	.LVL142:
 230:Application/menu_task.c ****             OLED_PrintASCIIString(5, 44, "ONLINE", &afont16x8, 0);
 1476              		.loc 1 230 9 view .LVU352
 230:Application/menu_task.c ****             OLED_PrintASCIIString(5, 44, "ONLINE", &afont16x8, 0);
 1477              		.loc 1 230 15 is_stmt 0 view .LVU353
 1478 0116 3B68     		ldr	r3, [r7]
 1479 0118 1B7A     		ldrb	r3, [r3, #8]	@ zero_extendqisi2
 230:Application/menu_task.c ****             OLED_PrintASCIIString(5, 44, "ONLINE", &afont16x8, 0);
 1480              		.loc 1 230 12 view .LVU354
 1481 011a 002B     		cmp	r3, #0
ARM GAS  C:\Users\20398\AppData\Local\Temp\cczBaLIa.s 			page 36


 1482 011c 7FF473AF 		bne	.L92
 233:Application/menu_task.c ****         OLED_PrintASCIIString(72, 48, "By CAYON", &afont12x6, 0);
 1483              		.loc 1 233 13 is_stmt 1 view .LVU355
 1484 0120 0023     		movs	r3, #0
 1485 0122 0093     		str	r3, [sp]
 1486 0124 124B     		ldr	r3, .L93+56
 1487 0126 134A     		ldr	r2, .L93+60
 1488 0128 2C21     		movs	r1, #44
 1489 012a 0520     		movs	r0, #5
 1490 012c FFF7FEFF 		bl	OLED_PrintASCIIString
 1491              	.LVL143:
 1492 0130 70E7     		b	.L88
 1493              	.L86:
 1494              	.LBE20:
 239:Application/menu_task.c ****     }
 240:Application/menu_task.c **** }...
 1495              		.loc 1 240 1 is_stmt 0 view .LVU356
 1496 0132 1DB0     		add	sp, sp, #116
 1497              	.LCFI16:
 1498              		.cfi_def_cfa_offset 20
 1499              		@ sp needed
 1500 0134 F0BD     		pop	{r4, r5, r6, r7, pc}
 1501              	.L94:
 1502 0136 00BF     		.align	3
 1503              	.L93:
 1504 0138 713D0AD7 		.word	-687194767
 1505 013c A370F53F 		.word	1073049763
 1506 0140 33333333 		.word	858993459
 1507 0144 33331140 		.word	1074869043
 1508 0148 18000000 		.word	.LC9
 1509 014c 00000000 		.word	afont12x6
 1510 0150 28000000 		.word	.LC11
 1511 0154 00000000 		.word	.LANCHOR0
 1512 0158 00F07F45 		.word	1166012416
 1513 015c 3333F33F 		.word	1072902963
 1514 0160 00003940 		.word	1077477376
 1515 0164 00007A44 		.word	1148846080
 1516 0168 00000000 		.word	.LC7
 1517 016c 0C000000 		.word	.LC8
 1518 0170 00000000 		.word	afont16x8
 1519 0174 20000000 		.word	.LC10
 1520              		.cfi_endproc
 1521              	.LFE79:
 1523              		.global	rc
 1524              		.section	.bss.adc_cnt.2,"aw",%nobits
 1525              		.align	1
 1526              		.set	.LANCHOR2,. + 0
 1529              	adc_cnt.2:
 1530 0000 0000     		.space	2
 1531              		.section	.bss.adc_sum.1,"aw",%nobits
 1532              		.align	2
 1533              		.set	.LANCHOR3,. + 0
 1536              	adc_sum.1:
 1537 0000 00000000 		.space	24
 1537      00000000 
 1537      00000000 
 1537      00000000 
ARM GAS  C:\Users\20398\AppData\Local\Temp\cczBaLIa.s 			page 37


 1537      00000000 
 1538              		.section	.bss.rc,"aw",%nobits
 1539              		.align	2
 1540              		.set	.LANCHOR0,. + 0
 1543              	rc:
 1544 0000 00000000 		.space	4
 1545              		.section	.bss.state.3,"aw",%nobits
 1546              		.set	.LANCHOR1,. + 0
 1549              	state.3:
 1550 0000 00       		.space	1
 1551              		.section	.data.rank_img.0,"aw"
 1552              		.set	.LANCHOR4,. + 0
 1555              	rank_img.0:
 1556 0000 05       		.byte	5
 1557              		.text
 1558              	.Letext0:
 1559              		.file 2 "e:\\ace2025\\enviroment\\gcc-arm-none-eabi-10.3-2021.10-win32\\arm-gnu-toolchian\\arm-non
 1560              		.file 3 "e:\\ace2025\\enviroment\\gcc-arm-none-eabi-10.3-2021.10-win32\\arm-gnu-toolchian\\arm-non
 1561              		.file 4 "Modules/font.h"
 1562              		.file 5 "Application/remote.h"
 1563              		.file 6 "Modules/oled.h"
 1564              		.file 7 "Application/MENU.h"
 1565              		.file 8 "Middlewares/Third_Party/FreeRTOS/Source/CMSIS_RTOS/cmsis_os.h"
 1566              		.file 9 "e:\\ace2025\\enviroment\\gcc-arm-none-eabi-10.3-2021.10-win32\\arm-gnu-toolchian\\arm-non
 1567              		.file 10 "Modules/flash.h"
ARM GAS  C:\Users\20398\AppData\Local\Temp\cczBaLIa.s 			page 38


DEFINED SYMBOLS
                            *ABS*:00000000 menu_task.c
C:\Users\20398\AppData\Local\Temp\cczBaLIa.s:18     .text.read_offset_rocker_from_flash:00000000 $t
C:\Users\20398\AppData\Local\Temp\cczBaLIa.s:23     .text.read_offset_rocker_from_flash:00000000 read_offset_rocker_from_flash
C:\Users\20398\AppData\Local\Temp\cczBaLIa.s:95     .text.read_offset_rocker_from_flash:0000003c $d
C:\Users\20398\AppData\Local\Temp\cczBaLIa.s:100    .text.write_offset_rocker_to_flash:00000000 $t
C:\Users\20398\AppData\Local\Temp\cczBaLIa.s:105    .text.write_offset_rocker_to_flash:00000000 write_offset_rocker_to_flash
C:\Users\20398\AppData\Local\Temp\cczBaLIa.s:173    .text.write_offset_rocker_to_flash:0000003c $d
C:\Users\20398\AppData\Local\Temp\cczBaLIa.s:178    .text.MENU_Init:00000000 $t
C:\Users\20398\AppData\Local\Temp\cczBaLIa.s:184    .text.MENU_Init:00000000 MENU_Init
C:\Users\20398\AppData\Local\Temp\cczBaLIa.s:211    .text.MENU_Init:00000014 $d
C:\Users\20398\AppData\Local\Temp\cczBaLIa.s:220    .text.MENU_RockerInfo:00000000 $t
C:\Users\20398\AppData\Local\Temp\cczBaLIa.s:226    .text.MENU_RockerInfo:00000000 MENU_RockerInfo
C:\Users\20398\AppData\Local\Temp\cczBaLIa.s:521    .text.MENU_RockerInfo:00000188 $d
C:\Users\20398\AppData\Local\Temp\cczBaLIa.s:528    .rodata.MENU_Calibration.str1.4:00000000 $d
C:\Users\20398\AppData\Local\Temp\cczBaLIa.s:556    .text.MENU_Calibration:00000000 $t
C:\Users\20398\AppData\Local\Temp\cczBaLIa.s:562    .text.MENU_Calibration:00000000 MENU_Calibration
C:\Users\20398\AppData\Local\Temp\cczBaLIa.s:979    .text.MENU_Calibration:000001e8 $d
C:\Users\20398\AppData\Local\Temp\cczBaLIa.s:998    .text.MENU_ShowImage:00000000 $t
C:\Users\20398\AppData\Local\Temp\cczBaLIa.s:1004   .text.MENU_ShowImage:00000000 MENU_ShowImage
C:\Users\20398\AppData\Local\Temp\cczBaLIa.s:1210   .text.MENU_ShowImage:000000ec $d
C:\Users\20398\AppData\Local\Temp\cczBaLIa.s:1231   .rodata.MENU_ShowInfomation.str1.4:00000000 $d
C:\Users\20398\AppData\Local\Temp\cczBaLIa.s:1247   .text.MENU_ShowInfomation:00000000 $t
C:\Users\20398\AppData\Local\Temp\cczBaLIa.s:1253   .text.MENU_ShowInfomation:00000000 MENU_ShowInfomation
C:\Users\20398\AppData\Local\Temp\cczBaLIa.s:1504   .text.MENU_ShowInfomation:00000138 $d
C:\Users\20398\AppData\Local\Temp\cczBaLIa.s:1543   .bss.rc:00000000 rc
C:\Users\20398\AppData\Local\Temp\cczBaLIa.s:1525   .bss.adc_cnt.2:00000000 $d
C:\Users\20398\AppData\Local\Temp\cczBaLIa.s:1529   .bss.adc_cnt.2:00000000 adc_cnt.2
C:\Users\20398\AppData\Local\Temp\cczBaLIa.s:1532   .bss.adc_sum.1:00000000 $d
C:\Users\20398\AppData\Local\Temp\cczBaLIa.s:1536   .bss.adc_sum.1:00000000 adc_sum.1
C:\Users\20398\AppData\Local\Temp\cczBaLIa.s:1539   .bss.rc:00000000 $d
C:\Users\20398\AppData\Local\Temp\cczBaLIa.s:1549   .bss.state.3:00000000 state.3
C:\Users\20398\AppData\Local\Temp\cczBaLIa.s:1550   .bss.state.3:00000000 $d
C:\Users\20398\AppData\Local\Temp\cczBaLIa.s:1555   .data.rank_img.0:00000000 rank_img.0

UNDEFINED SYMBOLS
FlashReadBuff
FlashWriteBuff
GetRCpointer
__aeabi_ui2f
__aeabi_fdiv
__aeabi_fmul
__aeabi_f2uiz
OLED_DrawFilledRectangle
OLED_DrawFilledCircle
OLED_DrawRectangle
OLED_ShowFrame
menu_command_callback
osDelay
OLED_NewFrame
OLED_DrawCircle
OLED_PrintString
font16x16
font14x14
OLED_DrawImage
Key_GetEvent_Up
Key_GetEvent_Down
ARM GAS  C:\Users\20398\AppData\Local\Temp\cczBaLIa.s 			page 39


infantry34Img
CSGOImg
inf4Img
heroainfImg
APEXImg
ACEImg
ROBOMASTERImg
dafuImg
__aeabi_f2d
__aeabi_ddiv
__aeabi_d2f
__aeabi_dsub
__aeabi_dadd
__aeabi_f2iz
__aeabi_i2f
__aeabi_fsub
OLED_PrintASCIIString
sprintf
afont12x6
afont16x8
