ARM GAS  C:\Users\20398\AppData\Local\Temp\ccrUlAYy.s 			page 1


   1              		.cpu cortex-m3
   2              		.arch armv7-m
   3              		.fpu softvfp
   4              		.eabi_attribute 20, 1
   5              		.eabi_attribute 21, 1
   6              		.eabi_attribute 23, 3
   7              		.eabi_attribute 24, 1
   8              		.eabi_attribute 25, 1
   9              		.eabi_attribute 26, 1
  10              		.eabi_attribute 30, 1
  11              		.eabi_attribute 34, 1
  12              		.eabi_attribute 18, 4
  13              		.file	"menu_task.c"
  14              		.text
  15              	.Ltext0:
  16              		.cfi_sections	.debug_frame
  17              		.section	.rodata.MENU_RockerInfo.str1.4,"aMS",%progbits,1
  18              		.align	2
  19              	.LC0:
  20 0000 31303000 		.ascii	"100\000"
  21              		.align	2
  22              	.LC1:
  23 0004 2D313030 		.ascii	"-100\000"
  23      00
  24              		.section	.text.MENU_RockerInfo,"ax",%progbits
  25              		.align	1
  26              		.global	MENU_RockerInfo
  27              		.syntax unified
  28              		.thumb
  29              		.thumb_func
  31              	MENU_RockerInfo:
  32              	.LFB70:
  33              		.file 1 "Application/menu_task.c"
   1:Application/menu_task.c **** #include "menu_task.h"
   2:Application/menu_task.c **** 
   3:Application/menu_task.c **** void MENU_RockerInfo(void)
   4:Application/menu_task.c **** {
  34              		.loc 1 4 1 view -0
  35              		.cfi_startproc
  36              		@ args = 0, pretend = 0, frame = 0
  37              		@ frame_needed = 0, uses_anonymous_args = 0
  38 0000 30B5     		push	{r4, r5, lr}
  39              	.LCFI0:
  40              		.cfi_def_cfa_offset 12
  41              		.cfi_offset 4, -12
  42              		.cfi_offset 5, -8
  43              		.cfi_offset 14, -4
  44 0002 83B0     		sub	sp, sp, #12
  45              	.LCFI1:
  46              		.cfi_def_cfa_offset 24
  47 0004 02E0     		b	.L3
  48              	.L5:
   5:Application/menu_task.c ****     while (1)
   6:Application/menu_task.c ****     {
   7:Application/menu_task.c ****         OLED_NewFrame();
   8:Application/menu_task.c ****         OLED_DrawRectangle(30, 30, 35 / 1.5, 42 / 1.5, 0);
   9:Application/menu_task.c ****         OLED_DrawFilledCircle(30 + (35 / 1.5) / 2, 30 + (42 / 1.5) / 2, 2, 0); // Ë°®Á§∫ÊëáÊùÜ‰ΩçÁΩ
ARM GAS  C:\Users\20398\AppData\Local\Temp\ccrUlAYy.s 			page 2


  10:Application/menu_task.c ****         OLED_DrawRectangle(128 - 30 - 35 / 1.5, 30, 35 / 1.5, 42 / 1.5, 0);
  11:Application/menu_task.c ****         OLED_DrawFilledCircle(128 - 30 - 35 / 1.5 + (35 / 1.5) / 2, 30 + (42 / 1.5) / 2, 2, 0); // 
  12:Application/menu_task.c ****         // TODO
  13:Application/menu_task.c ****         OLED_PrintASCIIString(0, 0, "100", &afont24x12, 0);
  14:Application/menu_task.c ****         OLED_PrintASCIIString(0, 0, "-100", &afont24x12, 0);
  15:Application/menu_task.c ****         OLED_ShowFrame();
  16:Application/menu_task.c ****         if (menu_command_callback(GET_EVENT_ENTER))
  17:Application/menu_task.c ****             break;
  18:Application/menu_task.c **** 
  19:Application/menu_task.c ****         if (menu_command_callback(GET_EVENT_BACK))
  20:Application/menu_task.c ****             break;
  21:Application/menu_task.c ****         osDelay(5);
  49              		.loc 1 21 9 view .LVU1
  50 0006 0520     		movs	r0, #5
  51 0008 FFF7FEFF 		bl	osDelay
  52              	.LVL0:
   5:Application/menu_task.c ****     while (1)
  53              		.loc 1 5 11 view .LVU2
  54              	.L3:
   5:Application/menu_task.c ****     while (1)
  55              		.loc 1 5 5 view .LVU3
   7:Application/menu_task.c ****         OLED_DrawRectangle(30, 30, 35 / 1.5, 42 / 1.5, 0);
  56              		.loc 1 7 9 view .LVU4
  57 000c FFF7FEFF 		bl	OLED_NewFrame
  58              	.LVL1:
   8:Application/menu_task.c ****         OLED_DrawFilledCircle(30 + (35 / 1.5) / 2, 30 + (42 / 1.5) / 2, 2, 0); // Ë°®Á§∫ÊëáÊùÜ‰ΩçÁΩ
  59              		.loc 1 8 9 view .LVU5
  60 0010 0024     		movs	r4, #0
  61 0012 0094     		str	r4, [sp]
  62 0014 1C23     		movs	r3, #28
  63 0016 1722     		movs	r2, #23
  64 0018 1E21     		movs	r1, #30
  65 001a 0846     		mov	r0, r1
  66 001c FFF7FEFF 		bl	OLED_DrawRectangle
  67              	.LVL2:
   9:Application/menu_task.c ****         OLED_DrawRectangle(128 - 30 - 35 / 1.5, 30, 35 / 1.5, 42 / 1.5, 0);
  68              		.loc 1 9 9 view .LVU6
  69 0020 2346     		mov	r3, r4
  70 0022 0222     		movs	r2, #2
  71 0024 2C21     		movs	r1, #44
  72 0026 2920     		movs	r0, #41
  73 0028 FFF7FEFF 		bl	OLED_DrawFilledCircle
  74              	.LVL3:
  10:Application/menu_task.c ****         OLED_DrawFilledCircle(128 - 30 - 35 / 1.5 + (35 / 1.5) / 2, 30 + (42 / 1.5) / 2, 2, 0); // 
  75              		.loc 1 10 9 view .LVU7
  76 002c 0094     		str	r4, [sp]
  77 002e 1C23     		movs	r3, #28
  78 0030 1722     		movs	r2, #23
  79 0032 1E21     		movs	r1, #30
  80 0034 4A20     		movs	r0, #74
  81 0036 FFF7FEFF 		bl	OLED_DrawRectangle
  82              	.LVL4:
  11:Application/menu_task.c ****         // TODO
  83              		.loc 1 11 9 view .LVU8
  84 003a 2346     		mov	r3, r4
  85 003c 0222     		movs	r2, #2
  86 003e 2C21     		movs	r1, #44
ARM GAS  C:\Users\20398\AppData\Local\Temp\ccrUlAYy.s 			page 3


  87 0040 5620     		movs	r0, #86
  88 0042 FFF7FEFF 		bl	OLED_DrawFilledCircle
  89              	.LVL5:
  13:Application/menu_task.c ****         OLED_PrintASCIIString(0, 0, "-100", &afont24x12, 0);
  90              		.loc 1 13 9 view .LVU9
  91 0046 0E4D     		ldr	r5, .L6
  92 0048 0094     		str	r4, [sp]
  93 004a 2B46     		mov	r3, r5
  94 004c 0D4A     		ldr	r2, .L6+4
  95 004e 2146     		mov	r1, r4
  96 0050 2046     		mov	r0, r4
  97 0052 FFF7FEFF 		bl	OLED_PrintASCIIString
  98              	.LVL6:
  14:Application/menu_task.c ****         OLED_ShowFrame();
  99              		.loc 1 14 9 view .LVU10
 100 0056 0094     		str	r4, [sp]
 101 0058 2B46     		mov	r3, r5
 102 005a 0B4A     		ldr	r2, .L6+8
 103 005c 2146     		mov	r1, r4
 104 005e 2046     		mov	r0, r4
 105 0060 FFF7FEFF 		bl	OLED_PrintASCIIString
 106              	.LVL7:
  15:Application/menu_task.c ****         if (menu_command_callback(GET_EVENT_ENTER))
 107              		.loc 1 15 9 view .LVU11
 108 0064 FFF7FEFF 		bl	OLED_ShowFrame
 109              	.LVL8:
  16:Application/menu_task.c ****             break;
 110              		.loc 1 16 9 view .LVU12
  16:Application/menu_task.c ****             break;
 111              		.loc 1 16 13 is_stmt 0 view .LVU13
 112 0068 0520     		movs	r0, #5
 113 006a FFF7FEFF 		bl	menu_command_callback
 114              	.LVL9:
  16:Application/menu_task.c ****             break;
 115              		.loc 1 16 12 view .LVU14
 116 006e 20B9     		cbnz	r0, .L1
  19:Application/menu_task.c ****             break;
 117              		.loc 1 19 9 is_stmt 1 view .LVU15
  19:Application/menu_task.c ****             break;
 118              		.loc 1 19 13 is_stmt 0 view .LVU16
 119 0070 0620     		movs	r0, #6
 120 0072 FFF7FEFF 		bl	menu_command_callback
 121              	.LVL10:
  19:Application/menu_task.c ****             break;
 122              		.loc 1 19 12 view .LVU17
 123 0076 0028     		cmp	r0, #0
 124 0078 C5D0     		beq	.L5
 125              	.L1:
  22:Application/menu_task.c ****     }
  23:Application/menu_task.c **** }
 126              		.loc 1 23 1 view .LVU18
 127 007a 03B0     		add	sp, sp, #12
 128              	.LCFI2:
 129              		.cfi_def_cfa_offset 12
 130              		@ sp needed
 131 007c 30BD     		pop	{r4, r5, pc}
 132              	.L7:
ARM GAS  C:\Users\20398\AppData\Local\Temp\ccrUlAYy.s 			page 4


 133 007e 00BF     		.align	2
 134              	.L6:
 135 0080 00000000 		.word	afont24x12
 136 0084 00000000 		.word	.LC0
 137 0088 04000000 		.word	.LC1
 138              		.cfi_endproc
 139              	.LFE70:
 141              		.section	.text.MENU_Calibration,"ax",%progbits
 142              		.align	1
 143              		.global	MENU_Calibration
 144              		.syntax unified
 145              		.thumb
 146              		.thumb_func
 148              	MENU_Calibration:
 149              	.LFB71:
  24:Application/menu_task.c **** 
  25:Application/menu_task.c **** void MENU_Calibration(void)
  26:Application/menu_task.c **** {
 150              		.loc 1 26 1 is_stmt 1 view -0
 151              		.cfi_startproc
 152              		@ args = 0, pretend = 0, frame = 0
 153              		@ frame_needed = 0, uses_anonymous_args = 0
 154 0000 08B5     		push	{r3, lr}
 155              	.LCFI3:
 156              		.cfi_def_cfa_offset 8
 157              		.cfi_offset 3, -8
 158              		.cfi_offset 14, -4
 159 0002 06E0     		b	.L11
 160              	.L9:
 161              	.LBB2:
  27:Application/menu_task.c ****     while (1)
  28:Application/menu_task.c ****     {
  29:Application/menu_task.c ****         // Áä∂ÊÄÅÊú∫ÊÄùÊÉ≥
  30:Application/menu_task.c ****         static uint8_t state = 0;
  31:Application/menu_task.c ****         if (state == 0)
  32:Application/menu_task.c ****         {
  33:Application/menu_task.c ****             // ÊòæÁ§∫Ê†°ÂáÜÊèêÁ§∫Ôºöplz Center all joysticks.
  34:Application/menu_task.c ****             // Êåâ‰∏ãÁ°ÆËÆ§ÊåâÈîÆÂêé ÔºåËøõË°åÊ†°ÂáÜ
  35:Application/menu_task.c ****             if (menu_command_callback(GET_EVENT_ENTER))
  36:Application/menu_task.c ****                 state = 1;
  37:Application/menu_task.c ****         }
  38:Application/menu_task.c ****         if (state == 1)
 162              		.loc 1 38 9 view .LVU20
  39:Application/menu_task.c ****         {
  40:Application/menu_task.c ****             // Ëä±Ë¥π1sËøõË°åÊ†°ÂáÜ
  41:Application/menu_task.c ****             // ÊúÄÂ•ΩÊòæÁ§∫‰∏™ËøõÂ∫¶Êù°
  42:Application/menu_task.c ****             // 1sÂà∞ÔºåËÆ∞ÂΩïÂùáÂÄºÂπ∂‰Ωú‰∏∫0Â∫¶
  43:Application/menu_task.c ****             // Áä∂ÊÄÅÊú∫Ë∑≥Âà∞state=2
  44:Application/menu_task.c ****         }
 163              		.loc 1 44 9 view .LVU21
  45:Application/menu_task.c ****         if (state == 2)
 164              		.loc 1 45 9 view .LVU22
  46:Application/menu_task.c ****         {
  47:Application/menu_task.c ****             // ÊòæÁ§∫Ê†°ÂáÜÂÆåÊàêÔºöÊåâ‰∏ãÁ°ÆËÆ§ÈîÆÈáçÊñ∞Ê†°ÂáÜ/Êåâ‰∏ãËøîÂõûÈÄÄÂá∫Ê†°ÂáÜ
  48:Application/menu_task.c ****         }
 165              		.loc 1 48 9 view .LVU23
  49:Application/menu_task.c ****         if (menu_command_callback(GET_EVENT_BACK))
ARM GAS  C:\Users\20398\AppData\Local\Temp\ccrUlAYy.s 			page 5


 166              		.loc 1 49 9 view .LVU24
 167              		.loc 1 49 13 is_stmt 0 view .LVU25
 168 0004 0620     		movs	r0, #6
 169 0006 FFF7FEFF 		bl	menu_command_callback
 170              	.LVL11:
 171              		.loc 1 49 12 view .LVU26
 172 000a 78B9     		cbnz	r0, .L8
  50:Application/menu_task.c ****             break;
  51:Application/menu_task.c ****         osDelay(5);
 173              		.loc 1 51 9 is_stmt 1 view .LVU27
 174 000c 0520     		movs	r0, #5
 175 000e FFF7FEFF 		bl	osDelay
 176              	.LVL12:
 177              	.LBE2:
  27:Application/menu_task.c ****     {
 178              		.loc 1 27 11 view .LVU28
 179              	.L11:
  27:Application/menu_task.c ****     {
 180              		.loc 1 27 5 view .LVU29
 181              	.LBB3:
  30:Application/menu_task.c ****         if (state == 0)
 182              		.loc 1 30 9 view .LVU30
  31:Application/menu_task.c ****         {
 183              		.loc 1 31 9 view .LVU31
  31:Application/menu_task.c ****         {
 184              		.loc 1 31 19 is_stmt 0 view .LVU32
 185 0012 074B     		ldr	r3, .L13
 186 0014 1B78     		ldrb	r3, [r3]	@ zero_extendqisi2
  31:Application/menu_task.c ****         {
 187              		.loc 1 31 12 view .LVU33
 188 0016 002B     		cmp	r3, #0
 189 0018 F4D1     		bne	.L9
  35:Application/menu_task.c ****                 state = 1;
 190              		.loc 1 35 13 is_stmt 1 view .LVU34
  35:Application/menu_task.c ****                 state = 1;
 191              		.loc 1 35 17 is_stmt 0 view .LVU35
 192 001a 0520     		movs	r0, #5
 193 001c FFF7FEFF 		bl	menu_command_callback
 194              	.LVL13:
  35:Application/menu_task.c ****                 state = 1;
 195              		.loc 1 35 16 view .LVU36
 196 0020 0028     		cmp	r0, #0
 197 0022 EFD0     		beq	.L9
  36:Application/menu_task.c ****         }
 198              		.loc 1 36 17 is_stmt 1 view .LVU37
  36:Application/menu_task.c ****         }
 199              		.loc 1 36 23 is_stmt 0 view .LVU38
 200 0024 024B     		ldr	r3, .L13
 201 0026 0122     		movs	r2, #1
 202 0028 1A70     		strb	r2, [r3]
 203 002a EBE7     		b	.L9
 204              	.L8:
 205              	.LBE3:
  52:Application/menu_task.c ****     }
  53:Application/menu_task.c **** }
 206              		.loc 1 53 1 view .LVU39
 207 002c 08BD     		pop	{r3, pc}
ARM GAS  C:\Users\20398\AppData\Local\Temp\ccrUlAYy.s 			page 6


 208              	.L14:
 209 002e 00BF     		.align	2
 210              	.L13:
 211 0030 00000000 		.word	.LANCHOR0
 212              		.cfi_endproc
 213              	.LFE71:
 215              		.section	.text.MENU_ShowImage,"ax",%progbits
 216              		.align	1
 217              		.global	MENU_ShowImage
 218              		.syntax unified
 219              		.thumb
 220              		.thumb_func
 222              	MENU_ShowImage:
 223              	.LFB72:
  54:Application/menu_task.c **** 
  55:Application/menu_task.c **** void MENU_ShowImage(void)
  56:Application/menu_task.c **** {
 224              		.loc 1 56 1 is_stmt 1 view -0
 225              		.cfi_startproc
 226              		@ args = 0, pretend = 0, frame = 0
 227              		@ frame_needed = 0, uses_anonymous_args = 0
 228 0000 08B5     		push	{r3, lr}
 229              	.LCFI4:
 230              		.cfi_def_cfa_offset 8
 231              		.cfi_offset 3, -8
 232              		.cfi_offset 14, -4
 233 0002 02E0     		b	.L17
 234              	.L19:
  57:Application/menu_task.c ****     while (1)
  58:Application/menu_task.c ****     {
  59:Application/menu_task.c ****         // Êåâ‰∏ä/‰∏ãÈîÆÂàáÊç¢ÂõæÁâá
  60:Application/menu_task.c ****         if (menu_command_callback(GET_EVENT_ENTER))
  61:Application/menu_task.c ****             break;
  62:Application/menu_task.c **** 
  63:Application/menu_task.c ****         if (menu_command_callback(GET_EVENT_BACK))
  64:Application/menu_task.c ****             break;
  65:Application/menu_task.c ****         osDelay(5);
 235              		.loc 1 65 9 view .LVU41
 236 0004 0520     		movs	r0, #5
 237 0006 FFF7FEFF 		bl	osDelay
 238              	.LVL14:
  57:Application/menu_task.c ****     while (1)
 239              		.loc 1 57 11 view .LVU42
 240              	.L17:
  57:Application/menu_task.c ****     while (1)
 241              		.loc 1 57 5 view .LVU43
  60:Application/menu_task.c ****             break;
 242              		.loc 1 60 9 view .LVU44
  60:Application/menu_task.c ****             break;
 243              		.loc 1 60 13 is_stmt 0 view .LVU45
 244 000a 0520     		movs	r0, #5
 245 000c FFF7FEFF 		bl	menu_command_callback
 246              	.LVL15:
  60:Application/menu_task.c ****             break;
 247              		.loc 1 60 12 view .LVU46
 248 0010 20B9     		cbnz	r0, .L15
  63:Application/menu_task.c ****             break;
ARM GAS  C:\Users\20398\AppData\Local\Temp\ccrUlAYy.s 			page 7


 249              		.loc 1 63 9 is_stmt 1 view .LVU47
  63:Application/menu_task.c ****             break;
 250              		.loc 1 63 13 is_stmt 0 view .LVU48
 251 0012 0620     		movs	r0, #6
 252 0014 FFF7FEFF 		bl	menu_command_callback
 253              	.LVL16:
  63:Application/menu_task.c ****             break;
 254              		.loc 1 63 12 view .LVU49
 255 0018 0028     		cmp	r0, #0
 256 001a F3D0     		beq	.L19
 257              	.L15:
  66:Application/menu_task.c ****     }
  67:Application/menu_task.c **** }
 258              		.loc 1 67 1 view .LVU50
 259 001c 08BD     		pop	{r3, pc}
 260              		.cfi_endproc
 261              	.LFE72:
 263              		.section	.text.MENU_ShowInfomation,"ax",%progbits
 264              		.align	1
 265              		.global	MENU_ShowInfomation
 266              		.syntax unified
 267              		.thumb
 268              		.thumb_func
 270              	MENU_ShowInfomation:
 271              	.LFB73:
  68:Application/menu_task.c **** 
  69:Application/menu_task.c **** void MENU_ShowInfomation(void)
  70:Application/menu_task.c **** {
 272              		.loc 1 70 1 is_stmt 1 view -0
 273              		.cfi_startproc
 274              		@ args = 0, pretend = 0, frame = 0
 275              		@ frame_needed = 0, uses_anonymous_args = 0
 276 0000 08B5     		push	{r3, lr}
 277              	.LCFI5:
 278              		.cfi_def_cfa_offset 8
 279              		.cfi_offset 3, -8
 280              		.cfi_offset 14, -4
 281 0002 02E0     		b	.L22
 282              	.L24:
  71:Application/menu_task.c ****     while (1)
  72:Application/menu_task.c ****     {
  73:Application/menu_task.c ****         // ÊòæÁ§∫Ê∏©Â∫¶ÔºåÁâàÊú¨Ôºåautor,ÈìæÊé•Áä∂ÊÄÅ
  74:Application/menu_task.c ****         if (menu_command_callback(GET_EVENT_ENTER))
  75:Application/menu_task.c ****             break;
  76:Application/menu_task.c **** 
  77:Application/menu_task.c ****         if (menu_command_callback(GET_EVENT_BACK))
  78:Application/menu_task.c ****             break;
  79:Application/menu_task.c ****         osDelay(5);
 283              		.loc 1 79 9 view .LVU52
 284 0004 0520     		movs	r0, #5
 285 0006 FFF7FEFF 		bl	osDelay
 286              	.LVL17:
  71:Application/menu_task.c ****     while (1)
 287              		.loc 1 71 11 view .LVU53
 288              	.L22:
  71:Application/menu_task.c ****     while (1)
 289              		.loc 1 71 5 view .LVU54
ARM GAS  C:\Users\20398\AppData\Local\Temp\ccrUlAYy.s 			page 8


  74:Application/menu_task.c ****             break;
 290              		.loc 1 74 9 view .LVU55
  74:Application/menu_task.c ****             break;
 291              		.loc 1 74 13 is_stmt 0 view .LVU56
 292 000a 0520     		movs	r0, #5
 293 000c FFF7FEFF 		bl	menu_command_callback
 294              	.LVL18:
  74:Application/menu_task.c ****             break;
 295              		.loc 1 74 12 view .LVU57
 296 0010 20B9     		cbnz	r0, .L20
  77:Application/menu_task.c ****             break;
 297              		.loc 1 77 9 is_stmt 1 view .LVU58
  77:Application/menu_task.c ****             break;
 298              		.loc 1 77 13 is_stmt 0 view .LVU59
 299 0012 0620     		movs	r0, #6
 300 0014 FFF7FEFF 		bl	menu_command_callback
 301              	.LVL19:
  77:Application/menu_task.c ****             break;
 302              		.loc 1 77 12 view .LVU60
 303 0018 0028     		cmp	r0, #0
 304 001a F3D0     		beq	.L24
 305              	.L20:
  80:Application/menu_task.c ****     }
  81:Application/menu_task.c **** }...
 306              		.loc 1 81 1 view .LVU61
 307 001c 08BD     		pop	{r3, pc}
 308              		.cfi_endproc
 309              	.LFE73:
 311              		.section	.bss.state.0,"aw",%nobits
 312              		.set	.LANCHOR0,. + 0
 315              	state.0:
 316 0000 00       		.space	1
 317              		.text
 318              	.Letext0:
 319              		.file 2 "e:\\ace2025\\enviroment\\gcc-arm-none-eabi-10.3-2021.10-win32\\arm-gnu-toolchian\\arm-non
 320              		.file 3 "e:\\ace2025\\enviroment\\gcc-arm-none-eabi-10.3-2021.10-win32\\arm-gnu-toolchian\\arm-non
 321              		.file 4 "Modules/font.h"
 322              		.file 5 "Middlewares/Third_Party/FreeRTOS/Source/CMSIS_RTOS/cmsis_os.h"
 323              		.file 6 "Application/MENU.h"
 324              		.file 7 "Modules/oled.h"
ARM GAS  C:\Users\20398\AppData\Local\Temp\ccrUlAYy.s 			page 9


DEFINED SYMBOLS
                            *ABS*:00000000 menu_task.c
C:\Users\20398\AppData\Local\Temp\ccrUlAYy.s:18     .rodata.MENU_RockerInfo.str1.4:00000000 $d
C:\Users\20398\AppData\Local\Temp\ccrUlAYy.s:25     .text.MENU_RockerInfo:00000000 $t
C:\Users\20398\AppData\Local\Temp\ccrUlAYy.s:31     .text.MENU_RockerInfo:00000000 MENU_RockerInfo
C:\Users\20398\AppData\Local\Temp\ccrUlAYy.s:135    .text.MENU_RockerInfo:00000080 $d
C:\Users\20398\AppData\Local\Temp\ccrUlAYy.s:142    .text.MENU_Calibration:00000000 $t
C:\Users\20398\AppData\Local\Temp\ccrUlAYy.s:148    .text.MENU_Calibration:00000000 MENU_Calibration
C:\Users\20398\AppData\Local\Temp\ccrUlAYy.s:211    .text.MENU_Calibration:00000030 $d
C:\Users\20398\AppData\Local\Temp\ccrUlAYy.s:216    .text.MENU_ShowImage:00000000 $t
C:\Users\20398\AppData\Local\Temp\ccrUlAYy.s:222    .text.MENU_ShowImage:00000000 MENU_ShowImage
C:\Users\20398\AppData\Local\Temp\ccrUlAYy.s:264    .text.MENU_ShowInfomation:00000000 $t
C:\Users\20398\AppData\Local\Temp\ccrUlAYy.s:270    .text.MENU_ShowInfomation:00000000 MENU_ShowInfomation
C:\Users\20398\AppData\Local\Temp\ccrUlAYy.s:315    .bss.state.0:00000000 state.0
C:\Users\20398\AppData\Local\Temp\ccrUlAYy.s:316    .bss.state.0:00000000 $d

UNDEFINED SYMBOLS
osDelay
OLED_NewFrame
OLED_DrawRectangle
OLED_DrawFilledCircle
OLED_PrintASCIIString
OLED_ShowFrame
menu_command_callback
afont24x12
