ARM GAS  C:\Users\20398\AppData\Local\Temp\ccvHbV6X.s 			page 1


   1              		.cpu cortex-m3
   2              		.arch armv7-m
   3              		.fpu softvfp
   4              		.eabi_attribute 20, 1
   5              		.eabi_attribute 21, 1
   6              		.eabi_attribute 23, 3
   7              		.eabi_attribute 24, 1
   8              		.eabi_attribute 25, 1
   9              		.eabi_attribute 26, 1
  10              		.eabi_attribute 30, 1
  11              		.eabi_attribute 34, 1
  12              		.eabi_attribute 18, 4
  13              		.file	"menu_task.c"
  14              		.text
  15              	.Ltext0:
  16              		.cfi_sections	.debug_frame
  17              		.section	.text.read_offset_rocker_from_flash,"ax",%progbits
  18              		.align	1
  19              		.syntax unified
  20              		.thumb
  21              		.thumb_func
  23              	read_offset_rocker_from_flash:
  24              	.LVL0:
  25              	.LFB74:
  26              		.file 1 "Application/menu_task.c"
   1:Application/menu_task.c **** #include "menu_task.h"
   2:Application/menu_task.c **** #include "stdio.h"
   3:Application/menu_task.c **** #include "stm32f1xx_hal.h"
   4:Application/menu_task.c **** #include "flash.h"
   5:Application/menu_task.c **** RC_t *rc;
   6:Application/menu_task.c **** 
   7:Application/menu_task.c **** static void write_offset_rocker_to_flash(uint16_t *offset_rocker)
   8:Application/menu_task.c **** {
   9:Application/menu_task.c ****     uint8_t buffer[12]; // 以字节为单位，每个uint16_t需要2个字节
  10:Application/menu_task.c **** 
  11:Application/menu_task.c ****     // 将uint16_t数组复制到uint8_t缓冲区中
  12:Application/menu_task.c ****     for (int i = 0; i < 6; i++)
  13:Application/menu_task.c ****     {
  14:Application/menu_task.c ****         buffer[i * 2] = (uint8_t)(offset_rocker[i] & 0xFF);            // 低字节
  15:Application/menu_task.c ****         buffer[i * 2 + 1] = (uint8_t)((offset_rocker[i] >> 8) & 0xFF); // 高字节
  16:Application/menu_task.c ****     }
  17:Application/menu_task.c **** 
  18:Application/menu_task.c ****     // 将数据写入Flash存储器
  19:Application/menu_task.c ****     FlashWriteBuff(REMOTE_OFFSET_ADDRESS, buffer, sizeof(buffer));
  20:Application/menu_task.c **** }
  21:Application/menu_task.c **** 
  22:Application/menu_task.c **** static void read_offset_rocker_from_flash(uint16_t *offset_rocker)
  23:Application/menu_task.c **** {
  27              		.loc 1 23 1 view -0
  28              		.cfi_startproc
  29              		@ args = 0, pretend = 0, frame = 16
  30              		@ frame_needed = 0, uses_anonymous_args = 0
  31              		.loc 1 23 1 is_stmt 0 view .LVU1
  32 0000 10B5     		push	{r4, lr}
  33              	.LCFI0:
  34              		.cfi_def_cfa_offset 8
  35              		.cfi_offset 4, -8
ARM GAS  C:\Users\20398\AppData\Local\Temp\ccvHbV6X.s 			page 2


  36              		.cfi_offset 14, -4
  37 0002 84B0     		sub	sp, sp, #16
  38              	.LCFI1:
  39              		.cfi_def_cfa_offset 24
  40 0004 0446     		mov	r4, r0
  24:Application/menu_task.c ****     uint8_t buffer[12]; // 以字节为单位，每个uint16_t需要2个字节
  41              		.loc 1 24 5 is_stmt 1 view .LVU2
  25:Application/menu_task.c **** 
  26:Application/menu_task.c ****     // 从Flash存储器中读取数据到缓冲区
  27:Application/menu_task.c ****     FlashReadBuff(REMOTE_OFFSET_ADDRESS, buffer, sizeof(buffer));
  42              		.loc 1 27 5 view .LVU3
  43 0006 0C22     		movs	r2, #12
  44 0008 01A9     		add	r1, sp, #4
  45 000a 0C48     		ldr	r0, .L5
  46              	.LVL1:
  47              		.loc 1 27 5 is_stmt 0 view .LVU4
  48 000c FFF7FEFF 		bl	FlashReadBuff
  49              	.LVL2:
  28:Application/menu_task.c **** 
  29:Application/menu_task.c ****     // 将uint8_t缓冲区数据转换为uint16_t数组
  30:Application/menu_task.c ****     for (int i = 0; i < 6; i++)
  50              		.loc 1 30 5 is_stmt 1 view .LVU5
  51              	.LBB2:
  52              		.loc 1 30 10 view .LVU6
  53              		.loc 1 30 14 is_stmt 0 view .LVU7
  54 0010 0023     		movs	r3, #0
  55              		.loc 1 30 5 view .LVU8
  56 0012 0EE0     		b	.L2
  57              	.LVL3:
  58              	.L3:
  31:Application/menu_task.c ****     {
  32:Application/menu_task.c ****         offset_rocker[i] = (uint16_t)(buffer[i * 2] | (buffer[i * 2 + 1] << 8));
  59              		.loc 1 32 9 is_stmt 1 discriminator 3 view .LVU9
  60              		.loc 1 32 48 is_stmt 0 discriminator 3 view .LVU10
  61 0014 5A00     		lsls	r2, r3, #1
  62              		.loc 1 32 45 discriminator 3 view .LVU11
  63 0016 04A9     		add	r1, sp, #16
  64 0018 01EB4301 		add	r1, r1, r3, lsl #1
  65 001c 11F80C1C 		ldrb	r1, [r1, #-12]	@ zero_extendqisi2
  66              		.loc 1 32 62 discriminator 3 view .LVU12
  67 0020 1132     		adds	r2, r2, #17
  68 0022 6A44     		add	r2, sp, r2
  69 0024 12F80C2C 		ldrb	r2, [r2, #-12]	@ zero_extendqisi2
  70              		.loc 1 32 28 discriminator 3 view .LVU13
  71 0028 41EA0222 		orr	r2, r1, r2, lsl #8
  72              		.loc 1 32 26 discriminator 3 view .LVU14
  73 002c 24F81320 		strh	r2, [r4, r3, lsl #1]	@ movhi
  30:Application/menu_task.c ****     {
  74              		.loc 1 30 28 is_stmt 1 discriminator 3 view .LVU15
  30:Application/menu_task.c ****     {
  75              		.loc 1 30 29 is_stmt 0 discriminator 3 view .LVU16
  76 0030 0133     		adds	r3, r3, #1
  77              	.LVL4:
  78              	.L2:
  30:Application/menu_task.c ****     {
  79              		.loc 1 30 21 is_stmt 1 discriminator 1 view .LVU17
  30:Application/menu_task.c ****     {
ARM GAS  C:\Users\20398\AppData\Local\Temp\ccvHbV6X.s 			page 3


  80              		.loc 1 30 5 is_stmt 0 discriminator 1 view .LVU18
  81 0032 052B     		cmp	r3, #5
  82 0034 EEDD     		ble	.L3
  83              	.LBE2:
  33:Application/menu_task.c ****     }
  34:Application/menu_task.c **** }
  84              		.loc 1 34 1 view .LVU19
  85 0036 04B0     		add	sp, sp, #16
  86              	.LCFI2:
  87              		.cfi_def_cfa_offset 8
  88              		@ sp needed
  89 0038 10BD     		pop	{r4, pc}
  90              	.LVL5:
  91              	.L6:
  92              		.loc 1 34 1 view .LVU20
  93 003a 00BF     		.align	2
  94              	.L5:
  95 003c 00FD0008 		.word	134282496
  96              		.cfi_endproc
  97              	.LFE74:
  99              		.section	.text.write_offset_rocker_to_flash,"ax",%progbits
 100              		.align	1
 101              		.syntax unified
 102              		.thumb
 103              		.thumb_func
 105              	write_offset_rocker_to_flash:
 106              	.LVL6:
 107              	.LFB73:
   8:Application/menu_task.c ****     uint8_t buffer[12]; // 以字节为单位，每个uint16_t需要2个字节
 108              		.loc 1 8 1 is_stmt 1 view -0
 109              		.cfi_startproc
 110              		@ args = 0, pretend = 0, frame = 16
 111              		@ frame_needed = 0, uses_anonymous_args = 0
   8:Application/menu_task.c ****     uint8_t buffer[12]; // 以字节为单位，每个uint16_t需要2个字节
 112              		.loc 1 8 1 is_stmt 0 view .LVU22
 113 0000 00B5     		push	{lr}
 114              	.LCFI3:
 115              		.cfi_def_cfa_offset 4
 116              		.cfi_offset 14, -4
 117 0002 85B0     		sub	sp, sp, #20
 118              	.LCFI4:
 119              		.cfi_def_cfa_offset 24
   9:Application/menu_task.c **** 
 120              		.loc 1 9 5 is_stmt 1 view .LVU23
  12:Application/menu_task.c ****     {
 121              		.loc 1 12 5 view .LVU24
 122              	.LBB3:
  12:Application/menu_task.c ****     {
 123              		.loc 1 12 10 view .LVU25
 124              	.LVL7:
  12:Application/menu_task.c ****     {
 125              		.loc 1 12 14 is_stmt 0 view .LVU26
 126 0004 0023     		movs	r3, #0
  12:Application/menu_task.c ****     {
 127              		.loc 1 12 5 view .LVU27
 128 0006 0EE0     		b	.L8
 129              	.LVL8:
ARM GAS  C:\Users\20398\AppData\Local\Temp\ccvHbV6X.s 			page 4


 130              	.L9:
  14:Application/menu_task.c ****         buffer[i * 2 + 1] = (uint8_t)((offset_rocker[i] >> 8) & 0xFF); // 高字节
 131              		.loc 1 14 9 is_stmt 1 discriminator 3 view .LVU28
  14:Application/menu_task.c ****         buffer[i * 2 + 1] = (uint8_t)((offset_rocker[i] >> 8) & 0xFF); // 高字节
 132              		.loc 1 14 48 is_stmt 0 discriminator 3 view .LVU29
 133 0008 5A00     		lsls	r2, r3, #1
 134 000a 30F81310 		ldrh	r1, [r0, r3, lsl #1]
  14:Application/menu_task.c ****         buffer[i * 2 + 1] = (uint8_t)((offset_rocker[i] >> 8) & 0xFF); // 高字节
 135              		.loc 1 14 23 discriminator 3 view .LVU30
 136 000e 0DF1100C 		add	ip, sp, #16
 137 0012 0CEB430C 		add	ip, ip, r3, lsl #1
 138 0016 0CF80C1C 		strb	r1, [ip, #-12]
  15:Application/menu_task.c ****     }
 139              		.loc 1 15 9 is_stmt 1 discriminator 3 view .LVU31
  15:Application/menu_task.c ****     }
 140              		.loc 1 15 29 is_stmt 0 discriminator 3 view .LVU32
 141 001a 090A     		lsrs	r1, r1, #8
  15:Application/menu_task.c ****     }
 142              		.loc 1 15 27 discriminator 3 view .LVU33
 143 001c 1132     		adds	r2, r2, #17
 144 001e 6A44     		add	r2, sp, r2
 145 0020 02F80C1C 		strb	r1, [r2, #-12]
  12:Application/menu_task.c ****     {
 146              		.loc 1 12 28 is_stmt 1 discriminator 3 view .LVU34
  12:Application/menu_task.c ****     {
 147              		.loc 1 12 29 is_stmt 0 discriminator 3 view .LVU35
 148 0024 0133     		adds	r3, r3, #1
 149              	.LVL9:
 150              	.L8:
  12:Application/menu_task.c ****     {
 151              		.loc 1 12 21 is_stmt 1 discriminator 1 view .LVU36
  12:Application/menu_task.c ****     {
 152              		.loc 1 12 5 is_stmt 0 discriminator 1 view .LVU37
 153 0026 052B     		cmp	r3, #5
 154 0028 EEDD     		ble	.L9
 155              	.LBE3:
  19:Application/menu_task.c **** }
 156              		.loc 1 19 5 is_stmt 1 view .LVU38
 157 002a 0C22     		movs	r2, #12
 158 002c 01A9     		add	r1, sp, #4
 159 002e 0348     		ldr	r0, .L11
 160              	.LVL10:
  19:Application/menu_task.c **** }
 161              		.loc 1 19 5 is_stmt 0 view .LVU39
 162 0030 FFF7FEFF 		bl	FlashWriteBuff
 163              	.LVL11:
  20:Application/menu_task.c **** 
 164              		.loc 1 20 1 view .LVU40
 165 0034 05B0     		add	sp, sp, #20
 166              	.LCFI5:
 167              		.cfi_def_cfa_offset 4
 168              		@ sp needed
 169 0036 5DF804FB 		ldr	pc, [sp], #4
 170              	.L12:
 171 003a 00BF     		.align	2
 172              	.L11:
 173 003c 00FD0008 		.word	134282496
ARM GAS  C:\Users\20398\AppData\Local\Temp\ccvHbV6X.s 			page 5


 174              		.cfi_endproc
 175              	.LFE73:
 177              		.section	.text.MENU_Init,"ax",%progbits
 178              		.align	1
 179              		.global	MENU_Init
 180              		.syntax unified
 181              		.thumb
 182              		.thumb_func
 184              	MENU_Init:
 185              	.LFB75:
  35:Application/menu_task.c **** void MENU_Init(void)
  36:Application/menu_task.c **** {
 186              		.loc 1 36 1 is_stmt 1 view -0
 187              		.cfi_startproc
 188              		@ args = 0, pretend = 0, frame = 0
 189              		@ frame_needed = 0, uses_anonymous_args = 0
 190 0000 08B5     		push	{r3, lr}
 191              	.LCFI6:
 192              		.cfi_def_cfa_offset 8
 193              		.cfi_offset 3, -8
 194              		.cfi_offset 14, -4
  37:Application/menu_task.c ****     rc = GetRCpointer();
 195              		.loc 1 37 5 view .LVU42
 196              		.loc 1 37 10 is_stmt 0 view .LVU43
 197 0002 FFF7FEFF 		bl	GetRCpointer
 198              	.LVL12:
 199              		.loc 1 37 8 view .LVU44
 200 0006 034B     		ldr	r3, .L15
 201 0008 1860     		str	r0, [r3]
  38:Application/menu_task.c ****     read_offset_rocker_from_flash(rc->offset_rocker);
 202              		.loc 1 38 5 is_stmt 1 view .LVU45
 203 000a 0A30     		adds	r0, r0, #10
 204 000c FFF7FEFF 		bl	read_offset_rocker_from_flash
 205              	.LVL13:
  39:Application/menu_task.c **** }
 206              		.loc 1 39 1 is_stmt 0 view .LVU46
 207 0010 08BD     		pop	{r3, pc}
 208              	.L16:
 209 0012 00BF     		.align	2
 210              	.L15:
 211 0014 00000000 		.word	.LANCHOR0
 212              		.cfi_endproc
 213              	.LFE75:
 215              		.global	__aeabi_ui2f
 216              		.global	__aeabi_fdiv
 217              		.global	__aeabi_fmul
 218              		.global	__aeabi_f2uiz
 219              		.global	__aeabi_i2f
 220              		.global	__aeabi_f2d
 221              		.global	__aeabi_dmul
 222              		.global	__aeabi_dadd
 223              		.global	__aeabi_dsub
 224              		.global	__aeabi_d2uiz
 225              		.section	.text.MENU_RockerInfo,"ax",%progbits
 226              		.align	1
 227              		.global	MENU_RockerInfo
 228              		.syntax unified
ARM GAS  C:\Users\20398\AppData\Local\Temp\ccvHbV6X.s 			page 6


 229              		.thumb
 230              		.thumb_func
 232              	MENU_RockerInfo:
 233              	.LFB76:
  40:Application/menu_task.c **** 
  41:Application/menu_task.c **** void MENU_RockerInfo(void)
  42:Application/menu_task.c **** {
 234              		.loc 1 42 1 is_stmt 1 view -0
 235              		.cfi_startproc
 236              		@ args = 0, pretend = 0, frame = 0
 237              		@ frame_needed = 0, uses_anonymous_args = 0
 238 0000 2DE9F041 		push	{r4, r5, r6, r7, r8, lr}
 239              	.LCFI7:
 240              		.cfi_def_cfa_offset 24
 241              		.cfi_offset 4, -24
 242              		.cfi_offset 5, -20
 243              		.cfi_offset 6, -16
 244              		.cfi_offset 7, -12
 245              		.cfi_offset 8, -8
 246              		.cfi_offset 14, -4
 247 0004 82B0     		sub	sp, sp, #8
 248              	.LCFI8:
 249              		.cfi_def_cfa_offset 32
 250 0006 F9E0     		b	.L33
 251              	.LVL14:
 252              	.L19:
 253              	.LBB4:
  43:Application/menu_task.c ****     while (1)
  44:Application/menu_task.c ****     {
  45:Application/menu_task.c ****         OLED_NewFrame();
  46:Application/menu_task.c ****         for (int i = 0; i < 2; i++)
  47:Application/menu_task.c ****         {
  48:Application/menu_task.c ****             OLED_DrawFilledRectangle(7 + i * 64, 10, (((float)rc->res.potVal[i] / 255) * 50), 5, 0)
 254              		.loc 1 48 13 discriminator 3 view .LVU48
 255              		.loc 1 48 65 is_stmt 0 discriminator 3 view .LVU49
 256 0008 9B4B     		ldr	r3, .L35+24
 257 000a 1B68     		ldr	r3, [r3]
 258              		.loc 1 48 77 discriminator 3 view .LVU50
 259 000c 2344     		add	r3, r3, r4
 260              		.loc 1 48 56 discriminator 3 view .LVU51
 261 000e D87D     		ldrb	r0, [r3, #23]	@ zero_extendqisi2
 262 0010 FFF7FEFF 		bl	__aeabi_ui2f
 263              	.LVL15:
 264              		.loc 1 48 81 discriminator 3 view .LVU52
 265 0014 9949     		ldr	r1, .L35+28
 266 0016 FFF7FEFF 		bl	__aeabi_fdiv
 267              	.LVL16:
 268              		.loc 1 48 88 discriminator 3 view .LVU53
 269 001a 9949     		ldr	r1, .L35+32
 270 001c FFF7FEFF 		bl	__aeabi_fmul
 271              	.LVL17:
 272              		.loc 1 48 13 discriminator 3 view .LVU54
 273 0020 FFF7FEFF 		bl	__aeabi_f2uiz
 274              	.LVL18:
 275 0024 4FEA841C 		lsl	ip, r4, #6
 276 0028 0CF1070C 		add	ip, ip, #7
 277 002c 0023     		movs	r3, #0
ARM GAS  C:\Users\20398\AppData\Local\Temp\ccvHbV6X.s 			page 7


 278 002e 0093     		str	r3, [sp]
 279 0030 0523     		movs	r3, #5
 280 0032 C2B2     		uxtb	r2, r0
 281 0034 0A21     		movs	r1, #10
 282 0036 5FFA8CF0 		uxtb	r0, ip
 283 003a FFF7FEFF 		bl	OLED_DrawFilledRectangle
 284              	.LVL19:
  46:Application/menu_task.c ****         {
 285              		.loc 1 46 32 is_stmt 1 discriminator 3 view .LVU55
  46:Application/menu_task.c ****         {
 286              		.loc 1 46 33 is_stmt 0 discriminator 3 view .LVU56
 287 003e 0134     		adds	r4, r4, #1
 288              	.LVL20:
 289              	.L18:
  46:Application/menu_task.c ****         {
 290              		.loc 1 46 25 is_stmt 1 discriminator 1 view .LVU57
  46:Application/menu_task.c ****         {
 291              		.loc 1 46 9 is_stmt 0 discriminator 1 view .LVU58
 292 0040 012C     		cmp	r4, #1
 293 0042 E1DD     		ble	.L19
 294              	.LBE4:
  49:Application/menu_task.c ****         }
  50:Application/menu_task.c ****         if (rc->info->key.bits.sw1)
 295              		.loc 1 50 9 is_stmt 1 view .LVU59
 296              		.loc 1 50 15 is_stmt 0 view .LVU60
 297 0044 8C4B     		ldr	r3, .L35+24
 298 0046 1B68     		ldr	r3, [r3]
 299 0048 1B68     		ldr	r3, [r3]
 300              		.loc 1 50 13 view .LVU61
 301 004a 1B78     		ldrb	r3, [r3]	@ zero_extendqisi2
 302              		.loc 1 50 12 view .LVU62
 303 004c 13F0010F 		tst	r3, #1
 304 0050 00F0D880 		beq	.L20
  51:Application/menu_task.c ****             OLED_DrawFilledCircle(16, 25, 5, 0);
 305              		.loc 1 51 13 is_stmt 1 view .LVU63
 306 0054 0023     		movs	r3, #0
 307 0056 0522     		movs	r2, #5
 308 0058 1921     		movs	r1, #25
 309 005a 1020     		movs	r0, #16
 310 005c FFF7FEFF 		bl	OLED_DrawFilledCircle
 311              	.LVL21:
 312              	.L21:
  52:Application/menu_task.c ****         else
  53:Application/menu_task.c ****             OLED_DrawCircle(16, 25, 5, 0);
  54:Application/menu_task.c ****         if (rc->info->key.bits.sw2)
 313              		.loc 1 54 9 view .LVU64
 314              		.loc 1 54 15 is_stmt 0 view .LVU65
 315 0060 854B     		ldr	r3, .L35+24
 316 0062 1B68     		ldr	r3, [r3]
 317 0064 1B68     		ldr	r3, [r3]
 318              		.loc 1 54 13 view .LVU66
 319 0066 1B78     		ldrb	r3, [r3]	@ zero_extendqisi2
 320              		.loc 1 54 12 view .LVU67
 321 0068 13F0020F 		tst	r3, #2
 322 006c 00F0D180 		beq	.L22
  55:Application/menu_task.c ****             OLED_DrawFilledCircle(128 - 16, 25, 5, 0);
 323              		.loc 1 55 13 is_stmt 1 view .LVU68
ARM GAS  C:\Users\20398\AppData\Local\Temp\ccvHbV6X.s 			page 8


 324 0070 0023     		movs	r3, #0
 325 0072 0522     		movs	r2, #5
 326 0074 1921     		movs	r1, #25
 327 0076 7020     		movs	r0, #112
 328 0078 FFF7FEFF 		bl	OLED_DrawFilledCircle
 329              	.LVL22:
 330              	.L23:
  56:Application/menu_task.c ****         else
  57:Application/menu_task.c ****             OLED_DrawCircle(128 - 16, 25, 5, 0);
  58:Application/menu_task.c ****         if (rc->info->key.bits.key0)
 331              		.loc 1 58 9 view .LVU69
 332              		.loc 1 58 15 is_stmt 0 view .LVU70
 333 007c 7E4B     		ldr	r3, .L35+24
 334 007e 1B68     		ldr	r3, [r3]
 335 0080 1B68     		ldr	r3, [r3]
 336              		.loc 1 58 13 view .LVU71
 337 0082 1B78     		ldrb	r3, [r3]	@ zero_extendqisi2
 338              		.loc 1 58 12 view .LVU72
 339 0084 13F0040F 		tst	r3, #4
 340 0088 00F0CA80 		beq	.L24
  59:Application/menu_task.c ****             OLED_DrawFilledCircle(33, 23, 3, 0);
 341              		.loc 1 59 13 is_stmt 1 view .LVU73
 342 008c 0023     		movs	r3, #0
 343 008e 0322     		movs	r2, #3
 344 0090 1721     		movs	r1, #23
 345 0092 2120     		movs	r0, #33
 346 0094 FFF7FEFF 		bl	OLED_DrawFilledCircle
 347              	.LVL23:
 348              	.L25:
  60:Application/menu_task.c ****         else
  61:Application/menu_task.c ****             OLED_DrawCircle(33, 23, 3, 0);
  62:Application/menu_task.c ****         if (rc->info->key.bits.key1)
 349              		.loc 1 62 9 view .LVU74
 350              		.loc 1 62 15 is_stmt 0 view .LVU75
 351 0098 774B     		ldr	r3, .L35+24
 352 009a 1B68     		ldr	r3, [r3]
 353 009c 1B68     		ldr	r3, [r3]
 354              		.loc 1 62 13 view .LVU76
 355 009e 1B78     		ldrb	r3, [r3]	@ zero_extendqisi2
 356              		.loc 1 62 12 view .LVU77
 357 00a0 13F0080F 		tst	r3, #8
 358 00a4 00F0C380 		beq	.L26
  63:Application/menu_task.c ****             OLED_DrawFilledCircle(33 + 18, 23, 3, 0);
 359              		.loc 1 63 13 is_stmt 1 view .LVU78
 360 00a8 0023     		movs	r3, #0
 361 00aa 0322     		movs	r2, #3
 362 00ac 1721     		movs	r1, #23
 363 00ae 3320     		movs	r0, #51
 364 00b0 FFF7FEFF 		bl	OLED_DrawFilledCircle
 365              	.LVL24:
 366              	.L27:
  64:Application/menu_task.c ****         else
  65:Application/menu_task.c ****             OLED_DrawCircle(33 + 18, 23, 3, 0);
  66:Application/menu_task.c ****         if (rc->info->key.bits.key2)
 367              		.loc 1 66 9 view .LVU79
 368              		.loc 1 66 15 is_stmt 0 view .LVU80
 369 00b4 704B     		ldr	r3, .L35+24
ARM GAS  C:\Users\20398\AppData\Local\Temp\ccvHbV6X.s 			page 9


 370 00b6 1B68     		ldr	r3, [r3]
 371 00b8 1B68     		ldr	r3, [r3]
 372              		.loc 1 66 13 view .LVU81
 373 00ba 1B78     		ldrb	r3, [r3]	@ zero_extendqisi2
 374              		.loc 1 66 12 view .LVU82
 375 00bc 13F0100F 		tst	r3, #16
 376 00c0 00F0BC80 		beq	.L28
  67:Application/menu_task.c ****             OLED_DrawFilledCircle(36 + 40, 23, 3, 0);
 377              		.loc 1 67 13 is_stmt 1 view .LVU83
 378 00c4 0023     		movs	r3, #0
 379 00c6 0322     		movs	r2, #3
 380 00c8 1721     		movs	r1, #23
 381 00ca 4C20     		movs	r0, #76
 382 00cc FFF7FEFF 		bl	OLED_DrawFilledCircle
 383              	.LVL25:
 384              	.L29:
  68:Application/menu_task.c ****         else
  69:Application/menu_task.c ****             OLED_DrawCircle(36 + 40, 23, 3, 0);
  70:Application/menu_task.c ****         if (rc->info->key.bits.key3)
 385              		.loc 1 70 9 view .LVU84
 386              		.loc 1 70 15 is_stmt 0 view .LVU85
 387 00d0 694B     		ldr	r3, .L35+24
 388 00d2 1B68     		ldr	r3, [r3]
 389 00d4 1B68     		ldr	r3, [r3]
 390              		.loc 1 70 13 view .LVU86
 391 00d6 1B78     		ldrb	r3, [r3]	@ zero_extendqisi2
 392              		.loc 1 70 12 view .LVU87
 393 00d8 13F0200F 		tst	r3, #32
 394 00dc 00F0B580 		beq	.L30
  71:Application/menu_task.c ****             OLED_DrawFilledCircle(128 - 36, 23, 3, 0);
 395              		.loc 1 71 13 is_stmt 1 view .LVU88
 396 00e0 0023     		movs	r3, #0
 397 00e2 0322     		movs	r2, #3
 398 00e4 1721     		movs	r1, #23
 399 00e6 5C20     		movs	r0, #92
 400 00e8 FFF7FEFF 		bl	OLED_DrawFilledCircle
 401              	.LVL26:
 402              	.L31:
  72:Application/menu_task.c ****         else
  73:Application/menu_task.c ****             OLED_DrawCircle(128 - 36, 23, 3, 0);
  74:Application/menu_task.c ****         // 0L-> 1L↑ 2R↑ 3R->
  75:Application/menu_task.c ****         OLED_DrawRectangle(30, 30, 35 / 1.5, 42 / 1.5, 0);
 403              		.loc 1 75 9 view .LVU89
 404 00ec 0024     		movs	r4, #0
 405              	.LVL27:
 406              		.loc 1 75 9 is_stmt 0 view .LVU90
 407 00ee 0094     		str	r4, [sp]
 408 00f0 1C23     		movs	r3, #28
 409 00f2 1722     		movs	r2, #23
 410 00f4 1E21     		movs	r1, #30
 411 00f6 0846     		mov	r0, r1
 412 00f8 FFF7FEFF 		bl	OLED_DrawRectangle
 413              	.LVL28:
  76:Application/menu_task.c ****         OLED_DrawFilledCircle(30 + (35 / 1.5) / 2 + (35 / 1.5) / 2 * ((float)rc->res.rockerVal[0] /
 414              		.loc 1 76 9 is_stmt 1 view .LVU91
 415              		.loc 1 76 80 is_stmt 0 view .LVU92
 416 00fc DFF87881 		ldr	r8, .L35+24
ARM GAS  C:\Users\20398\AppData\Local\Temp\ccvHbV6X.s 			page 10


 417 0100 D8F80050 		ldr	r5, [r8]
 418              		.loc 1 76 71 view .LVU93
 419 0104 95F91900 		ldrsb	r0, [r5, #25]
 420 0108 FFF7FEFF 		bl	__aeabi_i2f
 421              	.LVL29:
 422              		.loc 1 76 99 view .LVU94
 423 010c 5D49     		ldr	r1, .L35+36
 424 010e FFF7FEFF 		bl	__aeabi_fdiv
 425              	.LVL30:
 426 0112 FFF7FEFF 		bl	__aeabi_f2d
 427              	.LVL31:
 428              		.loc 1 76 68 view .LVU95
 429 0116 52A3     		adr	r3, .L35
 430 0118 D3E90023 		ldrd	r2, [r3]
 431 011c FFF7FEFF 		bl	__aeabi_dmul
 432              	.LVL32:
 433              		.loc 1 76 51 view .LVU96
 434 0120 51A3     		adr	r3, .L35+8
 435 0122 D3E90023 		ldrd	r2, [r3]
 436 0126 FFF7FEFF 		bl	__aeabi_dadd
 437              	.LVL33:
 438 012a 0646     		mov	r6, r0
 439 012c 0F46     		mov	r7, r1
 440              		.loc 1 76 147 view .LVU97
 441 012e 95F91A00 		ldrsb	r0, [r5, #26]
 442 0132 FFF7FEFF 		bl	__aeabi_i2f
 443              	.LVL34:
 444              		.loc 1 76 175 view .LVU98
 445 0136 5349     		ldr	r1, .L35+36
 446 0138 FFF7FEFF 		bl	__aeabi_fdiv
 447              	.LVL35:
 448 013c FFF7FEFF 		bl	__aeabi_f2d
 449              	.LVL36:
 450              		.loc 1 76 144 view .LVU99
 451 0140 0022     		movs	r2, #0
 452 0142 514B     		ldr	r3, .L35+40
 453 0144 FFF7FEFF 		bl	__aeabi_dmul
 454              	.LVL37:
 455 0148 0246     		mov	r2, r0
 456 014a 0B46     		mov	r3, r1
 457              		.loc 1 76 127 view .LVU100
 458 014c 0020     		movs	r0, #0
 459 014e 4F49     		ldr	r1, .L35+44
 460 0150 FFF7FEFF 		bl	__aeabi_dsub
 461              	.LVL38:
 462              		.loc 1 76 9 view .LVU101
 463 0154 FFF7FEFF 		bl	__aeabi_d2uiz
 464              	.LVL39:
 465 0158 C5B2     		uxtb	r5, r0
 466 015a 3046     		mov	r0, r6
 467 015c 3946     		mov	r1, r7
 468 015e FFF7FEFF 		bl	__aeabi_d2uiz
 469              	.LVL40:
 470 0162 2346     		mov	r3, r4
 471 0164 0222     		movs	r2, #2
 472 0166 2946     		mov	r1, r5
 473 0168 C0B2     		uxtb	r0, r0
ARM GAS  C:\Users\20398\AppData\Local\Temp\ccvHbV6X.s 			page 11


 474 016a FFF7FEFF 		bl	OLED_DrawFilledCircle
 475              	.LVL41:
  77:Application/menu_task.c ****         OLED_DrawRectangle(128 - 30 - 35 / 1.5, 30, 35 / 1.5, 42 / 1.5, 0);
 476              		.loc 1 77 9 is_stmt 1 view .LVU102
 477 016e 0094     		str	r4, [sp]
 478 0170 1C23     		movs	r3, #28
 479 0172 1722     		movs	r2, #23
 480 0174 1E21     		movs	r1, #30
 481 0176 4A20     		movs	r0, #74
 482 0178 FFF7FEFF 		bl	OLED_DrawRectangle
 483              	.LVL42:
  78:Application/menu_task.c ****         OLED_DrawFilledCircle(128 - 30 - 35 / 1.5 + (35 / 1.5) / 2 + (35 / 1.5) / 2 * ((float)rc->r
 484              		.loc 1 78 9 view .LVU103
 485              		.loc 1 78 97 is_stmt 0 view .LVU104
 486 017c D8F80050 		ldr	r5, [r8]
 487              		.loc 1 78 88 view .LVU105
 488 0180 95F91C00 		ldrsb	r0, [r5, #28]
 489 0184 FFF7FEFF 		bl	__aeabi_i2f
 490              	.LVL43:
 491              		.loc 1 78 116 view .LVU106
 492 0188 3E49     		ldr	r1, .L35+36
 493 018a FFF7FEFF 		bl	__aeabi_fdiv
 494              	.LVL44:
 495 018e FFF7FEFF 		bl	__aeabi_f2d
 496              	.LVL45:
 497              		.loc 1 78 85 view .LVU107
 498 0192 33A3     		adr	r3, .L35
 499 0194 D3E90023 		ldrd	r2, [r3]
 500 0198 FFF7FEFF 		bl	__aeabi_dmul
 501              	.LVL46:
 502              		.loc 1 78 68 view .LVU108
 503 019c 34A3     		adr	r3, .L35+16
 504 019e D3E90023 		ldrd	r2, [r3]
 505 01a2 FFF7FEFF 		bl	__aeabi_dadd
 506              	.LVL47:
 507 01a6 0646     		mov	r6, r0
 508 01a8 0F46     		mov	r7, r1
 509              		.loc 1 78 164 view .LVU109
 510 01aa 95F91B00 		ldrsb	r0, [r5, #27]
 511 01ae FFF7FEFF 		bl	__aeabi_i2f
 512              	.LVL48:
 513              		.loc 1 78 192 view .LVU110
 514 01b2 3449     		ldr	r1, .L35+36
 515 01b4 FFF7FEFF 		bl	__aeabi_fdiv
 516              	.LVL49:
 517 01b8 FFF7FEFF 		bl	__aeabi_f2d
 518              	.LVL50:
 519              		.loc 1 78 161 view .LVU111
 520 01bc 0022     		movs	r2, #0
 521 01be 324B     		ldr	r3, .L35+40
 522 01c0 FFF7FEFF 		bl	__aeabi_dmul
 523              	.LVL51:
 524 01c4 0246     		mov	r2, r0
 525 01c6 0B46     		mov	r3, r1
 526              		.loc 1 78 144 view .LVU112
 527 01c8 0020     		movs	r0, #0
 528 01ca 3049     		ldr	r1, .L35+44
ARM GAS  C:\Users\20398\AppData\Local\Temp\ccvHbV6X.s 			page 12


 529 01cc FFF7FEFF 		bl	__aeabi_dsub
 530              	.LVL52:
 531              		.loc 1 78 9 view .LVU113
 532 01d0 FFF7FEFF 		bl	__aeabi_d2uiz
 533              	.LVL53:
 534 01d4 C5B2     		uxtb	r5, r0
 535 01d6 3046     		mov	r0, r6
 536 01d8 3946     		mov	r1, r7
 537 01da FFF7FEFF 		bl	__aeabi_d2uiz
 538              	.LVL54:
 539 01de 2346     		mov	r3, r4
 540 01e0 0222     		movs	r2, #2
 541 01e2 2946     		mov	r1, r5
 542 01e4 C0B2     		uxtb	r0, r0
 543 01e6 FFF7FEFF 		bl	OLED_DrawFilledCircle
 544              	.LVL55:
  79:Application/menu_task.c ****         OLED_ShowFrame();
 545              		.loc 1 79 9 is_stmt 1 view .LVU114
 546 01ea FFF7FEFF 		bl	OLED_ShowFrame
 547              	.LVL56:
  80:Application/menu_task.c **** 
  81:Application/menu_task.c ****         if (menu_command_callback(GET_EVENT_BACK))
 548              		.loc 1 81 9 view .LVU115
 549              		.loc 1 81 13 is_stmt 0 view .LVU116
 550 01ee 0620     		movs	r0, #6
 551 01f0 FFF7FEFF 		bl	menu_command_callback
 552              	.LVL57:
 553              		.loc 1 81 12 view .LVU117
 554 01f4 80BB     		cbnz	r0, .L17
  82:Application/menu_task.c ****             break;
  83:Application/menu_task.c ****         osDelay(5);
 555              		.loc 1 83 9 is_stmt 1 view .LVU118
 556 01f6 0520     		movs	r0, #5
 557 01f8 FFF7FEFF 		bl	osDelay
 558              	.LVL58:
  43:Application/menu_task.c ****     {
 559              		.loc 1 43 11 view .LVU119
 560              	.L33:
  43:Application/menu_task.c ****     {
 561              		.loc 1 43 5 view .LVU120
  45:Application/menu_task.c ****         for (int i = 0; i < 2; i++)
 562              		.loc 1 45 9 view .LVU121
 563 01fc FFF7FEFF 		bl	OLED_NewFrame
 564              	.LVL59:
  46:Application/menu_task.c ****         {
 565              		.loc 1 46 9 view .LVU122
 566              	.LBB5:
  46:Application/menu_task.c ****         {
 567              		.loc 1 46 14 view .LVU123
  46:Application/menu_task.c ****         {
 568              		.loc 1 46 18 is_stmt 0 view .LVU124
 569 0200 0024     		movs	r4, #0
  46:Application/menu_task.c ****         {
 570              		.loc 1 46 9 view .LVU125
 571 0202 1DE7     		b	.L18
 572              	.LVL60:
 573              	.L20:
ARM GAS  C:\Users\20398\AppData\Local\Temp\ccvHbV6X.s 			page 13


  46:Application/menu_task.c ****         {
 574              		.loc 1 46 9 view .LVU126
 575              	.LBE5:
  53:Application/menu_task.c ****         if (rc->info->key.bits.sw2)
 576              		.loc 1 53 13 is_stmt 1 view .LVU127
 577 0204 0023     		movs	r3, #0
 578 0206 0522     		movs	r2, #5
 579 0208 1921     		movs	r1, #25
 580 020a 1020     		movs	r0, #16
 581 020c FFF7FEFF 		bl	OLED_DrawCircle
 582              	.LVL61:
 583 0210 26E7     		b	.L21
 584              	.L22:
  57:Application/menu_task.c ****         if (rc->info->key.bits.key0)
 585              		.loc 1 57 13 view .LVU128
 586 0212 0023     		movs	r3, #0
 587 0214 0522     		movs	r2, #5
 588 0216 1921     		movs	r1, #25
 589 0218 7020     		movs	r0, #112
 590 021a FFF7FEFF 		bl	OLED_DrawCircle
 591              	.LVL62:
 592 021e 2DE7     		b	.L23
 593              	.L24:
  61:Application/menu_task.c ****         if (rc->info->key.bits.key1)
 594              		.loc 1 61 13 view .LVU129
 595 0220 0023     		movs	r3, #0
 596 0222 0322     		movs	r2, #3
 597 0224 1721     		movs	r1, #23
 598 0226 2120     		movs	r0, #33
 599 0228 FFF7FEFF 		bl	OLED_DrawCircle
 600              	.LVL63:
 601 022c 34E7     		b	.L25
 602              	.L26:
  65:Application/menu_task.c ****         if (rc->info->key.bits.key2)
 603              		.loc 1 65 13 view .LVU130
 604 022e 0023     		movs	r3, #0
 605 0230 0322     		movs	r2, #3
 606 0232 1721     		movs	r1, #23
 607 0234 3320     		movs	r0, #51
 608 0236 FFF7FEFF 		bl	OLED_DrawCircle
 609              	.LVL64:
 610 023a 3BE7     		b	.L27
 611              	.L28:
  69:Application/menu_task.c ****         if (rc->info->key.bits.key3)
 612              		.loc 1 69 13 view .LVU131
 613 023c 0023     		movs	r3, #0
 614 023e 0322     		movs	r2, #3
 615 0240 1721     		movs	r1, #23
 616 0242 4C20     		movs	r0, #76
 617 0244 FFF7FEFF 		bl	OLED_DrawCircle
 618              	.LVL65:
 619 0248 42E7     		b	.L29
 620              	.L30:
  73:Application/menu_task.c ****         // 0L-> 1L↑ 2R↑ 3R->
 621              		.loc 1 73 13 view .LVU132
 622 024a 0023     		movs	r3, #0
 623 024c 0322     		movs	r2, #3
ARM GAS  C:\Users\20398\AppData\Local\Temp\ccvHbV6X.s 			page 14


 624 024e 1721     		movs	r1, #23
 625 0250 5C20     		movs	r0, #92
 626 0252 FFF7FEFF 		bl	OLED_DrawCircle
 627              	.LVL66:
 628 0256 49E7     		b	.L31
 629              	.LVL67:
 630              	.L17:
  84:Application/menu_task.c ****     }
  85:Application/menu_task.c **** }
 631              		.loc 1 85 1 is_stmt 0 view .LVU133
 632 0258 02B0     		add	sp, sp, #8
 633              	.LCFI9:
 634              		.cfi_def_cfa_offset 24
 635              		@ sp needed
 636 025a BDE8F081 		pop	{r4, r5, r6, r7, r8, pc}
 637              	.L36:
 638 025e 00BF     		.align	3
 639              	.L35:
 640 0260 55555555 		.word	1431655765
 641 0264 55552740 		.word	1076319573
 642 0268 55555555 		.word	1431655765
 643 026c 55D54440 		.word	1078252885
 644 0270 56555555 		.word	1431655766
 645 0274 55955540 		.word	1079350613
 646 0278 00000000 		.word	.LANCHOR0
 647 027c 00007F43 		.word	1132396544
 648 0280 00004842 		.word	1112014848
 649 0284 0000D242 		.word	1121058816
 650 0288 00002C40 		.word	1076625408
 651 028c 00004640 		.word	1078329344
 652              		.cfi_endproc
 653              	.LFE76:
 655              		.section	.rodata.MENU_Calibration.str1.4,"aMS",%progbits,1
 656              		.align	2
 657              	.LC0:
 658 0000 E69187E6 		.ascii	"\346\221\207\346\235\206\346\240\241\345\207\206\000"
 658      9D86E6A0 
 658      A1E58786 
 658      00
 659 000d 000000   		.align	2
 660              	.LC1:
 661 0010 E5B086E6 		.ascii	"\345\260\206\346\211\200\346\234\211\346\221\207\346"
 661      8980E69C 
 661      89E69187 
 661      E6
 662 001d 9D86E5BD 		.ascii	"\235\206\345\275\222\344\270\255\000"
 662      92E4B8AD 
 662      00
 663 0026 0000     		.align	2
 664              	.LC2:
 665 0028 E68C89E4 		.ascii	"\346\214\211\344\270\213\347\241\256\350\256\244\351"
 665      B88BE7A1 
 665      AEE8AEA4 
 665      E9
 666 0035 94AEE6A0 		.ascii	"\224\256\346\240\241\345\207\206\000"
 666      A1E58786 
 666      00
ARM GAS  C:\Users\20398\AppData\Local\Temp\ccvHbV6X.s 			page 15


 667 003e 0000     		.align	2
 668              	.LC3:
 669 0040 E6A0A1E5 		.ascii	"\346\240\241\345\207\206\344\270\255\000"
 669      8786E4B8 
 669      AD00
 670 004a 0000     		.align	2
 671              	.LC4:
 672 004c E6A0A1E5 		.ascii	"\346\240\241\345\207\206\345\256\214\346\210\220\000"
 672      8786E5AE 
 672      8CE68890 
 672      00
 673 0059 000000   		.align	2
 674              	.LC5:
 675 005c E68C89E4 		.ascii	"\346\214\211\344\270\213\347\241\256\350\256\244\351"
 675      B88BE7A1 
 675      AEE8AEA4 
 675      E9
 676 0069 94AEE987 		.ascii	"\224\256\351\207\215\346\226\260\346\240\241\345\207"
 676      8DE696B0 
 676      E6A0A1E5 
 676      87
 677 0076 8600     		.ascii	"\206\000"
 678              		.align	2
 679              	.LC6:
 680 0078 E68C89E4 		.ascii	"\346\214\211\344\270\213\350\277\224\345\233\236\351"
 680      B88BE8BF 
 680      94E59B9E 
 680      E9
 681 0085 94AEE8BF 		.ascii	"\224\256\350\277\224\345\233\236\350\217\234\345\215"
 681      94E59B9E 
 681      E88F9CE5 
 681      8D
 682 0092 9500     		.ascii	"\225\000"
 683              		.section	.text.MENU_Calibration,"ax",%progbits
 684              		.align	1
 685              		.global	MENU_Calibration
 686              		.syntax unified
 687              		.thumb
 688              		.thumb_func
 690              	MENU_Calibration:
 691              	.LFB77:
  86:Application/menu_task.c **** 
  87:Application/menu_task.c **** void MENU_Calibration(void)
  88:Application/menu_task.c **** {
 692              		.loc 1 88 1 is_stmt 1 view -0
 693              		.cfi_startproc
 694              		@ args = 0, pretend = 0, frame = 0
 695              		@ frame_needed = 0, uses_anonymous_args = 0
 696 0000 30B5     		push	{r4, r5, lr}
 697              	.LCFI10:
 698              		.cfi_def_cfa_offset 12
 699              		.cfi_offset 4, -12
 700              		.cfi_offset 5, -8
 701              		.cfi_offset 14, -4
 702 0002 83B0     		sub	sp, sp, #12
 703              	.LCFI11:
 704              		.cfi_def_cfa_offset 24
ARM GAS  C:\Users\20398\AppData\Local\Temp\ccvHbV6X.s 			page 16


 705 0004 11E0     		b	.L53
 706              	.L38:
 707              	.LBB6:
  89:Application/menu_task.c ****     while (1)
  90:Application/menu_task.c ****     {
  91:Application/menu_task.c ****         // 状态机思想
  92:Application/menu_task.c ****         static uint8_t state = 0;
  93:Application/menu_task.c ****         static uint32_t adc_sum[6];
  94:Application/menu_task.c ****         static uint16_t adc_cnt = 0;
  95:Application/menu_task.c ****         if (state == 0)
  96:Application/menu_task.c ****         {
  97:Application/menu_task.c ****             // 显示校准提示：plz Center all joysticks.
  98:Application/menu_task.c ****             // 按下确认按键后 ，进行校准
  99:Application/menu_task.c ****             OLED_NewFrame();
 100:Application/menu_task.c ****             OLED_PrintString(35, 10, "摇杆校准", &font16x16, 0);
 101:Application/menu_task.c ****             OLED_PrintString(17, 30, "将所有摇杆归中", &font14x14, 0);
 102:Application/menu_task.c ****             OLED_PrintString(17, 46, "按下确认键校准", &font14x14, 0);
 103:Application/menu_task.c ****             OLED_ShowFrame();
 104:Application/menu_task.c ****             if (menu_command_callback(GET_EVENT_ENTER))
 105:Application/menu_task.c ****                 state = 1;
 106:Application/menu_task.c ****         }
 107:Application/menu_task.c ****         if (state == 1)
 708              		.loc 1 107 9 view .LVU135
 709              		.loc 1 107 19 is_stmt 0 view .LVU136
 710 0006 784B     		ldr	r3, .L59
 711 0008 1B78     		ldrb	r3, [r3]	@ zero_extendqisi2
 712              		.loc 1 107 12 view .LVU137
 713 000a 012B     		cmp	r3, #1
 714 000c 35D0     		beq	.L56
 715              	.L39:
 108:Application/menu_task.c ****         {
 109:Application/menu_task.c ****             OLED_NewFrame();
 110:Application/menu_task.c ****             OLED_PrintString(42, 15, "校准中", &font16x16, 0);
 111:Application/menu_task.c ****             OLED_DrawFilledRectangle(16, 45, ((float)adc_cnt / 800) * 100, 12, 0);
 112:Application/menu_task.c ****             OLED_ShowFrame();
 113:Application/menu_task.c ****             for (int i = 0; i < 4; i++)
 114:Application/menu_task.c ****             {
 115:Application/menu_task.c ****                 adc_sum[2 + i] += rc->info->rockerVal[i];
 116:Application/menu_task.c ****                 adc_cnt++;
 117:Application/menu_task.c ****             }
 118:Application/menu_task.c ****             for (int i = 0; i < 2; i++)
 119:Application/menu_task.c ****             {
 120:Application/menu_task.c ****                 adc_sum[i] += rc->info->pVal[i];
 121:Application/menu_task.c ****             }
 122:Application/menu_task.c ****             if ((adc_cnt / 4) > 200) // 校准完成
 123:Application/menu_task.c ****             {
 124:Application/menu_task.c ****                 adc_cnt /= 4;
 125:Application/menu_task.c ****                 for (int i = 0; i < 2; i++)
 126:Application/menu_task.c ****                 {
 127:Application/menu_task.c ****                     rc->offset_rocker[i] = adc_sum[i] / adc_cnt;
 128:Application/menu_task.c ****                     adc_sum[i] = 0;
 129:Application/menu_task.c ****                 }
 130:Application/menu_task.c ****                 for (int i = 0; i < 4; i++)
 131:Application/menu_task.c ****                 {
 132:Application/menu_task.c ****                     rc->offset_rocker[2 + i] = adc_sum[2 + i] / adc_cnt;
 133:Application/menu_task.c ****                     adc_sum[2 + i] = 0;
 134:Application/menu_task.c ****                 }
ARM GAS  C:\Users\20398\AppData\Local\Temp\ccvHbV6X.s 			page 17


 135:Application/menu_task.c ****                 write_offset_rocker_to_flash(rc->offset_rocker);
 136:Application/menu_task.c ****                 adc_cnt = 0;
 137:Application/menu_task.c ****                 state = 2;
 138:Application/menu_task.c ****             }
 139:Application/menu_task.c ****         }
 140:Application/menu_task.c ****         if (state == 2)
 716              		.loc 1 140 9 is_stmt 1 view .LVU138
 717              		.loc 1 140 19 is_stmt 0 view .LVU139
 718 000e 764B     		ldr	r3, .L59
 719 0010 1B78     		ldrb	r3, [r3]	@ zero_extendqisi2
 720              		.loc 1 140 12 view .LVU140
 721 0012 022B     		cmp	r3, #2
 722 0014 00F0B480 		beq	.L57
 723              	.L48:
 141:Application/menu_task.c ****         {
 142:Application/menu_task.c ****             OLED_NewFrame();
 143:Application/menu_task.c ****             OLED_PrintString(35, 10, "校准完成", &font16x16, 0);
 144:Application/menu_task.c ****             OLED_PrintString(3, 30, "按下确认键重新校准", &font14x14, 0);
 145:Application/menu_task.c ****             OLED_PrintString(3, 46, "按下返回键返回菜单", &font14x14, 0);
 146:Application/menu_task.c ****             OLED_ShowFrame();
 147:Application/menu_task.c ****             if (menu_command_callback(GET_EVENT_ENTER))
 148:Application/menu_task.c ****                 state = 1;
 149:Application/menu_task.c ****         }
 150:Application/menu_task.c ****         if (menu_command_callback(GET_EVENT_BACK))
 724              		.loc 1 150 9 is_stmt 1 view .LVU141
 725              		.loc 1 150 13 is_stmt 0 view .LVU142
 726 0018 0620     		movs	r0, #6
 727 001a FFF7FEFF 		bl	menu_command_callback
 728              	.LVL68:
 729              		.loc 1 150 12 view .LVU143
 730 001e 0028     		cmp	r0, #0
 731 0020 40F0D380 		bne	.L58
 151:Application/menu_task.c ****         {
 152:Application/menu_task.c ****             state = 0;
 153:Application/menu_task.c ****             adc_cnt = 0;
 154:Application/menu_task.c ****             for (int i = 0; i < 6; i++)
 155:Application/menu_task.c ****             {
 156:Application/menu_task.c ****                 adc_sum[i] = 0;
 157:Application/menu_task.c ****             }
 158:Application/menu_task.c ****             break;
 159:Application/menu_task.c ****         }
 160:Application/menu_task.c **** 
 161:Application/menu_task.c ****         osDelay(5);
 732              		.loc 1 161 9 is_stmt 1 view .LVU144
 733 0024 0520     		movs	r0, #5
 734 0026 FFF7FEFF 		bl	osDelay
 735              	.LVL69:
 736              	.LBE6:
  89:Application/menu_task.c ****     {
 737              		.loc 1 89 11 view .LVU145
 738              	.L53:
  89:Application/menu_task.c ****     {
 739              		.loc 1 89 5 view .LVU146
 740              	.LBB12:
  92:Application/menu_task.c ****         static uint32_t adc_sum[6];
 741              		.loc 1 92 9 view .LVU147
  93:Application/menu_task.c ****         static uint16_t adc_cnt = 0;
ARM GAS  C:\Users\20398\AppData\Local\Temp\ccvHbV6X.s 			page 18


 742              		.loc 1 93 9 view .LVU148
  94:Application/menu_task.c ****         if (state == 0)
 743              		.loc 1 94 9 view .LVU149
  95:Application/menu_task.c ****         {
 744              		.loc 1 95 9 view .LVU150
  95:Application/menu_task.c ****         {
 745              		.loc 1 95 19 is_stmt 0 view .LVU151
 746 002a 6F4B     		ldr	r3, .L59
 747 002c 1B78     		ldrb	r3, [r3]	@ zero_extendqisi2
  95:Application/menu_task.c ****         {
 748              		.loc 1 95 12 view .LVU152
 749 002e 002B     		cmp	r3, #0
 750 0030 E9D1     		bne	.L38
  99:Application/menu_task.c ****             OLED_PrintString(35, 10, "摇杆校准", &font16x16, 0);
 751              		.loc 1 99 13 is_stmt 1 view .LVU153
 752 0032 FFF7FEFF 		bl	OLED_NewFrame
 753              	.LVL70:
 100:Application/menu_task.c ****             OLED_PrintString(17, 30, "将所有摇杆归中", &font14x14, 0);
 754              		.loc 1 100 13 view .LVU154
 755 0036 0024     		movs	r4, #0
 756 0038 0094     		str	r4, [sp]
 757 003a 6C4B     		ldr	r3, .L59+4
 758 003c 6C4A     		ldr	r2, .L59+8
 759 003e 0A21     		movs	r1, #10
 760 0040 2320     		movs	r0, #35
 761 0042 FFF7FEFF 		bl	OLED_PrintString
 762              	.LVL71:
 101:Application/menu_task.c ****             OLED_PrintString(17, 46, "按下确认键校准", &font14x14, 0);
 763              		.loc 1 101 13 view .LVU155
 764 0046 6B4D     		ldr	r5, .L59+12
 765 0048 0094     		str	r4, [sp]
 766 004a 2B46     		mov	r3, r5
 767 004c 6A4A     		ldr	r2, .L59+16
 768 004e 1E21     		movs	r1, #30
 769 0050 1120     		movs	r0, #17
 770 0052 FFF7FEFF 		bl	OLED_PrintString
 771              	.LVL72:
 102:Application/menu_task.c ****             OLED_ShowFrame();
 772              		.loc 1 102 13 view .LVU156
 773 0056 0094     		str	r4, [sp]
 774 0058 2B46     		mov	r3, r5
 775 005a 684A     		ldr	r2, .L59+20
 776 005c 2E21     		movs	r1, #46
 777 005e 1120     		movs	r0, #17
 778 0060 FFF7FEFF 		bl	OLED_PrintString
 779              	.LVL73:
 103:Application/menu_task.c ****             if (menu_command_callback(GET_EVENT_ENTER))
 780              		.loc 1 103 13 view .LVU157
 781 0064 FFF7FEFF 		bl	OLED_ShowFrame
 782              	.LVL74:
 104:Application/menu_task.c ****                 state = 1;
 783              		.loc 1 104 13 view .LVU158
 104:Application/menu_task.c ****                 state = 1;
 784              		.loc 1 104 17 is_stmt 0 view .LVU159
 785 0068 0520     		movs	r0, #5
 786 006a FFF7FEFF 		bl	menu_command_callback
 787              	.LVL75:
ARM GAS  C:\Users\20398\AppData\Local\Temp\ccvHbV6X.s 			page 19


 104:Application/menu_task.c ****                 state = 1;
 788              		.loc 1 104 16 view .LVU160
 789 006e 0028     		cmp	r0, #0
 790 0070 C9D0     		beq	.L38
 105:Application/menu_task.c ****         }
 791              		.loc 1 105 17 is_stmt 1 view .LVU161
 105:Application/menu_task.c ****         }
 792              		.loc 1 105 23 is_stmt 0 view .LVU162
 793 0072 5D4B     		ldr	r3, .L59
 794 0074 0122     		movs	r2, #1
 795 0076 1A70     		strb	r2, [r3]
 796 0078 C5E7     		b	.L38
 797              	.L56:
 109:Application/menu_task.c ****             OLED_PrintString(42, 15, "校准中", &font16x16, 0);
 798              		.loc 1 109 13 is_stmt 1 view .LVU163
 799 007a FFF7FEFF 		bl	OLED_NewFrame
 800              	.LVL76:
 110:Application/menu_task.c ****             OLED_DrawFilledRectangle(16, 45, ((float)adc_cnt / 800) * 100, 12, 0);
 801              		.loc 1 110 13 view .LVU164
 802 007e 0024     		movs	r4, #0
 803 0080 0094     		str	r4, [sp]
 804 0082 5A4B     		ldr	r3, .L59+4
 805 0084 5E4A     		ldr	r2, .L59+24
 806 0086 0F21     		movs	r1, #15
 807 0088 2A20     		movs	r0, #42
 808 008a FFF7FEFF 		bl	OLED_PrintString
 809              	.LVL77:
 111:Application/menu_task.c ****             OLED_ShowFrame();
 810              		.loc 1 111 13 view .LVU165
 111:Application/menu_task.c ****             OLED_ShowFrame();
 811              		.loc 1 111 47 is_stmt 0 view .LVU166
 812 008e 5D4B     		ldr	r3, .L59+28
 813 0090 1888     		ldrh	r0, [r3]
 814 0092 FFF7FEFF 		bl	__aeabi_ui2f
 815              	.LVL78:
 111:Application/menu_task.c ****             OLED_ShowFrame();
 816              		.loc 1 111 62 view .LVU167
 817 0096 5C49     		ldr	r1, .L59+32
 818 0098 FFF7FEFF 		bl	__aeabi_fdiv
 819              	.LVL79:
 111:Application/menu_task.c ****             OLED_ShowFrame();
 820              		.loc 1 111 69 view .LVU168
 821 009c 5B49     		ldr	r1, .L59+36
 822 009e FFF7FEFF 		bl	__aeabi_fmul
 823              	.LVL80:
 111:Application/menu_task.c ****             OLED_ShowFrame();
 824              		.loc 1 111 13 view .LVU169
 825 00a2 FFF7FEFF 		bl	__aeabi_f2uiz
 826              	.LVL81:
 827 00a6 0094     		str	r4, [sp]
 828 00a8 0C23     		movs	r3, #12
 829 00aa C2B2     		uxtb	r2, r0
 830 00ac 2D21     		movs	r1, #45
 831 00ae 1020     		movs	r0, #16
 832 00b0 FFF7FEFF 		bl	OLED_DrawFilledRectangle
 833              	.LVL82:
 112:Application/menu_task.c ****             for (int i = 0; i < 4; i++)
ARM GAS  C:\Users\20398\AppData\Local\Temp\ccvHbV6X.s 			page 20


 834              		.loc 1 112 13 is_stmt 1 view .LVU170
 835 00b4 FFF7FEFF 		bl	OLED_ShowFrame
 836              	.LVL83:
 113:Application/menu_task.c ****             {
 837              		.loc 1 113 13 view .LVU171
 838              	.LBB7:
 113:Application/menu_task.c ****             {
 839              		.loc 1 113 18 view .LVU172
 113:Application/menu_task.c ****             {
 840              		.loc 1 113 22 is_stmt 0 view .LVU173
 841 00b8 2346     		mov	r3, r4
 113:Application/menu_task.c ****             {
 842              		.loc 1 113 13 view .LVU174
 843 00ba 11E0     		b	.L40
 844              	.LVL84:
 845              	.L41:
 115:Application/menu_task.c ****                 adc_cnt++;
 846              		.loc 1 115 17 is_stmt 1 discriminator 3 view .LVU175
 115:Application/menu_task.c ****                 adc_cnt++;
 847              		.loc 1 115 32 is_stmt 0 discriminator 3 view .LVU176
 848 00bc 981C     		adds	r0, r3, #2
 115:Application/menu_task.c ****                 adc_cnt++;
 849              		.loc 1 115 37 discriminator 3 view .LVU177
 850 00be 544A     		ldr	r2, .L59+40
 851 00c0 1268     		ldr	r2, [r2]
 852 00c2 1268     		ldr	r2, [r2]
 115:Application/menu_task.c ****                 adc_cnt++;
 853              		.loc 1 115 54 discriminator 3 view .LVU178
 854 00c4 02EB4302 		add	r2, r2, r3, lsl #1
 855 00c8 D488     		ldrh	r4, [r2, #6]
 115:Application/menu_task.c ****                 adc_cnt++;
 856              		.loc 1 115 32 discriminator 3 view .LVU179
 857 00ca 5249     		ldr	r1, .L59+44
 858 00cc 51F82020 		ldr	r2, [r1, r0, lsl #2]
 859 00d0 2244     		add	r2, r2, r4
 860 00d2 41F82020 		str	r2, [r1, r0, lsl #2]
 116:Application/menu_task.c ****             }
 861              		.loc 1 116 17 is_stmt 1 discriminator 3 view .LVU180
 116:Application/menu_task.c ****             }
 862              		.loc 1 116 24 is_stmt 0 discriminator 3 view .LVU181
 863 00d6 4B49     		ldr	r1, .L59+28
 864 00d8 0A88     		ldrh	r2, [r1]
 865 00da 0132     		adds	r2, r2, #1
 866 00dc 0A80     		strh	r2, [r1]	@ movhi
 113:Application/menu_task.c ****             {
 867              		.loc 1 113 36 is_stmt 1 discriminator 3 view .LVU182
 113:Application/menu_task.c ****             {
 868              		.loc 1 113 37 is_stmt 0 discriminator 3 view .LVU183
 869 00de 0133     		adds	r3, r3, #1
 870              	.LVL85:
 871              	.L40:
 113:Application/menu_task.c ****             {
 872              		.loc 1 113 29 is_stmt 1 discriminator 1 view .LVU184
 113:Application/menu_task.c ****             {
 873              		.loc 1 113 13 is_stmt 0 discriminator 1 view .LVU185
 874 00e0 032B     		cmp	r3, #3
 875 00e2 EBDD     		ble	.L41
ARM GAS  C:\Users\20398\AppData\Local\Temp\ccvHbV6X.s 			page 21


 876              	.LBE7:
 877              	.LBB8:
 118:Application/menu_task.c ****             {
 878              		.loc 1 118 22 view .LVU186
 879 00e4 0023     		movs	r3, #0
 880              	.LVL86:
 118:Application/menu_task.c ****             {
 881              		.loc 1 118 22 view .LVU187
 882 00e6 0CE0     		b	.L42
 883              	.LVL87:
 884              	.L43:
 120:Application/menu_task.c ****             }
 885              		.loc 1 120 17 is_stmt 1 discriminator 3 view .LVU188
 120:Application/menu_task.c ****             }
 886              		.loc 1 120 33 is_stmt 0 discriminator 3 view .LVU189
 887 00e8 494A     		ldr	r2, .L59+40
 888 00ea 1268     		ldr	r2, [r2]
 889 00ec 1268     		ldr	r2, [r2]
 120:Application/menu_task.c ****             }
 890              		.loc 1 120 45 discriminator 3 view .LVU190
 891 00ee 02EB4302 		add	r2, r2, r3, lsl #1
 892 00f2 5088     		ldrh	r0, [r2, #2]
 120:Application/menu_task.c ****             }
 893              		.loc 1 120 28 discriminator 3 view .LVU191
 894 00f4 4749     		ldr	r1, .L59+44
 895 00f6 51F82320 		ldr	r2, [r1, r3, lsl #2]
 896 00fa 0244     		add	r2, r2, r0
 897 00fc 41F82320 		str	r2, [r1, r3, lsl #2]
 118:Application/menu_task.c ****             {
 898              		.loc 1 118 36 is_stmt 1 discriminator 3 view .LVU192
 118:Application/menu_task.c ****             {
 899              		.loc 1 118 37 is_stmt 0 discriminator 3 view .LVU193
 900 0100 0133     		adds	r3, r3, #1
 901              	.LVL88:
 902              	.L42:
 118:Application/menu_task.c ****             {
 903              		.loc 1 118 29 is_stmt 1 discriminator 1 view .LVU194
 118:Application/menu_task.c ****             {
 904              		.loc 1 118 13 is_stmt 0 discriminator 1 view .LVU195
 905 0102 012B     		cmp	r3, #1
 906 0104 F0DD     		ble	.L43
 907              	.LBE8:
 122:Application/menu_task.c ****             {
 908              		.loc 1 122 13 is_stmt 1 view .LVU196
 122:Application/menu_task.c ****             {
 909              		.loc 1 122 31 is_stmt 0 view .LVU197
 910 0106 3F4B     		ldr	r3, .L59+28
 911              	.LVL89:
 122:Application/menu_task.c ****             {
 912              		.loc 1 122 31 view .LVU198
 913 0108 1B88     		ldrh	r3, [r3]
 122:Application/menu_task.c ****             {
 914              		.loc 1 122 16 view .LVU199
 915 010a B3F5497F 		cmp	r3, #804
 916 010e FFF47EAF 		bcc	.L39
 124:Application/menu_task.c ****                 for (int i = 0; i < 2; i++)
 917              		.loc 1 124 17 is_stmt 1 view .LVU200
ARM GAS  C:\Users\20398\AppData\Local\Temp\ccvHbV6X.s 			page 22


 124:Application/menu_task.c ****                 for (int i = 0; i < 2; i++)
 918              		.loc 1 124 25 is_stmt 0 view .LVU201
 919 0112 9D08     		lsrs	r5, r3, #2
 920 0114 3B4B     		ldr	r3, .L59+28
 921 0116 1D80     		strh	r5, [r3]	@ movhi
 125:Application/menu_task.c ****                 {
 922              		.loc 1 125 17 is_stmt 1 view .LVU202
 923              	.LBB9:
 125:Application/menu_task.c ****                 {
 924              		.loc 1 125 22 view .LVU203
 925              	.LVL90:
 125:Application/menu_task.c ****                 {
 926              		.loc 1 125 26 is_stmt 0 view .LVU204
 927 0118 0023     		movs	r3, #0
 125:Application/menu_task.c ****                 {
 928              		.loc 1 125 17 view .LVU205
 929 011a 0EE0     		b	.L44
 930              	.LVL91:
 931              	.L45:
 127:Application/menu_task.c ****                     adc_sum[i] = 0;
 932              		.loc 1 127 21 is_stmt 1 discriminator 3 view .LVU206
 127:Application/menu_task.c ****                     adc_sum[i] = 0;
 933              		.loc 1 127 51 is_stmt 0 discriminator 3 view .LVU207
 934 011c 3D48     		ldr	r0, .L59+44
 935 011e 50F82320 		ldr	r2, [r0, r3, lsl #2]
 127:Application/menu_task.c ****                     adc_sum[i] = 0;
 936              		.loc 1 127 55 discriminator 3 view .LVU208
 937 0122 B2FBF5F1 		udiv	r1, r2, r5
 127:Application/menu_task.c ****                     adc_sum[i] = 0;
 938              		.loc 1 127 23 discriminator 3 view .LVU209
 939 0126 3A4A     		ldr	r2, .L59+40
 940 0128 1268     		ldr	r2, [r2]
 127:Application/menu_task.c ****                     adc_sum[i] = 0;
 941              		.loc 1 127 42 discriminator 3 view .LVU210
 942 012a 1C1D     		adds	r4, r3, #4
 943 012c 02EB4402 		add	r2, r2, r4, lsl #1
 944 0130 5180     		strh	r1, [r2, #2]	@ movhi
 128:Application/menu_task.c ****                 }
 945              		.loc 1 128 21 is_stmt 1 discriminator 3 view .LVU211
 128:Application/menu_task.c ****                 }
 946              		.loc 1 128 32 is_stmt 0 discriminator 3 view .LVU212
 947 0132 0022     		movs	r2, #0
 948 0134 40F82320 		str	r2, [r0, r3, lsl #2]
 125:Application/menu_task.c ****                 {
 949              		.loc 1 125 40 is_stmt 1 discriminator 3 view .LVU213
 125:Application/menu_task.c ****                 {
 950              		.loc 1 125 41 is_stmt 0 discriminator 3 view .LVU214
 951 0138 0133     		adds	r3, r3, #1
 952              	.LVL92:
 953              	.L44:
 125:Application/menu_task.c ****                 {
 954              		.loc 1 125 33 is_stmt 1 discriminator 1 view .LVU215
 125:Application/menu_task.c ****                 {
 955              		.loc 1 125 17 is_stmt 0 discriminator 1 view .LVU216
 956 013a 012B     		cmp	r3, #1
 957 013c EEDD     		ble	.L45
 958              	.LBE9:
ARM GAS  C:\Users\20398\AppData\Local\Temp\ccvHbV6X.s 			page 23


 959              	.LBB10:
 130:Application/menu_task.c ****                 {
 960              		.loc 1 130 26 view .LVU217
 961 013e 0023     		movs	r3, #0
 962              	.LVL93:
 130:Application/menu_task.c ****                 {
 963              		.loc 1 130 26 view .LVU218
 964 0140 10E0     		b	.L46
 965              	.LVL94:
 966              	.L47:
 132:Application/menu_task.c ****                     adc_sum[2 + i] = 0;
 967              		.loc 1 132 21 is_stmt 1 discriminator 3 view .LVU219
 132:Application/menu_task.c ****                     adc_sum[2 + i] = 0;
 968              		.loc 1 132 58 is_stmt 0 discriminator 3 view .LVU220
 969 0142 9C1C     		adds	r4, r3, #2
 132:Application/menu_task.c ****                     adc_sum[2 + i] = 0;
 970              		.loc 1 132 55 discriminator 3 view .LVU221
 971 0144 3348     		ldr	r0, .L59+44
 972 0146 50F82420 		ldr	r2, [r0, r4, lsl #2]
 132:Application/menu_task.c ****                     adc_sum[2 + i] = 0;
 973              		.loc 1 132 63 discriminator 3 view .LVU222
 974 014a B2FBF5F1 		udiv	r1, r2, r5
 132:Application/menu_task.c ****                     adc_sum[2 + i] = 0;
 975              		.loc 1 132 23 discriminator 3 view .LVU223
 976 014e 304A     		ldr	r2, .L59+40
 977 0150 1268     		ldr	r2, [r2]
 132:Application/menu_task.c ****                     adc_sum[2 + i] = 0;
 978              		.loc 1 132 46 discriminator 3 view .LVU224
 979 0152 03F1060C 		add	ip, r3, #6
 980 0156 02EB4C02 		add	r2, r2, ip, lsl #1
 981 015a 5180     		strh	r1, [r2, #2]	@ movhi
 133:Application/menu_task.c ****                 }
 982              		.loc 1 133 21 is_stmt 1 discriminator 3 view .LVU225
 133:Application/menu_task.c ****                 }
 983              		.loc 1 133 36 is_stmt 0 discriminator 3 view .LVU226
 984 015c 0022     		movs	r2, #0
 985 015e 40F82420 		str	r2, [r0, r4, lsl #2]
 130:Application/menu_task.c ****                 {
 986              		.loc 1 130 40 is_stmt 1 discriminator 3 view .LVU227
 130:Application/menu_task.c ****                 {
 987              		.loc 1 130 41 is_stmt 0 discriminator 3 view .LVU228
 988 0162 0133     		adds	r3, r3, #1
 989              	.LVL95:
 990              	.L46:
 130:Application/menu_task.c ****                 {
 991              		.loc 1 130 33 is_stmt 1 discriminator 1 view .LVU229
 130:Application/menu_task.c ****                 {
 992              		.loc 1 130 17 is_stmt 0 discriminator 1 view .LVU230
 993 0164 032B     		cmp	r3, #3
 994 0166 ECDD     		ble	.L47
 995              	.LBE10:
 135:Application/menu_task.c ****                 adc_cnt = 0;
 996              		.loc 1 135 17 is_stmt 1 view .LVU231
 135:Application/menu_task.c ****                 adc_cnt = 0;
 997              		.loc 1 135 48 is_stmt 0 view .LVU232
 998 0168 294B     		ldr	r3, .L59+40
 999              	.LVL96:
ARM GAS  C:\Users\20398\AppData\Local\Temp\ccvHbV6X.s 			page 24


 135:Application/menu_task.c ****                 adc_cnt = 0;
 1000              		.loc 1 135 48 view .LVU233
 1001 016a 1868     		ldr	r0, [r3]
 135:Application/menu_task.c ****                 adc_cnt = 0;
 1002              		.loc 1 135 17 view .LVU234
 1003 016c 0A30     		adds	r0, r0, #10
 1004 016e FFF7FEFF 		bl	write_offset_rocker_to_flash
 1005              	.LVL97:
 136:Application/menu_task.c ****                 state = 2;
 1006              		.loc 1 136 17 is_stmt 1 view .LVU235
 136:Application/menu_task.c ****                 state = 2;
 1007              		.loc 1 136 25 is_stmt 0 view .LVU236
 1008 0172 244B     		ldr	r3, .L59+28
 1009 0174 0022     		movs	r2, #0
 1010 0176 1A80     		strh	r2, [r3]	@ movhi
 137:Application/menu_task.c ****             }
 1011              		.loc 1 137 17 is_stmt 1 view .LVU237
 137:Application/menu_task.c ****             }
 1012              		.loc 1 137 23 is_stmt 0 view .LVU238
 1013 0178 1B4B     		ldr	r3, .L59
 1014 017a 0222     		movs	r2, #2
 1015 017c 1A70     		strb	r2, [r3]
 1016 017e 46E7     		b	.L39
 1017              	.L57:
 142:Application/menu_task.c ****             OLED_PrintString(35, 10, "校准完成", &font16x16, 0);
 1018              		.loc 1 142 13 is_stmt 1 view .LVU239
 1019 0180 FFF7FEFF 		bl	OLED_NewFrame
 1020              	.LVL98:
 143:Application/menu_task.c ****             OLED_PrintString(3, 30, "按下确认键重新校准", &font14x14, 0);
 1021              		.loc 1 143 13 view .LVU240
 1022 0184 0024     		movs	r4, #0
 1023 0186 0094     		str	r4, [sp]
 1024 0188 184B     		ldr	r3, .L59+4
 1025 018a 234A     		ldr	r2, .L59+48
 1026 018c 0A21     		movs	r1, #10
 1027 018e 2320     		movs	r0, #35
 1028 0190 FFF7FEFF 		bl	OLED_PrintString
 1029              	.LVL99:
 144:Application/menu_task.c ****             OLED_PrintString(3, 46, "按下返回键返回菜单", &font14x14, 0);
 1030              		.loc 1 144 13 view .LVU241
 1031 0194 174D     		ldr	r5, .L59+12
 1032 0196 0094     		str	r4, [sp]
 1033 0198 2B46     		mov	r3, r5
 1034 019a 204A     		ldr	r2, .L59+52
 1035 019c 1E21     		movs	r1, #30
 1036 019e 0320     		movs	r0, #3
 1037 01a0 FFF7FEFF 		bl	OLED_PrintString
 1038              	.LVL100:
 145:Application/menu_task.c ****             OLED_ShowFrame();
 1039              		.loc 1 145 13 view .LVU242
 1040 01a4 0094     		str	r4, [sp]
 1041 01a6 2B46     		mov	r3, r5
 1042 01a8 1D4A     		ldr	r2, .L59+56
 1043 01aa 2E21     		movs	r1, #46
 1044 01ac 0320     		movs	r0, #3
 1045 01ae FFF7FEFF 		bl	OLED_PrintString
 1046              	.LVL101:
ARM GAS  C:\Users\20398\AppData\Local\Temp\ccvHbV6X.s 			page 25


 146:Application/menu_task.c ****             if (menu_command_callback(GET_EVENT_ENTER))
 1047              		.loc 1 146 13 view .LVU243
 1048 01b2 FFF7FEFF 		bl	OLED_ShowFrame
 1049              	.LVL102:
 147:Application/menu_task.c ****                 state = 1;
 1050              		.loc 1 147 13 view .LVU244
 147:Application/menu_task.c ****                 state = 1;
 1051              		.loc 1 147 17 is_stmt 0 view .LVU245
 1052 01b6 0520     		movs	r0, #5
 1053 01b8 FFF7FEFF 		bl	menu_command_callback
 1054              	.LVL103:
 147:Application/menu_task.c ****                 state = 1;
 1055              		.loc 1 147 16 view .LVU246
 1056 01bc 0028     		cmp	r0, #0
 1057 01be 3FF42BAF 		beq	.L48
 148:Application/menu_task.c ****         }
 1058              		.loc 1 148 17 is_stmt 1 view .LVU247
 148:Application/menu_task.c ****         }
 1059              		.loc 1 148 23 is_stmt 0 view .LVU248
 1060 01c2 094B     		ldr	r3, .L59
 1061 01c4 0122     		movs	r2, #1
 1062 01c6 1A70     		strb	r2, [r3]
 1063 01c8 26E7     		b	.L48
 1064              	.L58:
 152:Application/menu_task.c ****             adc_cnt = 0;
 1065              		.loc 1 152 13 is_stmt 1 view .LVU249
 152:Application/menu_task.c ****             adc_cnt = 0;
 1066              		.loc 1 152 19 is_stmt 0 view .LVU250
 1067 01ca 0023     		movs	r3, #0
 1068 01cc 064A     		ldr	r2, .L59
 1069 01ce 1370     		strb	r3, [r2]
 153:Application/menu_task.c ****             for (int i = 0; i < 6; i++)
 1070              		.loc 1 153 13 is_stmt 1 view .LVU251
 153:Application/menu_task.c ****             for (int i = 0; i < 6; i++)
 1071              		.loc 1 153 21 is_stmt 0 view .LVU252
 1072 01d0 0C4A     		ldr	r2, .L59+28
 1073 01d2 1380     		strh	r3, [r2]	@ movhi
 154:Application/menu_task.c ****             {
 1074              		.loc 1 154 13 is_stmt 1 view .LVU253
 1075              	.LBB11:
 154:Application/menu_task.c ****             {
 1076              		.loc 1 154 18 view .LVU254
 1077              	.LVL104:
 154:Application/menu_task.c ****             {
 1078              		.loc 1 154 13 is_stmt 0 view .LVU255
 1079 01d4 04E0     		b	.L50
 1080              	.LVL105:
 1081              	.L51:
 156:Application/menu_task.c ****             }
 1082              		.loc 1 156 17 is_stmt 1 discriminator 3 view .LVU256
 156:Application/menu_task.c ****             }
 1083              		.loc 1 156 28 is_stmt 0 discriminator 3 view .LVU257
 1084 01d6 0F4A     		ldr	r2, .L59+44
 1085 01d8 0021     		movs	r1, #0
 1086 01da 42F82310 		str	r1, [r2, r3, lsl #2]
 154:Application/menu_task.c ****             {
 1087              		.loc 1 154 36 is_stmt 1 discriminator 3 view .LVU258
ARM GAS  C:\Users\20398\AppData\Local\Temp\ccvHbV6X.s 			page 26


 154:Application/menu_task.c ****             {
 1088              		.loc 1 154 37 is_stmt 0 discriminator 3 view .LVU259
 1089 01de 0133     		adds	r3, r3, #1
 1090              	.LVL106:
 1091              	.L50:
 154:Application/menu_task.c ****             {
 1092              		.loc 1 154 29 is_stmt 1 discriminator 1 view .LVU260
 154:Application/menu_task.c ****             {
 1093              		.loc 1 154 13 is_stmt 0 discriminator 1 view .LVU261
 1094 01e0 052B     		cmp	r3, #5
 1095 01e2 F8DD     		ble	.L51
 1096              	.LBE11:
 1097              	.LBE12:
 162:Application/menu_task.c ****     }
 163:Application/menu_task.c **** }
 1098              		.loc 1 163 1 view .LVU262
 1099 01e4 03B0     		add	sp, sp, #12
 1100              	.LCFI12:
 1101              		.cfi_def_cfa_offset 12
 1102              		@ sp needed
 1103 01e6 30BD     		pop	{r4, r5, pc}
 1104              	.L60:
 1105              		.align	2
 1106              	.L59:
 1107 01e8 00000000 		.word	.LANCHOR1
 1108 01ec 00000000 		.word	font16x16
 1109 01f0 00000000 		.word	.LC0
 1110 01f4 00000000 		.word	font14x14
 1111 01f8 10000000 		.word	.LC1
 1112 01fc 28000000 		.word	.LC2
 1113 0200 40000000 		.word	.LC3
 1114 0204 00000000 		.word	.LANCHOR2
 1115 0208 00004844 		.word	1145569280
 1116 020c 0000C842 		.word	1120403456
 1117 0210 00000000 		.word	.LANCHOR0
 1118 0214 00000000 		.word	.LANCHOR3
 1119 0218 4C000000 		.word	.LC4
 1120 021c 5C000000 		.word	.LC5
 1121 0220 78000000 		.word	.LC6
 1122              		.cfi_endproc
 1123              	.LFE77:
 1125              		.section	.text.MENU_ShowImage,"ax",%progbits
 1126              		.align	1
 1127              		.global	MENU_ShowImage
 1128              		.syntax unified
 1129              		.thumb
 1130              		.thumb_func
 1132              	MENU_ShowImage:
 1133              	.LFB78:
 164:Application/menu_task.c **** 
 165:Application/menu_task.c **** void MENU_ShowImage(void)
 166:Application/menu_task.c **** {
 1134              		.loc 1 166 1 is_stmt 1 view -0
 1135              		.cfi_startproc
 1136              		@ args = 0, pretend = 0, frame = 0
 1137              		@ frame_needed = 0, uses_anonymous_args = 0
 1138 0000 08B5     		push	{r3, lr}
ARM GAS  C:\Users\20398\AppData\Local\Temp\ccvHbV6X.s 			page 27


 1139              	.LCFI13:
 1140              		.cfi_def_cfa_offset 8
 1141              		.cfi_offset 3, -8
 1142              		.cfi_offset 14, -4
 1143 0002 17E0     		b	.L75
 1144              	.L63:
 1145              	.LBB13:
 1146              	.LBB14:
 167:Application/menu_task.c ****     while (1)
 168:Application/menu_task.c ****     {
 169:Application/menu_task.c ****         static int8_t rank_img = 5;
 170:Application/menu_task.c ****         // 按上/下键切换图片
 171:Application/menu_task.c ****         if (Key_GetEvent_Up())
 172:Application/menu_task.c ****             if (rank_img > 7)
 173:Application/menu_task.c ****                 rank_img = 0;
 174:Application/menu_task.c ****             else
 175:Application/menu_task.c ****                 rank_img++;
 1147              		.loc 1 175 17 view .LVU264
 1148              		.loc 1 175 25 is_stmt 0 view .LVU265
 1149 0004 0133     		adds	r3, r3, #1
 1150 0006 394A     		ldr	r2, .L84
 1151 0008 1370     		strb	r3, [r2]
 1152 000a 1EE0     		b	.L62
 1153              	.L77:
 1154              	.LBE14:
 1155              	.LBB15:
 176:Application/menu_task.c ****         if (Key_GetEvent_Down())
 177:Application/menu_task.c ****             if (rank_img < 2)
 178:Application/menu_task.c ****                 rank_img = 7;
 1156              		.loc 1 178 17 is_stmt 1 view .LVU266
 1157              		.loc 1 178 26 is_stmt 0 view .LVU267
 1158 000c 374B     		ldr	r3, .L84
 1159 000e 0722     		movs	r2, #7
 1160 0010 1A70     		strb	r2, [r3]
 1161 0012 25E0     		b	.L64
 1162              	.L78:
 1163              	.LBE15:
 179:Application/menu_task.c ****             else
 180:Application/menu_task.c ****                 rank_img--;
 181:Application/menu_task.c **** 
 182:Application/menu_task.c ****         OLED_NewFrame();
 183:Application/menu_task.c ****         if (rank_img > 7)
 184:Application/menu_task.c ****             OLED_DrawImage(24, 0, &infantry34Img, 0);
 1164              		.loc 1 184 13 is_stmt 1 view .LVU268
 1165 0014 0023     		movs	r3, #0
 1166 0016 364A     		ldr	r2, .L84+4
 1167 0018 1946     		mov	r1, r3
 1168 001a 1820     		movs	r0, #24
 1169 001c FFF7FEFF 		bl	OLED_DrawImage
 1170              	.LVL107:
 1171              	.L67:
 185:Application/menu_task.c ****         else if (rank_img > 6)
 186:Application/menu_task.c ****             OLED_DrawImage(16, 0, &inf4Img, 0);
 187:Application/menu_task.c ****         else if (rank_img > 5)
 188:Application/menu_task.c ****             OLED_DrawImage(16, 0, &heroainfImg, 0);
 189:Application/menu_task.c ****         else if (rank_img > 4) // 5
 190:Application/menu_task.c ****             OLED_DrawImage(33, 0, &APEXImg, 0);
ARM GAS  C:\Users\20398\AppData\Local\Temp\ccvHbV6X.s 			page 28


 191:Application/menu_task.c ****         else if (rank_img > 3) // 4
 192:Application/menu_task.c ****             OLED_DrawImage(30, 0, &ACEImg, 0);
 193:Application/menu_task.c ****         else if (rank_img > 2) // 3
 194:Application/menu_task.c ****             OLED_DrawImage(17, 0, &ROBOMASTERImg, 0);
 195:Application/menu_task.c ****         else if (rank_img > 1) // 2
 196:Application/menu_task.c ****             OLED_DrawImage(17, 0, &CSGOImg, 0);
 197:Application/menu_task.c ****         else // 1
 198:Application/menu_task.c ****             OLED_DrawImage(24, 0, &dafuImg, 0);
 199:Application/menu_task.c ****         OLED_ShowFrame();
 1172              		.loc 1 199 9 view .LVU269
 1173 0020 FFF7FEFF 		bl	OLED_ShowFrame
 1174              	.LVL108:
 200:Application/menu_task.c **** 
 201:Application/menu_task.c ****         if (menu_command_callback(GET_EVENT_BACK))
 1175              		.loc 1 201 9 view .LVU270
 1176              		.loc 1 201 13 is_stmt 0 view .LVU271
 1177 0024 0620     		movs	r0, #6
 1178 0026 FFF7FEFF 		bl	menu_command_callback
 1179              	.LVL109:
 1180              		.loc 1 201 12 view .LVU272
 1181 002a 0028     		cmp	r0, #0
 1182 002c 5CD1     		bne	.L61
 202:Application/menu_task.c ****             break;
 203:Application/menu_task.c ****         osDelay(5);
 1183              		.loc 1 203 9 is_stmt 1 view .LVU273
 1184 002e 0520     		movs	r0, #5
 1185 0030 FFF7FEFF 		bl	osDelay
 1186              	.LVL110:
 1187              	.LBE13:
 167:Application/menu_task.c ****     {
 1188              		.loc 1 167 11 view .LVU274
 1189              	.L75:
 167:Application/menu_task.c ****     {
 1190              		.loc 1 167 5 view .LVU275
 1191              	.LBB18:
 169:Application/menu_task.c ****         // 按上/下键切换图片
 1192              		.loc 1 169 9 view .LVU276
 171:Application/menu_task.c ****             if (rank_img > 7)
 1193              		.loc 1 171 9 view .LVU277
 1194              	.LBB16:
 171:Application/menu_task.c ****             if (rank_img > 7)
 1195              		.loc 1 171 13 is_stmt 0 view .LVU278
 1196 0034 FFF7FEFF 		bl	Key_GetEvent_Up
 1197              	.LVL111:
 171:Application/menu_task.c ****             if (rank_img > 7)
 1198              		.loc 1 171 12 view .LVU279
 1199 0038 38B1     		cbz	r0, .L62
 172:Application/menu_task.c ****                 rank_img = 0;
 1200              		.loc 1 172 13 is_stmt 1 view .LVU280
 172:Application/menu_task.c ****                 rank_img = 0;
 1201              		.loc 1 172 26 is_stmt 0 view .LVU281
 1202 003a 2C4B     		ldr	r3, .L84
 1203 003c 93F90030 		ldrsb	r3, [r3]
 172:Application/menu_task.c ****                 rank_img = 0;
 1204              		.loc 1 172 16 view .LVU282
 1205 0040 072B     		cmp	r3, #7
 1206 0042 DFDD     		ble	.L63
ARM GAS  C:\Users\20398\AppData\Local\Temp\ccvHbV6X.s 			page 29


 173:Application/menu_task.c ****             else
 1207              		.loc 1 173 17 is_stmt 1 view .LVU283
 173:Application/menu_task.c ****             else
 1208              		.loc 1 173 26 is_stmt 0 view .LVU284
 1209 0044 294B     		ldr	r3, .L84
 1210 0046 0022     		movs	r2, #0
 1211 0048 1A70     		strb	r2, [r3]
 1212              	.L62:
 1213              	.LBE16:
 176:Application/menu_task.c ****             if (rank_img < 2)
 1214              		.loc 1 176 9 is_stmt 1 view .LVU285
 1215              	.LBB17:
 176:Application/menu_task.c ****             if (rank_img < 2)
 1216              		.loc 1 176 13 is_stmt 0 view .LVU286
 1217 004a FFF7FEFF 		bl	Key_GetEvent_Down
 1218              	.LVL112:
 176:Application/menu_task.c ****             if (rank_img < 2)
 1219              		.loc 1 176 12 view .LVU287
 1220 004e 38B1     		cbz	r0, .L64
 177:Application/menu_task.c ****                 rank_img = 7;
 1221              		.loc 1 177 13 is_stmt 1 view .LVU288
 177:Application/menu_task.c ****                 rank_img = 7;
 1222              		.loc 1 177 26 is_stmt 0 view .LVU289
 1223 0050 264B     		ldr	r3, .L84
 1224 0052 93F90030 		ldrsb	r3, [r3]
 177:Application/menu_task.c ****                 rank_img = 7;
 1225              		.loc 1 177 16 view .LVU290
 1226 0056 012B     		cmp	r3, #1
 1227 0058 D8DD     		ble	.L77
 180:Application/menu_task.c **** 
 1228              		.loc 1 180 17 is_stmt 1 view .LVU291
 180:Application/menu_task.c **** 
 1229              		.loc 1 180 25 is_stmt 0 view .LVU292
 1230 005a 013B     		subs	r3, r3, #1
 1231 005c 234A     		ldr	r2, .L84
 1232 005e 1370     		strb	r3, [r2]
 1233              	.L64:
 1234              	.LBE17:
 182:Application/menu_task.c ****         if (rank_img > 7)
 1235              		.loc 1 182 9 is_stmt 1 view .LVU293
 1236 0060 FFF7FEFF 		bl	OLED_NewFrame
 1237              	.LVL113:
 183:Application/menu_task.c ****             OLED_DrawImage(24, 0, &infantry34Img, 0);
 1238              		.loc 1 183 9 view .LVU294
 183:Application/menu_task.c ****             OLED_DrawImage(24, 0, &infantry34Img, 0);
 1239              		.loc 1 183 22 is_stmt 0 view .LVU295
 1240 0064 214B     		ldr	r3, .L84
 1241 0066 93F90030 		ldrsb	r3, [r3]
 183:Application/menu_task.c ****             OLED_DrawImage(24, 0, &infantry34Img, 0);
 1242              		.loc 1 183 12 view .LVU296
 1243 006a 072B     		cmp	r3, #7
 1244 006c D2DC     		bgt	.L78
 185:Application/menu_task.c ****             OLED_DrawImage(16, 0, &inf4Img, 0);
 1245              		.loc 1 185 14 is_stmt 1 view .LVU297
 185:Application/menu_task.c ****             OLED_DrawImage(16, 0, &inf4Img, 0);
 1246              		.loc 1 185 17 is_stmt 0 view .LVU298
 1247 006e 062B     		cmp	r3, #6
ARM GAS  C:\Users\20398\AppData\Local\Temp\ccvHbV6X.s 			page 30


 1248 0070 10DC     		bgt	.L79
 187:Application/menu_task.c ****             OLED_DrawImage(16, 0, &heroainfImg, 0);
 1249              		.loc 1 187 14 is_stmt 1 view .LVU299
 187:Application/menu_task.c ****             OLED_DrawImage(16, 0, &heroainfImg, 0);
 1250              		.loc 1 187 17 is_stmt 0 view .LVU300
 1251 0072 052B     		cmp	r3, #5
 1252 0074 15DC     		bgt	.L80
 189:Application/menu_task.c ****             OLED_DrawImage(33, 0, &APEXImg, 0);
 1253              		.loc 1 189 14 is_stmt 1 view .LVU301
 189:Application/menu_task.c ****             OLED_DrawImage(33, 0, &APEXImg, 0);
 1254              		.loc 1 189 17 is_stmt 0 view .LVU302
 1255 0076 042B     		cmp	r3, #4
 1256 0078 1ADC     		bgt	.L81
 191:Application/menu_task.c ****             OLED_DrawImage(30, 0, &ACEImg, 0);
 1257              		.loc 1 191 14 is_stmt 1 view .LVU303
 191:Application/menu_task.c ****             OLED_DrawImage(30, 0, &ACEImg, 0);
 1258              		.loc 1 191 17 is_stmt 0 view .LVU304
 1259 007a 032B     		cmp	r3, #3
 1260 007c 1FDC     		bgt	.L82
 193:Application/menu_task.c ****             OLED_DrawImage(17, 0, &ROBOMASTERImg, 0);
 1261              		.loc 1 193 14 is_stmt 1 view .LVU305
 193:Application/menu_task.c ****             OLED_DrawImage(17, 0, &ROBOMASTERImg, 0);
 1262              		.loc 1 193 17 is_stmt 0 view .LVU306
 1263 007e 022B     		cmp	r3, #2
 1264 0080 24DC     		bgt	.L83
 195:Application/menu_task.c ****             OLED_DrawImage(17, 0, &CSGOImg, 0);
 1265              		.loc 1 195 14 is_stmt 1 view .LVU307
 195:Application/menu_task.c ****             OLED_DrawImage(17, 0, &CSGOImg, 0);
 1266              		.loc 1 195 17 is_stmt 0 view .LVU308
 1267 0082 012B     		cmp	r3, #1
 1268 0084 29DD     		ble	.L73
 196:Application/menu_task.c ****         else // 1
 1269              		.loc 1 196 13 is_stmt 1 view .LVU309
 1270 0086 0023     		movs	r3, #0
 1271 0088 1A4A     		ldr	r2, .L84+8
 1272 008a 1946     		mov	r1, r3
 1273 008c 1120     		movs	r0, #17
 1274 008e FFF7FEFF 		bl	OLED_DrawImage
 1275              	.LVL114:
 1276 0092 C5E7     		b	.L67
 1277              	.L79:
 186:Application/menu_task.c ****         else if (rank_img > 5)
 1278              		.loc 1 186 13 view .LVU310
 1279 0094 0023     		movs	r3, #0
 1280 0096 184A     		ldr	r2, .L84+12
 1281 0098 1946     		mov	r1, r3
 1282 009a 1020     		movs	r0, #16
 1283 009c FFF7FEFF 		bl	OLED_DrawImage
 1284              	.LVL115:
 1285 00a0 BEE7     		b	.L67
 1286              	.L80:
 188:Application/menu_task.c ****         else if (rank_img > 4) // 5
 1287              		.loc 1 188 13 view .LVU311
 1288 00a2 0023     		movs	r3, #0
 1289 00a4 154A     		ldr	r2, .L84+16
 1290 00a6 1946     		mov	r1, r3
 1291 00a8 1020     		movs	r0, #16
ARM GAS  C:\Users\20398\AppData\Local\Temp\ccvHbV6X.s 			page 31


 1292 00aa FFF7FEFF 		bl	OLED_DrawImage
 1293              	.LVL116:
 1294 00ae B7E7     		b	.L67
 1295              	.L81:
 190:Application/menu_task.c ****         else if (rank_img > 3) // 4
 1296              		.loc 1 190 13 view .LVU312
 1297 00b0 0023     		movs	r3, #0
 1298 00b2 134A     		ldr	r2, .L84+20
 1299 00b4 1946     		mov	r1, r3
 1300 00b6 2120     		movs	r0, #33
 1301 00b8 FFF7FEFF 		bl	OLED_DrawImage
 1302              	.LVL117:
 1303 00bc B0E7     		b	.L67
 1304              	.L82:
 192:Application/menu_task.c ****         else if (rank_img > 2) // 3
 1305              		.loc 1 192 13 view .LVU313
 1306 00be 0023     		movs	r3, #0
 1307 00c0 104A     		ldr	r2, .L84+24
 1308 00c2 1946     		mov	r1, r3
 1309 00c4 1E20     		movs	r0, #30
 1310 00c6 FFF7FEFF 		bl	OLED_DrawImage
 1311              	.LVL118:
 1312 00ca A9E7     		b	.L67
 1313              	.L83:
 194:Application/menu_task.c ****         else if (rank_img > 1) // 2
 1314              		.loc 1 194 13 view .LVU314
 1315 00cc 0023     		movs	r3, #0
 1316 00ce 0E4A     		ldr	r2, .L84+28
 1317 00d0 1946     		mov	r1, r3
 1318 00d2 1120     		movs	r0, #17
 1319 00d4 FFF7FEFF 		bl	OLED_DrawImage
 1320              	.LVL119:
 1321 00d8 A2E7     		b	.L67
 1322              	.L73:
 198:Application/menu_task.c ****         OLED_ShowFrame();
 1323              		.loc 1 198 13 view .LVU315
 1324 00da 0023     		movs	r3, #0
 1325 00dc 0B4A     		ldr	r2, .L84+32
 1326 00de 1946     		mov	r1, r3
 1327 00e0 1820     		movs	r0, #24
 1328 00e2 FFF7FEFF 		bl	OLED_DrawImage
 1329              	.LVL120:
 1330 00e6 9BE7     		b	.L67
 1331              	.L61:
 1332              	.LBE18:
 204:Application/menu_task.c ****     }
 205:Application/menu_task.c **** }
 1333              		.loc 1 205 1 is_stmt 0 view .LVU316
 1334 00e8 08BD     		pop	{r3, pc}
 1335              	.L85:
 1336 00ea 00BF     		.align	2
 1337              	.L84:
 1338 00ec 00000000 		.word	.LANCHOR4
 1339 00f0 00000000 		.word	infantry34Img
 1340 00f4 00000000 		.word	CSGOImg
 1341 00f8 00000000 		.word	inf4Img
 1342 00fc 00000000 		.word	heroainfImg
ARM GAS  C:\Users\20398\AppData\Local\Temp\ccvHbV6X.s 			page 32


 1343 0100 00000000 		.word	APEXImg
 1344 0104 00000000 		.word	ACEImg
 1345 0108 00000000 		.word	ROBOMASTERImg
 1346 010c 00000000 		.word	dafuImg
 1347              		.cfi_endproc
 1348              	.LFE78:
 1350              		.global	__aeabi_ddiv
 1351              		.global	__aeabi_d2f
 1352              		.global	__aeabi_f2iz
 1353              		.global	__aeabi_fsub
 1354              		.section	.rodata.MENU_ShowInfomation.str1.4,"aMS",%progbits,1
 1355              		.align	2
 1356              	.LC7:
 1357 0000 56726566 		.ascii	"Vref=%d.%dV\000"
 1357      3D25642E 
 1357      25645600 
 1358              		.align	2
 1359              	.LC8:
 1360 000c 54656D70 		.ascii	"Temp=%d.%dC\000"
 1360      3D25642E 
 1360      25644300 
 1361              		.align	2
 1362              	.LC9:
 1363 0018 4F4E4C49 		.ascii	"ONLINE\000"
 1363      4E4500
 1364 001f 00       		.align	2
 1365              	.LC10:
 1366 0020 4F46464C 		.ascii	"OFFLINE\000"
 1366      494E4500 
 1367              		.align	2
 1368              	.LC11:
 1369 0028 42792043 		.ascii	"By CAYON\000"
 1369      41594F4E 
 1369      00
 1370              		.section	.text.MENU_ShowInfomation,"ax",%progbits
 1371              		.align	1
 1372              		.global	MENU_ShowInfomation
 1373              		.syntax unified
 1374              		.thumb
 1375              		.thumb_func
 1377              	MENU_ShowInfomation:
 1378              	.LFB79:
 206:Application/menu_task.c **** 
 207:Application/menu_task.c **** void MENU_ShowInfomation(void)
 208:Application/menu_task.c **** {
 1379              		.loc 1 208 1 is_stmt 1 view -0
 1380              		.cfi_startproc
 1381              		@ args = 0, pretend = 0, frame = 104
 1382              		@ frame_needed = 0, uses_anonymous_args = 0
 1383 0000 F0B5     		push	{r4, r5, r6, r7, lr}
 1384              	.LCFI14:
 1385              		.cfi_def_cfa_offset 20
 1386              		.cfi_offset 4, -20
 1387              		.cfi_offset 5, -16
 1388              		.cfi_offset 6, -12
 1389              		.cfi_offset 7, -8
 1390              		.cfi_offset 14, -4
ARM GAS  C:\Users\20398\AppData\Local\Temp\ccvHbV6X.s 			page 33


 1391 0002 9DB0     		sub	sp, sp, #116
 1392              	.LCFI15:
 1393              		.cfi_def_cfa_offset 136
 1394 0004 18E0     		b	.L90
 1395              	.LVL121:
 1396              	.L92:
 1397              	.LBB19:
 209:Application/menu_task.c ****     while (1)
 210:Application/menu_task.c ****     {
 211:Application/menu_task.c ****         char Vbuf[50];
 212:Application/menu_task.c ****         char Tbuf[50];
 213:Application/menu_task.c ****         float Vref = (1.2 / ((float)rc->Vref / 4095));
 214:Application/menu_task.c ****         float temperature = ((1.34 - ((float)rc->temperature) * Vref / 4096) / 4.3) + 25.0;
 215:Application/menu_task.c ****         int intValue = (int)Vref;
 216:Application/menu_task.c ****         float decimalValue = Vref - (float)intValue;
 217:Application/menu_task.c ****         int decimalIntValue = (int)(decimalValue * 1000); // 保留两位小数
 218:Application/menu_task.c ****         sprintf(Vbuf, "Vref=%d.%dV", intValue, decimalIntValue);
 219:Application/menu_task.c ****         intValue = (int)temperature;
 220:Application/menu_task.c ****         decimalValue = temperature - (float)intValue;
 221:Application/menu_task.c ****         decimalIntValue = (int)(decimalValue * 1000); // 保留两位小数
 222:Application/menu_task.c ****         sprintf(Tbuf, "Temp=%d.%dC", intValue, decimalIntValue);
 223:Application/menu_task.c ****         OLED_NewFrame();
 224:Application/menu_task.c ****         OLED_PrintASCIIString(5, 4, Vbuf, &afont16x8, 0);
 225:Application/menu_task.c ****         OLED_PrintASCIIString(5, 24, Tbuf, &afont16x8, 0);
 226:Application/menu_task.c ****         if (rc->online)
 227:Application/menu_task.c ****             OLED_PrintASCIIString(5, 44, "ONLINE", &afont16x8, 0);
 1398              		.loc 1 227 13 view .LVU318
 1399 0006 0095     		str	r5, [sp]
 1400 0008 2346     		mov	r3, r4
 1401 000a 4F4A     		ldr	r2, .L93+16
 1402 000c 2C21     		movs	r1, #44
 1403 000e 0520     		movs	r0, #5
 1404 0010 FFF7FEFF 		bl	OLED_PrintASCIIString
 1405              	.LVL122:
 1406              	.L88:
 228:Application/menu_task.c ****         else
 229:Application/menu_task.c ****             OLED_PrintASCIIString(5, 44, "OFFLINE", &afont16x8, 0);
 230:Application/menu_task.c ****         OLED_PrintASCIIString(72, 48, "By CAYON", &afont12x6, 0);
 1407              		.loc 1 230 9 view .LVU319
 1408 0014 0023     		movs	r3, #0
 1409 0016 0093     		str	r3, [sp]
 1410 0018 4C4B     		ldr	r3, .L93+20
 1411 001a 4D4A     		ldr	r2, .L93+24
 1412 001c 3021     		movs	r1, #48
 1413 001e 4820     		movs	r0, #72
 1414 0020 FFF7FEFF 		bl	OLED_PrintASCIIString
 1415              	.LVL123:
 231:Application/menu_task.c ****         OLED_ShowFrame();
 1416              		.loc 1 231 9 view .LVU320
 1417 0024 FFF7FEFF 		bl	OLED_ShowFrame
 1418              	.LVL124:
 232:Application/menu_task.c ****         if (menu_command_callback(GET_EVENT_BACK))
 1419              		.loc 1 232 9 view .LVU321
 1420              		.loc 1 232 13 is_stmt 0 view .LVU322
 1421 0028 0620     		movs	r0, #6
 1422 002a FFF7FEFF 		bl	menu_command_callback
 1423              	.LVL125:
ARM GAS  C:\Users\20398\AppData\Local\Temp\ccvHbV6X.s 			page 34


 1424              		.loc 1 232 12 view .LVU323
 1425 002e 0028     		cmp	r0, #0
 1426 0030 7FD1     		bne	.L86
 233:Application/menu_task.c ****             break;
 234:Application/menu_task.c ****         osDelay(5);
 1427              		.loc 1 234 9 is_stmt 1 view .LVU324
 1428 0032 0520     		movs	r0, #5
 1429 0034 FFF7FEFF 		bl	osDelay
 1430              	.LVL126:
 1431              	.LBE19:
 209:Application/menu_task.c ****     {
 1432              		.loc 1 209 11 view .LVU325
 1433              	.L90:
 209:Application/menu_task.c ****     {
 1434              		.loc 1 209 5 view .LVU326
 1435              	.LBB20:
 211:Application/menu_task.c ****         char Tbuf[50];
 1436              		.loc 1 211 9 view .LVU327
 212:Application/menu_task.c ****         float Vref = (1.2 / ((float)rc->Vref / 4095));
 1437              		.loc 1 212 9 view .LVU328
 213:Application/menu_task.c ****         float temperature = ((1.34 - ((float)rc->temperature) * Vref / 4096) / 4.3) + 25.0;
 1438              		.loc 1 213 9 view .LVU329
 213:Application/menu_task.c ****         float temperature = ((1.34 - ((float)rc->temperature) * Vref / 4096) / 4.3) + 25.0;
 1439              		.loc 1 213 39 is_stmt 0 view .LVU330
 1440 0038 464F     		ldr	r7, .L93+28
 1441 003a 3D68     		ldr	r5, [r7]
 213:Application/menu_task.c ****         float temperature = ((1.34 - ((float)rc->temperature) * Vref / 4096) / 4.3) + 25.0;
 1442              		.loc 1 213 30 view .LVU331
 1443 003c A888     		ldrh	r0, [r5, #4]
 1444 003e FFF7FEFF 		bl	__aeabi_ui2f
 1445              	.LVL127:
 213:Application/menu_task.c ****         float temperature = ((1.34 - ((float)rc->temperature) * Vref / 4096) / 4.3) + 25.0;
 1446              		.loc 1 213 46 view .LVU332
 1447 0042 4549     		ldr	r1, .L93+32
 1448 0044 FFF7FEFF 		bl	__aeabi_fdiv
 1449              	.LVL128:
 1450 0048 FFF7FEFF 		bl	__aeabi_f2d
 1451              	.LVL129:
 1452 004c 0246     		mov	r2, r0
 1453 004e 0B46     		mov	r3, r1
 213:Application/menu_task.c ****         float temperature = ((1.34 - ((float)rc->temperature) * Vref / 4096) / 4.3) + 25.0;
 1454              		.loc 1 213 27 view .LVU333
 1455 0050 4FF03330 		mov	r0, #858993459
 1456 0054 4149     		ldr	r1, .L93+36
 1457 0056 FFF7FEFF 		bl	__aeabi_ddiv
 1458              	.LVL130:
 213:Application/menu_task.c ****         float temperature = ((1.34 - ((float)rc->temperature) * Vref / 4096) / 4.3) + 25.0;
 1459              		.loc 1 213 15 view .LVU334
 1460 005a FFF7FEFF 		bl	__aeabi_d2f
 1461              	.LVL131:
 1462 005e 0446     		mov	r4, r0
 1463              	.LVL132:
 214:Application/menu_task.c ****         int intValue = (int)Vref;
 1464              		.loc 1 214 9 is_stmt 1 view .LVU335
 214:Application/menu_task.c ****         int intValue = (int)Vref;
 1465              		.loc 1 214 39 is_stmt 0 view .LVU336
 1466 0060 E888     		ldrh	r0, [r5, #6]
ARM GAS  C:\Users\20398\AppData\Local\Temp\ccvHbV6X.s 			page 35


 1467              	.LVL133:
 214:Application/menu_task.c ****         int intValue = (int)Vref;
 1468              		.loc 1 214 39 view .LVU337
 1469 0062 FFF7FEFF 		bl	__aeabi_ui2f
 1470              	.LVL134:
 214:Application/menu_task.c ****         int intValue = (int)Vref;
 1471              		.loc 1 214 63 view .LVU338
 1472 0066 2146     		mov	r1, r4
 1473 0068 FFF7FEFF 		bl	__aeabi_fmul
 1474              	.LVL135:
 214:Application/menu_task.c ****         int intValue = (int)Vref;
 1475              		.loc 1 214 70 view .LVU339
 1476 006c 4FF06651 		mov	r1, #964689920
 1477 0070 FFF7FEFF 		bl	__aeabi_fmul
 1478              	.LVL136:
 1479 0074 FFF7FEFF 		bl	__aeabi_f2d
 1480              	.LVL137:
 1481 0078 0246     		mov	r2, r0
 1482 007a 0B46     		mov	r3, r1
 214:Application/menu_task.c ****         int intValue = (int)Vref;
 1483              		.loc 1 214 36 view .LVU340
 1484 007c 2EA1     		adr	r1, .L93
 1485 007e D1E90001 		ldrd	r0, [r1]
 1486 0082 FFF7FEFF 		bl	__aeabi_dsub
 1487              	.LVL138:
 214:Application/menu_task.c ****         int intValue = (int)Vref;
 1488              		.loc 1 214 78 view .LVU341
 1489 0086 2EA3     		adr	r3, .L93+8
 1490 0088 D3E90023 		ldrd	r2, [r3]
 1491 008c FFF7FEFF 		bl	__aeabi_ddiv
 1492              	.LVL139:
 214:Application/menu_task.c ****         int intValue = (int)Vref;
 1493              		.loc 1 214 85 view .LVU342
 1494 0090 0022     		movs	r2, #0
 1495 0092 334B     		ldr	r3, .L93+40
 1496 0094 FFF7FEFF 		bl	__aeabi_dadd
 1497              	.LVL140:
 214:Application/menu_task.c ****         int intValue = (int)Vref;
 1498              		.loc 1 214 15 view .LVU343
 1499 0098 FFF7FEFF 		bl	__aeabi_d2f
 1500              	.LVL141:
 1501 009c 0546     		mov	r5, r0
 1502              	.LVL142:
 215:Application/menu_task.c ****         float decimalValue = Vref - (float)intValue;
 1503              		.loc 1 215 9 is_stmt 1 view .LVU344
 215:Application/menu_task.c ****         float decimalValue = Vref - (float)intValue;
 1504              		.loc 1 215 13 is_stmt 0 view .LVU345
 1505 009e 2046     		mov	r0, r4
 1506              	.LVL143:
 215:Application/menu_task.c ****         float decimalValue = Vref - (float)intValue;
 1507              		.loc 1 215 13 view .LVU346
 1508 00a0 FFF7FEFF 		bl	__aeabi_f2iz
 1509              	.LVL144:
 1510 00a4 0646     		mov	r6, r0
 1511              	.LVL145:
 216:Application/menu_task.c ****         int decimalIntValue = (int)(decimalValue * 1000); // 保留两位小数
 1512              		.loc 1 216 9 is_stmt 1 view .LVU347
ARM GAS  C:\Users\20398\AppData\Local\Temp\ccvHbV6X.s 			page 36


 216:Application/menu_task.c ****         int decimalIntValue = (int)(decimalValue * 1000); // 保留两位小数
 1513              		.loc 1 216 37 is_stmt 0 view .LVU348
 1514 00a6 FFF7FEFF 		bl	__aeabi_i2f
 1515              	.LVL146:
 216:Application/menu_task.c ****         int decimalIntValue = (int)(decimalValue * 1000); // 保留两位小数
 1516              		.loc 1 216 37 view .LVU349
 1517 00aa 0146     		mov	r1, r0
 216:Application/menu_task.c ****         int decimalIntValue = (int)(decimalValue * 1000); // 保留两位小数
 1518              		.loc 1 216 15 view .LVU350
 1519 00ac 2046     		mov	r0, r4
 1520 00ae FFF7FEFF 		bl	__aeabi_fsub
 1521              	.LVL147:
 217:Application/menu_task.c ****         sprintf(Vbuf, "Vref=%d.%dV", intValue, decimalIntValue);
 1522              		.loc 1 217 9 is_stmt 1 view .LVU351
 217:Application/menu_task.c ****         sprintf(Vbuf, "Vref=%d.%dV", intValue, decimalIntValue);
 1523              		.loc 1 217 50 is_stmt 0 view .LVU352
 1524 00b2 2C49     		ldr	r1, .L93+44
 1525 00b4 FFF7FEFF 		bl	__aeabi_fmul
 1526              	.LVL148:
 217:Application/menu_task.c ****         sprintf(Vbuf, "Vref=%d.%dV", intValue, decimalIntValue);
 1527              		.loc 1 217 13 view .LVU353
 1528 00b8 FFF7FEFF 		bl	__aeabi_f2iz
 1529              	.LVL149:
 1530 00bc 0346     		mov	r3, r0
 1531              	.LVL150:
 218:Application/menu_task.c ****         intValue = (int)temperature;
 1532              		.loc 1 218 9 is_stmt 1 view .LVU354
 1533 00be 3246     		mov	r2, r6
 1534 00c0 2949     		ldr	r1, .L93+48
 1535 00c2 02A8     		add	r0, sp, #8
 1536              	.LVL151:
 218:Application/menu_task.c ****         intValue = (int)temperature;
 1537              		.loc 1 218 9 is_stmt 0 view .LVU355
 1538 00c4 FFF7FEFF 		bl	sprintf
 1539              	.LVL152:
 219:Application/menu_task.c ****         decimalValue = temperature - (float)intValue;
 1540              		.loc 1 219 9 is_stmt 1 view .LVU356
 219:Application/menu_task.c ****         decimalValue = temperature - (float)intValue;
 1541              		.loc 1 219 18 is_stmt 0 view .LVU357
 1542 00c8 2846     		mov	r0, r5
 1543 00ca FFF7FEFF 		bl	__aeabi_f2iz
 1544              	.LVL153:
 1545 00ce 0446     		mov	r4, r0
 1546              	.LVL154:
 220:Application/menu_task.c ****         decimalIntValue = (int)(decimalValue * 1000); // 保留两位小数
 1547              		.loc 1 220 9 is_stmt 1 view .LVU358
 220:Application/menu_task.c ****         decimalIntValue = (int)(decimalValue * 1000); // 保留两位小数
 1548              		.loc 1 220 38 is_stmt 0 view .LVU359
 1549 00d0 FFF7FEFF 		bl	__aeabi_i2f
 1550              	.LVL155:
 220:Application/menu_task.c ****         decimalIntValue = (int)(decimalValue * 1000); // 保留两位小数
 1551              		.loc 1 220 38 view .LVU360
 1552 00d4 0146     		mov	r1, r0
 220:Application/menu_task.c ****         decimalIntValue = (int)(decimalValue * 1000); // 保留两位小数
 1553              		.loc 1 220 22 view .LVU361
 1554 00d6 2846     		mov	r0, r5
 1555 00d8 FFF7FEFF 		bl	__aeabi_fsub
ARM GAS  C:\Users\20398\AppData\Local\Temp\ccvHbV6X.s 			page 37


 1556              	.LVL156:
 221:Application/menu_task.c ****         sprintf(Tbuf, "Temp=%d.%dC", intValue, decimalIntValue);
 1557              		.loc 1 221 9 is_stmt 1 view .LVU362
 221:Application/menu_task.c ****         sprintf(Tbuf, "Temp=%d.%dC", intValue, decimalIntValue);
 1558              		.loc 1 221 46 is_stmt 0 view .LVU363
 1559 00dc 2149     		ldr	r1, .L93+44
 1560 00de FFF7FEFF 		bl	__aeabi_fmul
 1561              	.LVL157:
 221:Application/menu_task.c ****         sprintf(Tbuf, "Temp=%d.%dC", intValue, decimalIntValue);
 1562              		.loc 1 221 25 view .LVU364
 1563 00e2 FFF7FEFF 		bl	__aeabi_f2iz
 1564              	.LVL158:
 1565 00e6 0346     		mov	r3, r0
 1566              	.LVL159:
 222:Application/menu_task.c ****         OLED_NewFrame();
 1567              		.loc 1 222 9 is_stmt 1 view .LVU365
 1568 00e8 2246     		mov	r2, r4
 1569 00ea 2049     		ldr	r1, .L93+52
 1570 00ec 0FA8     		add	r0, sp, #60
 1571              	.LVL160:
 222:Application/menu_task.c ****         OLED_NewFrame();
 1572              		.loc 1 222 9 is_stmt 0 view .LVU366
 1573 00ee FFF7FEFF 		bl	sprintf
 1574              	.LVL161:
 223:Application/menu_task.c ****         OLED_PrintASCIIString(5, 4, Vbuf, &afont16x8, 0);
 1575              		.loc 1 223 9 is_stmt 1 view .LVU367
 1576 00f2 FFF7FEFF 		bl	OLED_NewFrame
 1577              	.LVL162:
 224:Application/menu_task.c ****         OLED_PrintASCIIString(5, 24, Tbuf, &afont16x8, 0);
 1578              		.loc 1 224 9 view .LVU368
 1579 00f6 1E4C     		ldr	r4, .L93+56
 1580              	.LVL163:
 224:Application/menu_task.c ****         OLED_PrintASCIIString(5, 24, Tbuf, &afont16x8, 0);
 1581              		.loc 1 224 9 is_stmt 0 view .LVU369
 1582 00f8 0025     		movs	r5, #0
 1583              	.LVL164:
 224:Application/menu_task.c ****         OLED_PrintASCIIString(5, 24, Tbuf, &afont16x8, 0);
 1584              		.loc 1 224 9 view .LVU370
 1585 00fa 0095     		str	r5, [sp]
 1586 00fc 2346     		mov	r3, r4
 1587 00fe 02AA     		add	r2, sp, #8
 1588 0100 0421     		movs	r1, #4
 1589 0102 0520     		movs	r0, #5
 1590 0104 FFF7FEFF 		bl	OLED_PrintASCIIString
 1591              	.LVL165:
 225:Application/menu_task.c ****         if (rc->online)
 1592              		.loc 1 225 9 is_stmt 1 view .LVU371
 1593 0108 0095     		str	r5, [sp]
 1594 010a 2346     		mov	r3, r4
 1595 010c 0FAA     		add	r2, sp, #60
 1596 010e 1821     		movs	r1, #24
 1597 0110 0520     		movs	r0, #5
 1598 0112 FFF7FEFF 		bl	OLED_PrintASCIIString
 1599              	.LVL166:
 226:Application/menu_task.c ****             OLED_PrintASCIIString(5, 44, "ONLINE", &afont16x8, 0);
 1600              		.loc 1 226 9 view .LVU372
 226:Application/menu_task.c ****             OLED_PrintASCIIString(5, 44, "ONLINE", &afont16x8, 0);
ARM GAS  C:\Users\20398\AppData\Local\Temp\ccvHbV6X.s 			page 38


 1601              		.loc 1 226 15 is_stmt 0 view .LVU373
 1602 0116 3B68     		ldr	r3, [r7]
 1603 0118 1B7A     		ldrb	r3, [r3, #8]	@ zero_extendqisi2
 226:Application/menu_task.c ****             OLED_PrintASCIIString(5, 44, "ONLINE", &afont16x8, 0);
 1604              		.loc 1 226 12 view .LVU374
 1605 011a 002B     		cmp	r3, #0
 1606 011c 7FF473AF 		bne	.L92
 229:Application/menu_task.c ****         OLED_PrintASCIIString(72, 48, "By CAYON", &afont12x6, 0);
 1607              		.loc 1 229 13 is_stmt 1 view .LVU375
 1608 0120 0023     		movs	r3, #0
 1609 0122 0093     		str	r3, [sp]
 1610 0124 124B     		ldr	r3, .L93+56
 1611 0126 134A     		ldr	r2, .L93+60
 1612 0128 2C21     		movs	r1, #44
 1613 012a 0520     		movs	r0, #5
 1614 012c FFF7FEFF 		bl	OLED_PrintASCIIString
 1615              	.LVL167:
 1616 0130 70E7     		b	.L88
 1617              	.L86:
 1618              	.LBE20:
 235:Application/menu_task.c ****     }
 236:Application/menu_task.c **** }...
 1619              		.loc 1 236 1 is_stmt 0 view .LVU376
 1620 0132 1DB0     		add	sp, sp, #116
 1621              	.LCFI16:
 1622              		.cfi_def_cfa_offset 20
 1623              		@ sp needed
 1624 0134 F0BD     		pop	{r4, r5, r6, r7, pc}
 1625              	.L94:
 1626 0136 00BF     		.align	3
 1627              	.L93:
 1628 0138 713D0AD7 		.word	-687194767
 1629 013c A370F53F 		.word	1073049763
 1630 0140 33333333 		.word	858993459
 1631 0144 33331140 		.word	1074869043
 1632 0148 18000000 		.word	.LC9
 1633 014c 00000000 		.word	afont12x6
 1634 0150 28000000 		.word	.LC11
 1635 0154 00000000 		.word	.LANCHOR0
 1636 0158 00F07F45 		.word	1166012416
 1637 015c 3333F33F 		.word	1072902963
 1638 0160 00003940 		.word	1077477376
 1639 0164 00007A44 		.word	1148846080
 1640 0168 00000000 		.word	.LC7
 1641 016c 0C000000 		.word	.LC8
 1642 0170 00000000 		.word	afont16x8
 1643 0174 20000000 		.word	.LC10
 1644              		.cfi_endproc
 1645              	.LFE79:
 1647              		.global	rc
 1648              		.section	.bss.adc_cnt.2,"aw",%nobits
 1649              		.align	1
 1650              		.set	.LANCHOR2,. + 0
 1653              	adc_cnt.2:
 1654 0000 0000     		.space	2
 1655              		.section	.bss.adc_sum.1,"aw",%nobits
 1656              		.align	2
ARM GAS  C:\Users\20398\AppData\Local\Temp\ccvHbV6X.s 			page 39


 1657              		.set	.LANCHOR3,. + 0
 1660              	adc_sum.1:
 1661 0000 00000000 		.space	24
 1661      00000000 
 1661      00000000 
 1661      00000000 
 1661      00000000 
 1662              		.section	.bss.rc,"aw",%nobits
 1663              		.align	2
 1664              		.set	.LANCHOR0,. + 0
 1667              	rc:
 1668 0000 00000000 		.space	4
 1669              		.section	.bss.state.3,"aw",%nobits
 1670              		.set	.LANCHOR1,. + 0
 1673              	state.3:
 1674 0000 00       		.space	1
 1675              		.section	.data.rank_img.0,"aw"
 1676              		.set	.LANCHOR4,. + 0
 1679              	rank_img.0:
 1680 0000 05       		.byte	5
 1681              		.text
 1682              	.Letext0:
 1683              		.file 2 "e:\\ace2025\\enviroment\\gcc-arm-none-eabi-10.3-2021.10-win32\\arm-gnu-toolchian\\arm-non
 1684              		.file 3 "e:\\ace2025\\enviroment\\gcc-arm-none-eabi-10.3-2021.10-win32\\arm-gnu-toolchian\\arm-non
 1685              		.file 4 "Modules/font.h"
 1686              		.file 5 "Application/remote.h"
 1687              		.file 6 "Modules/oled.h"
 1688              		.file 7 "Application/MENU.h"
 1689              		.file 8 "Middlewares/Third_Party/FreeRTOS/Source/CMSIS_RTOS/cmsis_os.h"
 1690              		.file 9 "e:\\ace2025\\enviroment\\gcc-arm-none-eabi-10.3-2021.10-win32\\arm-gnu-toolchian\\arm-non
 1691              		.file 10 "Modules/flash.h"
ARM GAS  C:\Users\20398\AppData\Local\Temp\ccvHbV6X.s 			page 40

