ARM GAS  C:\Users\20398\AppData\Local\Temp\cctPfsh1.s 			page 1


   1              		.cpu cortex-m3
   2              		.arch armv7-m
   3              		.fpu softvfp
   4              		.eabi_attribute 20, 1
   5              		.eabi_attribute 21, 1
   6              		.eabi_attribute 23, 3
   7              		.eabi_attribute 24, 1
   8              		.eabi_attribute 25, 1
   9              		.eabi_attribute 26, 1
  10              		.eabi_attribute 30, 1
  11              		.eabi_attribute 34, 1
  12              		.eabi_attribute 18, 4
  13              		.file	"nrf24l01.c"
  14              		.text
  15              	.Ltext0:
  16              		.cfi_sections	.debug_frame
  17              		.section	.text.NRF24L01_SPI_Send_Byte,"ax",%progbits
  18              		.align	1
  19              		.syntax unified
  20              		.thumb
  21              		.thumb_func
  23              	NRF24L01_SPI_Send_Byte:
  24              	.LVL0:
  25              	.LFB66:
  26              		.file 1 "Modules/nrf24l01.c"
   1:Modules/nrf24l01.c **** #include "nrf24l01.h"
   2:Modules/nrf24l01.c **** 
   3:Modules/nrf24l01.c **** uint8_t INIT_ADDR[5] = {0x00, 0x1A, 0xB1, 0xB1, 0x01}; // ËäÇÁÇπÂú∞ÂùÄ
   4:Modules/nrf24l01.c **** 
   5:Modules/nrf24l01.c **** void NRF24L01_Init(void)
   6:Modules/nrf24l01.c **** {
   7:Modules/nrf24l01.c ****     DWT_Init(72);
   8:Modules/nrf24l01.c ****     Clr_NRF24L01_CE;
   9:Modules/nrf24l01.c ****     Set_NRF24L01_CSN;
  10:Modules/nrf24l01.c ****     DWT_Delay(100 * 1e-6);
  11:Modules/nrf24l01.c **** }
  12:Modules/nrf24l01.c **** 
  13:Modules/nrf24l01.c **** // spiÂçïÂ≠óËäÇËØªÂÜôÂáΩÊï∞
  14:Modules/nrf24l01.c **** static uint8_t NRF24L01_SPI_Send_Byte(uint8_t txdata)
  15:Modules/nrf24l01.c **** {
  27              		.loc 1 15 1 view -0
  28              		.cfi_startproc
  29              		@ args = 0, pretend = 0, frame = 16
  30              		@ frame_needed = 0, uses_anonymous_args = 0
  31              		.loc 1 15 1 is_stmt 0 view .LVU1
  32 0000 00B5     		push	{lr}
  33              	.LCFI0:
  34              		.cfi_def_cfa_offset 4
  35              		.cfi_offset 14, -4
  36 0002 87B0     		sub	sp, sp, #28
  37              	.LCFI1:
  38              		.cfi_def_cfa_offset 32
  39 0004 8DF80F00 		strb	r0, [sp, #15]
  16:Modules/nrf24l01.c ****     uint8_t rxdata;
  40              		.loc 1 16 5 is_stmt 1 view .LVU2
  17:Modules/nrf24l01.c ****     HAL_SPI_TransmitReceive(&hspi1, &txdata, &rxdata, 1, 0x10);
  41              		.loc 1 17 5 view .LVU3
ARM GAS  C:\Users\20398\AppData\Local\Temp\cctPfsh1.s 			page 2


  42 0008 1023     		movs	r3, #16
  43 000a 0093     		str	r3, [sp]
  44 000c 0123     		movs	r3, #1
  45 000e 0DF11702 		add	r2, sp, #23
  46 0012 0DF10F01 		add	r1, sp, #15
  47 0016 0448     		ldr	r0, .L3
  48              	.LVL1:
  49              		.loc 1 17 5 is_stmt 0 view .LVU4
  50 0018 FFF7FEFF 		bl	HAL_SPI_TransmitReceive
  51              	.LVL2:
  18:Modules/nrf24l01.c ****     return rxdata;
  52              		.loc 1 18 5 is_stmt 1 view .LVU5
  19:Modules/nrf24l01.c **** }
  53              		.loc 1 19 1 is_stmt 0 view .LVU6
  54 001c 9DF81700 		ldrb	r0, [sp, #23]	@ zero_extendqisi2
  55 0020 07B0     		add	sp, sp, #28
  56              	.LCFI2:
  57              		.cfi_def_cfa_offset 4
  58              		@ sp needed
  59 0022 5DF804FB 		ldr	pc, [sp], #4
  60              	.L4:
  61 0026 00BF     		.align	2
  62              	.L3:
  63 0028 00000000 		.word	hspi1
  64              		.cfi_endproc
  65              	.LFE66:
  67              		.section	.text.NRF24L01_Write_Buf,"ax",%progbits
  68              		.align	1
  69              		.syntax unified
  70              		.thumb
  71              		.thumb_func
  73              	NRF24L01_Write_Buf:
  74              	.LVL3:
  75              	.LFB67:
  20:Modules/nrf24l01.c **** 
  21:Modules/nrf24l01.c **** /**
  22:Modules/nrf24l01.c ****  * @brief Âú®ÊåáÂÆöÂú∞ÂùÄÂÜôÂÖ•ÊåáÂÆöÊï∞ÊçÆSPIÂ∞ÅË£ÖÂáΩÊï∞
  23:Modules/nrf24l01.c ****  *
  24:Modules/nrf24l01.c ****  * @param regaddr Âú∞ÂùÄ
  25:Modules/nrf24l01.c ****  * @param pBuf Êï∞ÊçÆ
  26:Modules/nrf24l01.c ****  * @param datalen ÈïøÂ∫¶
  27:Modules/nrf24l01.c ****  * @return uint8_t  Ê≠§Ê¨°Âú∞ÂùÄËØªÂà∞ÁöÑÁä∂ÊÄÅÂØÑÂ≠òÂô®ÂÄº
  28:Modules/nrf24l01.c ****  */
  29:Modules/nrf24l01.c **** static uint8_t NRF24L01_Write_Buf(uint8_t regaddr, uint8_t *pBuf, uint8_t datalen)
  30:Modules/nrf24l01.c **** {
  76              		.loc 1 30 1 is_stmt 1 view -0
  77              		.cfi_startproc
  78              		@ args = 0, pretend = 0, frame = 0
  79              		@ frame_needed = 0, uses_anonymous_args = 0
  80              		.loc 1 30 1 is_stmt 0 view .LVU8
  81 0000 F8B5     		push	{r3, r4, r5, r6, r7, lr}
  82              	.LCFI3:
  83              		.cfi_def_cfa_offset 24
  84              		.cfi_offset 3, -24
  85              		.cfi_offset 4, -20
  86              		.cfi_offset 5, -16
  87              		.cfi_offset 6, -12
ARM GAS  C:\Users\20398\AppData\Local\Temp\cctPfsh1.s 			page 3


  88              		.cfi_offset 7, -8
  89              		.cfi_offset 14, -4
  90 0002 0446     		mov	r4, r0
  91 0004 0D46     		mov	r5, r1
  92 0006 1646     		mov	r6, r2
  31:Modules/nrf24l01.c ****     uint8_t status;
  93              		.loc 1 31 5 is_stmt 1 view .LVU9
  32:Modules/nrf24l01.c ****     Clr_NRF24L01_CSN;                              // ÁâáÈÄâNRF24L01 SPI
  94              		.loc 1 32 5 view .LVU10
  95 0008 0C4F     		ldr	r7, .L7
  96 000a 0022     		movs	r2, #0
  97              	.LVL4:
  98              		.loc 1 32 5 is_stmt 0 view .LVU11
  99 000c 4FF48061 		mov	r1, #1024
 100              	.LVL5:
 101              		.loc 1 32 5 view .LVU12
 102 0010 3846     		mov	r0, r7
 103              	.LVL6:
 104              		.loc 1 32 5 view .LVU13
 105 0012 FFF7FEFF 		bl	HAL_GPIO_WritePin
 106              	.LVL7:
  33:Modules/nrf24l01.c ****     status = NRF24L01_SPI_Send_Byte(regaddr);      // ÊåáÂÆöÂú∞ÂùÄ
 107              		.loc 1 33 5 is_stmt 1 view .LVU14
 108              		.loc 1 33 14 is_stmt 0 view .LVU15
 109 0016 2046     		mov	r0, r4
 110 0018 FFF7FEFF 		bl	NRF24L01_SPI_Send_Byte
 111              	.LVL8:
 112 001c 0446     		mov	r4, r0
 113              	.LVL9:
  34:Modules/nrf24l01.c ****     HAL_SPI_Transmit(&hspi1, pBuf, datalen, 0x10); // ÊåáÂÆöÊï∞ÊçÆ
 114              		.loc 1 34 5 is_stmt 1 view .LVU16
 115 001e 1023     		movs	r3, #16
 116 0020 3246     		mov	r2, r6
 117 0022 2946     		mov	r1, r5
 118 0024 0648     		ldr	r0, .L7+4
 119 0026 FFF7FEFF 		bl	HAL_SPI_Transmit
 120              	.LVL10:
  35:Modules/nrf24l01.c ****     Set_NRF24L01_CSN;
 121              		.loc 1 35 5 view .LVU17
 122 002a 0122     		movs	r2, #1
 123 002c 4FF48061 		mov	r1, #1024
 124 0030 3846     		mov	r0, r7
 125 0032 FFF7FEFF 		bl	HAL_GPIO_WritePin
 126              	.LVL11:
  36:Modules/nrf24l01.c ****     return status;
 127              		.loc 1 36 5 view .LVU18
  37:Modules/nrf24l01.c **** }
 128              		.loc 1 37 1 is_stmt 0 view .LVU19
 129 0036 2046     		mov	r0, r4
 130 0038 F8BD     		pop	{r3, r4, r5, r6, r7, pc}
 131              	.LVL12:
 132              	.L8:
 133              		.loc 1 37 1 view .LVU20
 134 003a 00BF     		.align	2
 135              	.L7:
 136 003c 00080140 		.word	1073809408
 137 0040 00000000 		.word	hspi1
ARM GAS  C:\Users\20398\AppData\Local\Temp\cctPfsh1.s 			page 4


 138              		.cfi_endproc
 139              	.LFE67:
 141              		.section	.text.NRF24L01_Write_Reg,"ax",%progbits
 142              		.align	1
 143              		.syntax unified
 144              		.thumb
 145              		.thumb_func
 147              	NRF24L01_Write_Reg:
 148              	.LVL13:
 149              	.LFB70:
  38:Modules/nrf24l01.c **** 
  39:Modules/nrf24l01.c **** /**
  40:Modules/nrf24l01.c ****  * @brief Âú®ÊåáÂÆöÂú∞ÂùÄËØªÂá∫ÊåáÂÆöÈïøÂ∫¶Êï∞ÊçÆSPIÂ∞ÅË£ÖÂáΩÊï∞
  41:Modules/nrf24l01.c ****  *
  42:Modules/nrf24l01.c ****  * @param regaddr Âú∞ÂùÄ
  43:Modules/nrf24l01.c ****  * @param pBuf Êï∞ÊçÆ
  44:Modules/nrf24l01.c ****  * @param datalen ÈïøÂ∫¶
  45:Modules/nrf24l01.c ****  * @return uint8_t  Ê≠§Ê¨°Âú∞ÂùÄËØªÂà∞ÁöÑÁä∂ÊÄÅÂØÑÂ≠òÂô®ÂÄº
  46:Modules/nrf24l01.c ****  */
  47:Modules/nrf24l01.c **** static uint8_t NRF24L01_Read_Buf(uint8_t regaddr, uint8_t *pBuf, uint8_t datalen)
  48:Modules/nrf24l01.c **** {
  49:Modules/nrf24l01.c ****     uint8_t status;
  50:Modules/nrf24l01.c ****     Clr_NRF24L01_CSN;                             // ÁâáÈÄâNRF24L01 SPI
  51:Modules/nrf24l01.c ****     status = NRF24L01_SPI_Send_Byte(regaddr);     // ÊåáÂÆöÂú∞ÂùÄ
  52:Modules/nrf24l01.c ****     HAL_SPI_Receive(&hspi1, pBuf, datalen, 0x10); // ÊåáÂÆöÊï∞ÊçÆ
  53:Modules/nrf24l01.c ****     Set_NRF24L01_CSN;
  54:Modules/nrf24l01.c ****     return status;
  55:Modules/nrf24l01.c **** }
  56:Modules/nrf24l01.c **** 
  57:Modules/nrf24l01.c **** /**
  58:Modules/nrf24l01.c ****  * @brief Ê£ÄÊµãNRF24L01ÈÄöËÆØÊòØÂê¶Ê≠£Â∏∏
  59:Modules/nrf24l01.c ****  *
  60:Modules/nrf24l01.c ****  * @return uint8_t 1ÔºöÈÄö‰ø°Ê≠£Â∏∏Ôºõ0ÈÄö‰ø°ÂºÇÂ∏∏
  61:Modules/nrf24l01.c ****  */
  62:Modules/nrf24l01.c **** uint8_t NRF24L01_Check(void)
  63:Modules/nrf24l01.c **** {
  64:Modules/nrf24l01.c ****     uint8_t buf[5] = {0xA5, 0xA5, 0xA5, 0xA5, 0xA5};
  65:Modules/nrf24l01.c ****     uint8_t buf_back[5];
  66:Modules/nrf24l01.c ****     NRF24L01_Write_Buf(SPI_WRITE_REG + TX_ADDR, buf, 5);
  67:Modules/nrf24l01.c ****     NRF24L01_Read_Buf(TX_ADDR, buf_back, 5);
  68:Modules/nrf24l01.c ****     for (int i = 0; i < 5; i++)
  69:Modules/nrf24l01.c ****         if (buf_back[i] != 0xA5)
  70:Modules/nrf24l01.c ****             return 0; // Ê£ÄÊµã24L01ËØªÂÜôÈîôËØØ
  71:Modules/nrf24l01.c ****     return 1;
  72:Modules/nrf24l01.c **** }
  73:Modules/nrf24l01.c **** 
  74:Modules/nrf24l01.c **** /**
  75:Modules/nrf24l01.c ****  * @brief ÂØπNRF24L01ÁöÑÂØÑÂ≠òÂô®ÂÜôÂÖ•Êï∞ÊçÆ
  76:Modules/nrf24l01.c ****  *
  77:Modules/nrf24l01.c ****  * @param regaddr
  78:Modules/nrf24l01.c ****  * @param data
  79:Modules/nrf24l01.c ****  * @return uint8_t
  80:Modules/nrf24l01.c ****  */
  81:Modules/nrf24l01.c **** static uint8_t NRF24L01_Write_Reg(uint8_t regaddr, uint8_t data)
  82:Modules/nrf24l01.c **** {
 150              		.loc 1 82 1 is_stmt 1 view -0
 151              		.cfi_startproc
ARM GAS  C:\Users\20398\AppData\Local\Temp\cctPfsh1.s 			page 5


 152              		@ args = 0, pretend = 0, frame = 0
 153              		@ frame_needed = 0, uses_anonymous_args = 0
 154              		.loc 1 82 1 is_stmt 0 view .LVU22
 155 0000 70B5     		push	{r4, r5, r6, lr}
 156              	.LCFI4:
 157              		.cfi_def_cfa_offset 16
 158              		.cfi_offset 4, -16
 159              		.cfi_offset 5, -12
 160              		.cfi_offset 6, -8
 161              		.cfi_offset 14, -4
 162 0002 0446     		mov	r4, r0
 163 0004 0D46     		mov	r5, r1
  83:Modules/nrf24l01.c ****     uint8_t status;
 164              		.loc 1 83 5 is_stmt 1 view .LVU23
  84:Modules/nrf24l01.c ****     Clr_NRF24L01_CSN;
 165              		.loc 1 84 5 view .LVU24
 166 0006 0B4E     		ldr	r6, .L11
 167 0008 0022     		movs	r2, #0
 168 000a 4FF48061 		mov	r1, #1024
 169              	.LVL14:
 170              		.loc 1 84 5 is_stmt 0 view .LVU25
 171 000e 3046     		mov	r0, r6
 172              	.LVL15:
 173              		.loc 1 84 5 view .LVU26
 174 0010 FFF7FEFF 		bl	HAL_GPIO_WritePin
 175              	.LVL16:
  85:Modules/nrf24l01.c ****     status = NRF24L01_SPI_Send_Byte(regaddr); // ÁõÆÊ†áÂú∞ÂùÄ
 176              		.loc 1 85 5 is_stmt 1 view .LVU27
 177              		.loc 1 85 14 is_stmt 0 view .LVU28
 178 0014 2046     		mov	r0, r4
 179 0016 FFF7FEFF 		bl	NRF24L01_SPI_Send_Byte
 180              	.LVL17:
 181 001a 0446     		mov	r4, r0
 182              	.LVL18:
  86:Modules/nrf24l01.c ****     NRF24L01_SPI_Send_Byte(data);             // ÂÜôÂÖ•Êï∞ÊçÆ
 183              		.loc 1 86 5 is_stmt 1 view .LVU29
 184 001c 2846     		mov	r0, r5
 185 001e FFF7FEFF 		bl	NRF24L01_SPI_Send_Byte
 186              	.LVL19:
  87:Modules/nrf24l01.c ****     Set_NRF24L01_CSN;
 187              		.loc 1 87 5 view .LVU30
 188 0022 0122     		movs	r2, #1
 189 0024 4FF48061 		mov	r1, #1024
 190 0028 3046     		mov	r0, r6
 191 002a FFF7FEFF 		bl	HAL_GPIO_WritePin
 192              	.LVL20:
  88:Modules/nrf24l01.c ****     return status;
 193              		.loc 1 88 5 view .LVU31
  89:Modules/nrf24l01.c **** }
 194              		.loc 1 89 1 is_stmt 0 view .LVU32
 195 002e 2046     		mov	r0, r4
 196 0030 70BD     		pop	{r4, r5, r6, pc}
 197              	.LVL21:
 198              	.L12:
 199              		.loc 1 89 1 view .LVU33
 200 0032 00BF     		.align	2
 201              	.L11:
ARM GAS  C:\Users\20398\AppData\Local\Temp\cctPfsh1.s 			page 6


 202 0034 00080140 		.word	1073809408
 203              		.cfi_endproc
 204              	.LFE70:
 206              		.section	.text.NRF24L01_Read_Reg,"ax",%progbits
 207              		.align	1
 208              		.syntax unified
 209              		.thumb
 210              		.thumb_func
 212              	NRF24L01_Read_Reg:
 213              	.LVL22:
 214              	.LFB71:
  90:Modules/nrf24l01.c **** 
  91:Modules/nrf24l01.c **** /**
  92:Modules/nrf24l01.c ****  * @brief ËøîÂõûNRF24L01ÂØπÂ∫îÂØÑÂ≠òÂô®ÁöÑÂÄº
  93:Modules/nrf24l01.c ****  *
  94:Modules/nrf24l01.c ****  * @param regaddr ÈúÄË¶ÅËØªÂèñÁöÑÂØÑÂ≠òÂô®Âú∞ÂùÄ
  95:Modules/nrf24l01.c ****  * @return uint8_t
  96:Modules/nrf24l01.c ****  */
  97:Modules/nrf24l01.c **** static uint8_t NRF24L01_Read_Reg(uint8_t regaddr)
  98:Modules/nrf24l01.c **** {
 215              		.loc 1 98 1 is_stmt 1 view -0
 216              		.cfi_startproc
 217              		@ args = 0, pretend = 0, frame = 0
 218              		@ frame_needed = 0, uses_anonymous_args = 0
 219              		.loc 1 98 1 is_stmt 0 view .LVU35
 220 0000 38B5     		push	{r3, r4, r5, lr}
 221              	.LCFI5:
 222              		.cfi_def_cfa_offset 16
 223              		.cfi_offset 3, -16
 224              		.cfi_offset 4, -12
 225              		.cfi_offset 5, -8
 226              		.cfi_offset 14, -4
 227 0002 0446     		mov	r4, r0
  99:Modules/nrf24l01.c ****     uint8_t reg_val;
 228              		.loc 1 99 5 is_stmt 1 view .LVU36
 100:Modules/nrf24l01.c ****     Clr_NRF24L01_CSN;
 229              		.loc 1 100 5 view .LVU37
 230 0004 0A4D     		ldr	r5, .L15
 231 0006 0022     		movs	r2, #0
 232 0008 4FF48061 		mov	r1, #1024
 233 000c 2846     		mov	r0, r5
 234              	.LVL23:
 235              		.loc 1 100 5 is_stmt 0 view .LVU38
 236 000e FFF7FEFF 		bl	HAL_GPIO_WritePin
 237              	.LVL24:
 101:Modules/nrf24l01.c ****     NRF24L01_SPI_Send_Byte(regaddr);
 238              		.loc 1 101 5 is_stmt 1 view .LVU39
 239 0012 2046     		mov	r0, r4
 240 0014 FFF7FEFF 		bl	NRF24L01_SPI_Send_Byte
 241              	.LVL25:
 102:Modules/nrf24l01.c ****     reg_val = NRF24L01_SPI_Send_Byte(0xFF);
 242              		.loc 1 102 5 view .LVU40
 243              		.loc 1 102 15 is_stmt 0 view .LVU41
 244 0018 FF20     		movs	r0, #255
 245 001a FFF7FEFF 		bl	NRF24L01_SPI_Send_Byte
 246              	.LVL26:
 247 001e 0446     		mov	r4, r0
ARM GAS  C:\Users\20398\AppData\Local\Temp\cctPfsh1.s 			page 7


 248              	.LVL27:
 103:Modules/nrf24l01.c ****     Set_NRF24L01_CSN;
 249              		.loc 1 103 5 is_stmt 1 view .LVU42
 250 0020 0122     		movs	r2, #1
 251 0022 4FF48061 		mov	r1, #1024
 252 0026 2846     		mov	r0, r5
 253 0028 FFF7FEFF 		bl	HAL_GPIO_WritePin
 254              	.LVL28:
 104:Modules/nrf24l01.c ****     return reg_val;
 255              		.loc 1 104 5 view .LVU43
 105:Modules/nrf24l01.c **** }
 256              		.loc 1 105 1 is_stmt 0 view .LVU44
 257 002c 2046     		mov	r0, r4
 258 002e 38BD     		pop	{r3, r4, r5, pc}
 259              	.LVL29:
 260              	.L16:
 261              		.loc 1 105 1 view .LVU45
 262              		.align	2
 263              	.L15:
 264 0030 00080140 		.word	1073809408
 265              		.cfi_endproc
 266              	.LFE71:
 268              		.section	.text.NRF24L01_Read_Buf,"ax",%progbits
 269              		.align	1
 270              		.syntax unified
 271              		.thumb
 272              		.thumb_func
 274              	NRF24L01_Read_Buf:
 275              	.LVL30:
 276              	.LFB68:
  48:Modules/nrf24l01.c ****     uint8_t status;
 277              		.loc 1 48 1 is_stmt 1 view -0
 278              		.cfi_startproc
 279              		@ args = 0, pretend = 0, frame = 0
 280              		@ frame_needed = 0, uses_anonymous_args = 0
  48:Modules/nrf24l01.c ****     uint8_t status;
 281              		.loc 1 48 1 is_stmt 0 view .LVU47
 282 0000 F8B5     		push	{r3, r4, r5, r6, r7, lr}
 283              	.LCFI6:
 284              		.cfi_def_cfa_offset 24
 285              		.cfi_offset 3, -24
 286              		.cfi_offset 4, -20
 287              		.cfi_offset 5, -16
 288              		.cfi_offset 6, -12
 289              		.cfi_offset 7, -8
 290              		.cfi_offset 14, -4
 291 0002 0446     		mov	r4, r0
 292 0004 0D46     		mov	r5, r1
 293 0006 1646     		mov	r6, r2
  49:Modules/nrf24l01.c ****     Clr_NRF24L01_CSN;                             // ÁâáÈÄâNRF24L01 SPI
 294              		.loc 1 49 5 is_stmt 1 view .LVU48
  50:Modules/nrf24l01.c ****     status = NRF24L01_SPI_Send_Byte(regaddr);     // ÊåáÂÆöÂú∞ÂùÄ
 295              		.loc 1 50 5 view .LVU49
 296 0008 0C4F     		ldr	r7, .L19
 297 000a 0022     		movs	r2, #0
 298              	.LVL31:
  50:Modules/nrf24l01.c ****     status = NRF24L01_SPI_Send_Byte(regaddr);     // ÊåáÂÆöÂú∞ÂùÄ
ARM GAS  C:\Users\20398\AppData\Local\Temp\cctPfsh1.s 			page 8


 299              		.loc 1 50 5 is_stmt 0 view .LVU50
 300 000c 4FF48061 		mov	r1, #1024
 301              	.LVL32:
  50:Modules/nrf24l01.c ****     status = NRF24L01_SPI_Send_Byte(regaddr);     // ÊåáÂÆöÂú∞ÂùÄ
 302              		.loc 1 50 5 view .LVU51
 303 0010 3846     		mov	r0, r7
 304              	.LVL33:
  50:Modules/nrf24l01.c ****     status = NRF24L01_SPI_Send_Byte(regaddr);     // ÊåáÂÆöÂú∞ÂùÄ
 305              		.loc 1 50 5 view .LVU52
 306 0012 FFF7FEFF 		bl	HAL_GPIO_WritePin
 307              	.LVL34:
  51:Modules/nrf24l01.c ****     HAL_SPI_Receive(&hspi1, pBuf, datalen, 0x10); // ÊåáÂÆöÊï∞ÊçÆ
 308              		.loc 1 51 5 is_stmt 1 view .LVU53
  51:Modules/nrf24l01.c ****     HAL_SPI_Receive(&hspi1, pBuf, datalen, 0x10); // ÊåáÂÆöÊï∞ÊçÆ
 309              		.loc 1 51 14 is_stmt 0 view .LVU54
 310 0016 2046     		mov	r0, r4
 311 0018 FFF7FEFF 		bl	NRF24L01_SPI_Send_Byte
 312              	.LVL35:
 313 001c 0446     		mov	r4, r0
 314              	.LVL36:
  52:Modules/nrf24l01.c ****     Set_NRF24L01_CSN;
 315              		.loc 1 52 5 is_stmt 1 view .LVU55
 316 001e 1023     		movs	r3, #16
 317 0020 3246     		mov	r2, r6
 318 0022 2946     		mov	r1, r5
 319 0024 0648     		ldr	r0, .L19+4
 320 0026 FFF7FEFF 		bl	HAL_SPI_Receive
 321              	.LVL37:
  53:Modules/nrf24l01.c ****     return status;
 322              		.loc 1 53 5 view .LVU56
 323 002a 0122     		movs	r2, #1
 324 002c 4FF48061 		mov	r1, #1024
 325 0030 3846     		mov	r0, r7
 326 0032 FFF7FEFF 		bl	HAL_GPIO_WritePin
 327              	.LVL38:
  54:Modules/nrf24l01.c **** }
 328              		.loc 1 54 5 view .LVU57
  55:Modules/nrf24l01.c **** 
 329              		.loc 1 55 1 is_stmt 0 view .LVU58
 330 0036 2046     		mov	r0, r4
 331 0038 F8BD     		pop	{r3, r4, r5, r6, r7, pc}
 332              	.LVL39:
 333              	.L20:
  55:Modules/nrf24l01.c **** 
 334              		.loc 1 55 1 view .LVU59
 335 003a 00BF     		.align	2
 336              	.L19:
 337 003c 00080140 		.word	1073809408
 338 0040 00000000 		.word	hspi1
 339              		.cfi_endproc
 340              	.LFE68:
 342              		.section	.text.NRF24L01_Init,"ax",%progbits
 343              		.align	1
 344              		.global	NRF24L01_Init
 345              		.syntax unified
 346              		.thumb
 347              		.thumb_func
ARM GAS  C:\Users\20398\AppData\Local\Temp\cctPfsh1.s 			page 9


 349              	NRF24L01_Init:
 350              	.LFB65:
   6:Modules/nrf24l01.c ****     DWT_Init(72);
 351              		.loc 1 6 1 is_stmt 1 view -0
 352              		.cfi_startproc
 353              		@ args = 0, pretend = 0, frame = 0
 354              		@ frame_needed = 0, uses_anonymous_args = 0
 355 0000 10B5     		push	{r4, lr}
 356              	.LCFI7:
 357              		.cfi_def_cfa_offset 8
 358              		.cfi_offset 4, -8
 359              		.cfi_offset 14, -4
   7:Modules/nrf24l01.c ****     Clr_NRF24L01_CE;
 360              		.loc 1 7 5 view .LVU61
 361 0002 4820     		movs	r0, #72
 362 0004 FFF7FEFF 		bl	DWT_Init
 363              	.LVL40:
   8:Modules/nrf24l01.c ****     Set_NRF24L01_CSN;
 364              		.loc 1 8 5 view .LVU62
 365 0008 074C     		ldr	r4, .L23
 366 000a 0022     		movs	r2, #0
 367 000c 1021     		movs	r1, #16
 368 000e 2046     		mov	r0, r4
 369 0010 FFF7FEFF 		bl	HAL_GPIO_WritePin
 370              	.LVL41:
   9:Modules/nrf24l01.c ****     DWT_Delay(100 * 1e-6);
 371              		.loc 1 9 5 view .LVU63
 372 0014 0122     		movs	r2, #1
 373 0016 4FF48061 		mov	r1, #1024
 374 001a 2046     		mov	r0, r4
 375 001c FFF7FEFF 		bl	HAL_GPIO_WritePin
 376              	.LVL42:
  10:Modules/nrf24l01.c **** }
 377              		.loc 1 10 5 view .LVU64
 378 0020 0248     		ldr	r0, .L23+4
 379 0022 FFF7FEFF 		bl	DWT_Delay
 380              	.LVL43:
  11:Modules/nrf24l01.c **** 
 381              		.loc 1 11 1 is_stmt 0 view .LVU65
 382 0026 10BD     		pop	{r4, pc}
 383              	.L24:
 384              		.align	2
 385              	.L23:
 386 0028 00080140 		.word	1073809408
 387 002c 17B7D138 		.word	953267991
 388              		.cfi_endproc
 389              	.LFE65:
 391              		.section	.rodata.NRF24L01_Check.str1.4,"aMS",%progbits,1
 392              		.align	2
 393              	.LC0:
 394 0000 A5A5A5A5 		.ascii	"\245\245\245\245\245\000"
 394      A500
 395              		.section	.text.NRF24L01_Check,"ax",%progbits
 396              		.align	1
 397              		.global	NRF24L01_Check
 398              		.syntax unified
 399              		.thumb
ARM GAS  C:\Users\20398\AppData\Local\Temp\cctPfsh1.s 			page 10


 400              		.thumb_func
 402              	NRF24L01_Check:
 403              	.LFB69:
  63:Modules/nrf24l01.c ****     uint8_t buf[5] = {0xA5, 0xA5, 0xA5, 0xA5, 0xA5};
 404              		.loc 1 63 1 is_stmt 1 view -0
 405              		.cfi_startproc
 406              		@ args = 0, pretend = 0, frame = 16
 407              		@ frame_needed = 0, uses_anonymous_args = 0
 408 0000 00B5     		push	{lr}
 409              	.LCFI8:
 410              		.cfi_def_cfa_offset 4
 411              		.cfi_offset 14, -4
 412 0002 85B0     		sub	sp, sp, #20
 413              	.LCFI9:
 414              		.cfi_def_cfa_offset 24
  64:Modules/nrf24l01.c ****     uint8_t buf_back[5];
 415              		.loc 1 64 5 view .LVU67
  64:Modules/nrf24l01.c ****     uint8_t buf_back[5];
 416              		.loc 1 64 13 is_stmt 0 view .LVU68
 417 0004 104B     		ldr	r3, .L32
 418 0006 93E80300 		ldm	r3, {r0, r1}
 419 000a 0290     		str	r0, [sp, #8]
 420 000c 8DF80C10 		strb	r1, [sp, #12]
  65:Modules/nrf24l01.c ****     NRF24L01_Write_Buf(SPI_WRITE_REG + TX_ADDR, buf, 5);
 421              		.loc 1 65 5 is_stmt 1 view .LVU69
  66:Modules/nrf24l01.c ****     NRF24L01_Read_Buf(TX_ADDR, buf_back, 5);
 422              		.loc 1 66 5 view .LVU70
 423 0010 0522     		movs	r2, #5
 424 0012 02A9     		add	r1, sp, #8
 425 0014 3020     		movs	r0, #48
 426 0016 FFF7FEFF 		bl	NRF24L01_Write_Buf
 427              	.LVL44:
  67:Modules/nrf24l01.c ****     for (int i = 0; i < 5; i++)
 428              		.loc 1 67 5 view .LVU71
 429 001a 0522     		movs	r2, #5
 430 001c 6946     		mov	r1, sp
 431 001e 1020     		movs	r0, #16
 432 0020 FFF7FEFF 		bl	NRF24L01_Read_Buf
 433              	.LVL45:
  68:Modules/nrf24l01.c ****         if (buf_back[i] != 0xA5)
 434              		.loc 1 68 5 view .LVU72
 435              	.LBB2:
  68:Modules/nrf24l01.c ****         if (buf_back[i] != 0xA5)
 436              		.loc 1 68 10 view .LVU73
  68:Modules/nrf24l01.c ****         if (buf_back[i] != 0xA5)
 437              		.loc 1 68 14 is_stmt 0 view .LVU74
 438 0024 0023     		movs	r3, #0
 439              	.LVL46:
 440              	.L26:
  68:Modules/nrf24l01.c ****         if (buf_back[i] != 0xA5)
 441              		.loc 1 68 21 is_stmt 1 discriminator 1 view .LVU75
  68:Modules/nrf24l01.c ****         if (buf_back[i] != 0xA5)
 442              		.loc 1 68 5 is_stmt 0 discriminator 1 view .LVU76
 443 0026 042B     		cmp	r3, #4
 444 0028 08DC     		bgt	.L31
  69:Modules/nrf24l01.c ****             return 0; // Ê£ÄÊµã24L01ËØªÂÜôÈîôËØØ
 445              		.loc 1 69 9 is_stmt 1 view .LVU77
ARM GAS  C:\Users\20398\AppData\Local\Temp\cctPfsh1.s 			page 11


  69:Modules/nrf24l01.c ****             return 0; // Ê£ÄÊµã24L01ËØªÂÜôÈîôËØØ
 446              		.loc 1 69 21 is_stmt 0 view .LVU78
 447 002a 03F11002 		add	r2, r3, #16
 448 002e 6A44     		add	r2, sp, r2
 449 0030 12F8102C 		ldrb	r2, [r2, #-16]	@ zero_extendqisi2
  69:Modules/nrf24l01.c ****             return 0; // Ê£ÄÊµã24L01ËØªÂÜôÈîôËØØ
 450              		.loc 1 69 12 view .LVU79
 451 0034 A52A     		cmp	r2, #165
 452 0036 05D1     		bne	.L29
  68:Modules/nrf24l01.c ****         if (buf_back[i] != 0xA5)
 453              		.loc 1 68 28 is_stmt 1 discriminator 2 view .LVU80
  68:Modules/nrf24l01.c ****         if (buf_back[i] != 0xA5)
 454              		.loc 1 68 29 is_stmt 0 discriminator 2 view .LVU81
 455 0038 0133     		adds	r3, r3, #1
 456              	.LVL47:
  68:Modules/nrf24l01.c ****         if (buf_back[i] != 0xA5)
 457              		.loc 1 68 29 discriminator 2 view .LVU82
 458 003a F4E7     		b	.L26
 459              	.L31:
  68:Modules/nrf24l01.c ****         if (buf_back[i] != 0xA5)
 460              		.loc 1 68 29 discriminator 2 view .LVU83
 461              	.LBE2:
  71:Modules/nrf24l01.c **** }
 462              		.loc 1 71 12 view .LVU84
 463 003c 0120     		movs	r0, #1
 464              	.L27:
  72:Modules/nrf24l01.c **** 
 465              		.loc 1 72 1 view .LVU85
 466 003e 05B0     		add	sp, sp, #20
 467              	.LCFI10:
 468              		.cfi_remember_state
 469              		.cfi_def_cfa_offset 4
 470              		@ sp needed
 471 0040 5DF804FB 		ldr	pc, [sp], #4
 472              	.L29:
 473              	.LCFI11:
 474              		.cfi_restore_state
 475              	.LBB3:
  70:Modules/nrf24l01.c ****     return 1;
 476              		.loc 1 70 20 view .LVU86
 477 0044 0020     		movs	r0, #0
 478 0046 FAE7     		b	.L27
 479              	.L33:
 480              		.align	2
 481              	.L32:
 482 0048 00000000 		.word	.LC0
 483              	.LBE3:
 484              		.cfi_endproc
 485              	.LFE69:
 487              		.section	.text.TX_Mode,"ax",%progbits
 488              		.align	1
 489              		.global	TX_Mode
 490              		.syntax unified
 491              		.thumb
 492              		.thumb_func
 494              	TX_Mode:
 495              	.LVL48:
ARM GAS  C:\Users\20398\AppData\Local\Temp\cctPfsh1.s 			page 12


 496              	.LFB72:
 106:Modules/nrf24l01.c **** 
 107:Modules/nrf24l01.c **** /**
 108:Modules/nrf24l01.c ****  * @brief ÈÖçÁΩÆNRF24L01ÂèëÈÄÅÂ∑•‰ΩúÊ®°Âºè
 109:Modules/nrf24l01.c ****  *
 110:Modules/nrf24l01.c ****  * @param numoslave
 111:Modules/nrf24l01.c ****  */
 112:Modules/nrf24l01.c **** void TX_Mode(uint8_t numoslave)
 113:Modules/nrf24l01.c **** {
 497              		.loc 1 113 1 is_stmt 1 view -0
 498              		.cfi_startproc
 499              		@ args = 0, pretend = 0, frame = 0
 500              		@ frame_needed = 0, uses_anonymous_args = 0
 501              		.loc 1 113 1 is_stmt 0 view .LVU88
 502 0000 38B5     		push	{r3, r4, r5, lr}
 503              	.LCFI12:
 504              		.cfi_def_cfa_offset 16
 505              		.cfi_offset 3, -16
 506              		.cfi_offset 4, -12
 507              		.cfi_offset 5, -8
 508              		.cfi_offset 14, -4
 114:Modules/nrf24l01.c ****     INIT_ADDR[0] = numoslave;
 509              		.loc 1 114 5 is_stmt 1 view .LVU89
 510              		.loc 1 114 18 is_stmt 0 view .LVU90
 511 0002 184C     		ldr	r4, .L36
 512 0004 2070     		strb	r0, [r4]
 115:Modules/nrf24l01.c ****     Clr_NRF24L01_CE;                                                                    // Â∞ÜNRF24
 513              		.loc 1 115 5 is_stmt 1 view .LVU91
 514 0006 184D     		ldr	r5, .L36+4
 515 0008 0022     		movs	r2, #0
 516 000a 1021     		movs	r1, #16
 517 000c 2846     		mov	r0, r5
 518              	.LVL49:
 519              		.loc 1 115 5 is_stmt 0 view .LVU92
 520 000e FFF7FEFF 		bl	HAL_GPIO_WritePin
 521              	.LVL50:
 116:Modules/nrf24l01.c ****     NRF24L01_Write_Buf(SPI_WRITE_REG + TX_ADDR, (uint8_t *)INIT_ADDR, TX_ADR_WIDTH);    // ÈÖçÁΩÆÂè
 522              		.loc 1 116 5 is_stmt 1 view .LVU93
 523 0012 0522     		movs	r2, #5
 524 0014 2146     		mov	r1, r4
 525 0016 3020     		movs	r0, #48
 526 0018 FFF7FEFF 		bl	NRF24L01_Write_Buf
 527              	.LVL51:
 117:Modules/nrf24l01.c ****     NRF24L01_Write_Buf(SPI_WRITE_REG + RX_ADDR_P0, (uint8_t *)INIT_ADDR, RX_ADR_WIDTH); // ÈÖçÁΩÆÊé
 528              		.loc 1 117 5 view .LVU94
 529 001c 0522     		movs	r2, #5
 530 001e 2146     		mov	r1, r4
 531 0020 2A20     		movs	r0, #42
 532 0022 FFF7FEFF 		bl	NRF24L01_Write_Buf
 533              	.LVL52:
 118:Modules/nrf24l01.c ****     NRF24L01_Write_Reg(SPI_WRITE_REG + EN_AA, 0x01);                                    // ÂºÄÂêØËá
 534              		.loc 1 118 5 view .LVU95
 535 0026 0121     		movs	r1, #1
 536 0028 2120     		movs	r0, #33
 537 002a FFF7FEFF 		bl	NRF24L01_Write_Reg
 538              	.LVL53:
 119:Modules/nrf24l01.c ****     NRF24L01_Write_Reg(SPI_WRITE_REG + EN_RXADDR, 0X01);
ARM GAS  C:\Users\20398\AppData\Local\Temp\cctPfsh1.s 			page 13


 539              		.loc 1 119 5 view .LVU96
 540 002e 0121     		movs	r1, #1
 541 0030 2220     		movs	r0, #34
 542 0032 FFF7FEFF 		bl	NRF24L01_Write_Reg
 543              	.LVL54:
 120:Modules/nrf24l01.c ****     NRF24L01_Write_Reg(SPI_WRITE_REG + SETUP_RETR, 0x1a);
 544              		.loc 1 120 5 view .LVU97
 545 0036 1A21     		movs	r1, #26
 546 0038 2420     		movs	r0, #36
 547 003a FFF7FEFF 		bl	NRF24L01_Write_Reg
 548              	.LVL55:
 121:Modules/nrf24l01.c ****     NRF24L01_Write_Reg(SPI_WRITE_REG + RF_CH, 40); // ËÆæÂÆöÈÄöËÆØÈ¢ëÁéá
 549              		.loc 1 121 5 view .LVU98
 550 003e 2821     		movs	r1, #40
 551 0040 2520     		movs	r0, #37
 552 0042 FFF7FEFF 		bl	NRF24L01_Write_Reg
 553              	.LVL56:
 122:Modules/nrf24l01.c ****     NRF24L01_Write_Reg(SPI_WRITE_REG + RF_SETUP, 0x0f);
 554              		.loc 1 122 5 view .LVU99
 555 0046 0F21     		movs	r1, #15
 556 0048 2620     		movs	r0, #38
 557 004a FFF7FEFF 		bl	NRF24L01_Write_Reg
 558              	.LVL57:
 123:Modules/nrf24l01.c ****     NRF24L01_Write_Reg(SPI_WRITE_REG + CONFIG, 0x0e); // ÈÖçÁΩÆÂü∫Êú¨Â∑•‰ΩúÊ®°Âºè‰∏∫ÂèëÈÄÅ
 559              		.loc 1 123 5 view .LVU100
 560 004e 0E21     		movs	r1, #14
 561 0050 2020     		movs	r0, #32
 562 0052 FFF7FEFF 		bl	NRF24L01_Write_Reg
 563              	.LVL58:
 124:Modules/nrf24l01.c ****     Set_NRF24L01_CE;                                  // ÈÄÄÂá∫ÂæÖÊú∫Ê®°ÂºèÔºåÂÖ≥Èó≠ÈÖçÁΩÆ
 564              		.loc 1 124 5 view .LVU101
 565 0056 0122     		movs	r2, #1
 566 0058 1021     		movs	r1, #16
 567 005a 2846     		mov	r0, r5
 568 005c FFF7FEFF 		bl	HAL_GPIO_WritePin
 569              	.LVL59:
 125:Modules/nrf24l01.c **** }
 570              		.loc 1 125 1 is_stmt 0 view .LVU102
 571 0060 38BD     		pop	{r3, r4, r5, pc}
 572              	.L37:
 573 0062 00BF     		.align	2
 574              	.L36:
 575 0064 00000000 		.word	.LANCHOR0
 576 0068 00080140 		.word	1073809408
 577              		.cfi_endproc
 578              	.LFE72:
 580              		.section	.text.NRF24L01_TxPacket,"ax",%progbits
 581              		.align	1
 582              		.global	NRF24L01_TxPacket
 583              		.syntax unified
 584              		.thumb
 585              		.thumb_func
 587              	NRF24L01_TxPacket:
 588              	.LVL60:
 589              	.LFB73:
 126:Modules/nrf24l01.c **** 
 127:Modules/nrf24l01.c **** /**
ARM GAS  C:\Users\20398\AppData\Local\Temp\cctPfsh1.s 			page 14


 128:Modules/nrf24l01.c ****  * @brief ÂèëÈÄÅÊï∞ÊçÆ
 129:Modules/nrf24l01.c ****  *
 130:Modules/nrf24l01.c ****  * @param txbuf ÈúÄË¶ÅÂèëÈÄÅÊï∞ÊçÆÁöÑÈ¶ñÂú∞ÂùÄ
 131:Modules/nrf24l01.c ****  * @return uint8_t
 132:Modules/nrf24l01.c ****  */
 133:Modules/nrf24l01.c **** uint8_t NRF24L01_TxPacket(uint8_t *txbuf)
 134:Modules/nrf24l01.c **** {
 590              		.loc 1 134 1 is_stmt 1 view -0
 591              		.cfi_startproc
 592              		@ args = 0, pretend = 0, frame = 0
 593              		@ frame_needed = 0, uses_anonymous_args = 0
 594              		.loc 1 134 1 is_stmt 0 view .LVU104
 595 0000 38B5     		push	{r3, r4, r5, lr}
 596              	.LCFI13:
 597              		.cfi_def_cfa_offset 16
 598              		.cfi_offset 3, -16
 599              		.cfi_offset 4, -12
 600              		.cfi_offset 5, -8
 601              		.cfi_offset 14, -4
 602 0002 0446     		mov	r4, r0
 135:Modules/nrf24l01.c ****     uint8_t state;
 603              		.loc 1 135 5 is_stmt 1 view .LVU105
 136:Modules/nrf24l01.c ****     Clr_NRF24L01_CE;                                        // Êõ¥Êîπ‰∏∫ÂæÖÊú∫Ê®°ÂºèÔºåËøõÂÖ•ÈÖçÁΩÆ
 604              		.loc 1 136 5 view .LVU106
 605 0004 194D     		ldr	r5, .L46
 606 0006 0022     		movs	r2, #0
 607 0008 1021     		movs	r1, #16
 608 000a 2846     		mov	r0, r5
 609              	.LVL61:
 610              		.loc 1 136 5 is_stmt 0 view .LVU107
 611 000c FFF7FEFF 		bl	HAL_GPIO_WritePin
 612              	.LVL62:
 137:Modules/nrf24l01.c ****     NRF24L01_Write_Buf(WR_TX_PLOAD, txbuf, TX_PLOAD_WIDTH); // Â∞ÜÂèëÈÄÅÊï∞ÊçÆÂÜôÂÖ•NRF24L01ÁºìÂ≠ò
 613              		.loc 1 137 5 is_stmt 1 view .LVU108
 614 0010 0822     		movs	r2, #8
 615 0012 2146     		mov	r1, r4
 616 0014 A020     		movs	r0, #160
 617 0016 FFF7FEFF 		bl	NRF24L01_Write_Buf
 618              	.LVL63:
 138:Modules/nrf24l01.c ****     Set_NRF24L01_CE;                                        // ÈÄÄÂá∫ÈÖçÁΩÆ
 619              		.loc 1 138 5 view .LVU109
 620 001a 0122     		movs	r2, #1
 621 001c 1021     		movs	r1, #16
 622 001e 2846     		mov	r0, r5
 623 0020 FFF7FEFF 		bl	HAL_GPIO_WritePin
 624              	.LVL64:
 139:Modules/nrf24l01.c ****     while (READ_NRF24L01_IRQ)
 625              		.loc 1 139 5 view .LVU110
 626              		.loc 1 139 11 is_stmt 0 view .LVU111
 627 0024 02E0     		b	.L39
 628              	.L40:
 629              	.LBB4:
 140:Modules/nrf24l01.c ****         osDelay(1);                                    // Á≠âÂæÖÂèëÈÄÅÂÆåÊàê
 630              		.loc 1 140 9 is_stmt 1 view .LVU112
 631 0026 0120     		movs	r0, #1
 632 0028 FFF7FEFF 		bl	osDelay
 633              	.LVL65:
ARM GAS  C:\Users\20398\AppData\Local\Temp\cctPfsh1.s 			page 15


 634              	.L39:
 635              	.LBE4:
 139:Modules/nrf24l01.c ****     while (READ_NRF24L01_IRQ)
 636              		.loc 1 139 11 view .LVU113
 139:Modules/nrf24l01.c ****     while (READ_NRF24L01_IRQ)
 637              		.loc 1 139 12 is_stmt 0 view .LVU114
 638 002c 4FF40071 		mov	r1, #512
 639 0030 0E48     		ldr	r0, .L46
 640 0032 FFF7FEFF 		bl	HAL_GPIO_ReadPin
 641              	.LVL66:
 139:Modules/nrf24l01.c ****     while (READ_NRF24L01_IRQ)
 642              		.loc 1 139 11 view .LVU115
 643 0036 0028     		cmp	r0, #0
 644 0038 F5D1     		bne	.L40
 141:Modules/nrf24l01.c ****     state = NRF24L01_Read_Reg(STATUS);                 // ËØªÂèñÂèëÈÄÅÁä∂ÊÄÅ
 645              		.loc 1 141 5 is_stmt 1 view .LVU116
 646              		.loc 1 141 13 is_stmt 0 view .LVU117
 647 003a 0720     		movs	r0, #7
 648 003c FFF7FEFF 		bl	NRF24L01_Read_Reg
 649              	.LVL67:
 650 0040 0446     		mov	r4, r0
 651              	.LVL68:
 142:Modules/nrf24l01.c ****     NRF24L01_Write_Reg(SPI_WRITE_REG + STATUS, state); // Ê∏ÖÈô§‰∏≠Êñ≠Ê†áÂøó
 652              		.loc 1 142 5 is_stmt 1 view .LVU118
 653 0042 0146     		mov	r1, r0
 654 0044 2720     		movs	r0, #39
 655              	.LVL69:
 656              		.loc 1 142 5 is_stmt 0 view .LVU119
 657 0046 FFF7FEFF 		bl	NRF24L01_Write_Reg
 658              	.LVL70:
 143:Modules/nrf24l01.c ****     if (state & MAX_TX)
 659              		.loc 1 143 5 is_stmt 1 view .LVU120
 660              		.loc 1 143 8 is_stmt 0 view .LVU121
 661 004a 14F0100F 		tst	r4, #16
 662 004e 04D1     		bne	.L45
 144:Modules/nrf24l01.c ****     {
 145:Modules/nrf24l01.c ****         NRF24L01_Write_Reg(FLUSH_TX, 0xff); // ËææÂà∞ÊúÄÂ§ßÂèëÈÄÅÊ¨°Êï∞ÔºåÊ∏ÖÁ©∫ÂèëÈÄÅÈÇÆÁÆ±
 146:Modules/nrf24l01.c ****         return MAX_TX;
 147:Modules/nrf24l01.c ****     }
 148:Modules/nrf24l01.c ****     if (state & TX_OK)
 663              		.loc 1 148 5 is_stmt 1 view .LVU122
 664              		.loc 1 148 8 is_stmt 0 view .LVU123
 665 0050 14F0200F 		tst	r4, #32
 666 0054 07D1     		bne	.L43
 149:Modules/nrf24l01.c ****         return TX_OK; // ÂèëÈÄÅÊàêÂäü
 150:Modules/nrf24l01.c ****     return 0xff;
 667              		.loc 1 150 12 view .LVU124
 668 0056 FF20     		movs	r0, #255
 669              	.L42:
 151:Modules/nrf24l01.c **** }
 670              		.loc 1 151 1 view .LVU125
 671 0058 38BD     		pop	{r3, r4, r5, pc}
 672              	.L45:
 145:Modules/nrf24l01.c ****         return MAX_TX;
 673              		.loc 1 145 9 is_stmt 1 view .LVU126
 674 005a FF21     		movs	r1, #255
 675 005c E120     		movs	r0, #225
ARM GAS  C:\Users\20398\AppData\Local\Temp\cctPfsh1.s 			page 16


 676 005e FFF7FEFF 		bl	NRF24L01_Write_Reg
 677              	.LVL71:
 146:Modules/nrf24l01.c ****     }
 678              		.loc 1 146 9 view .LVU127
 146:Modules/nrf24l01.c ****     }
 679              		.loc 1 146 16 is_stmt 0 view .LVU128
 680 0062 1020     		movs	r0, #16
 681 0064 F8E7     		b	.L42
 682              	.L43:
 149:Modules/nrf24l01.c ****     return 0xff;
 683              		.loc 1 149 16 view .LVU129
 684 0066 2020     		movs	r0, #32
 685 0068 F6E7     		b	.L42
 686              	.L47:
 687 006a 00BF     		.align	2
 688              	.L46:
 689 006c 00080140 		.word	1073809408
 690              		.cfi_endproc
 691              	.LFE73:
 693              		.section	.text.RX_Mode,"ax",%progbits
 694              		.align	1
 695              		.global	RX_Mode
 696              		.syntax unified
 697              		.thumb
 698              		.thumb_func
 700              	RX_Mode:
 701              	.LVL72:
 702              	.LFB74:
 152:Modules/nrf24l01.c **** 
 153:Modules/nrf24l01.c **** /**
 154:Modules/nrf24l01.c ****  * @brief ÈÖçÁΩÆNRF24L01Â∑•‰ΩúÊ®°Âºè‰∏∫Êé•Êî∂Ê®°Âºè
 155:Modules/nrf24l01.c ****  *
 156:Modules/nrf24l01.c ****  * @param numoslave
 157:Modules/nrf24l01.c ****  */
 158:Modules/nrf24l01.c **** void RX_Mode(uint8_t numoslave)
 159:Modules/nrf24l01.c **** {
 703              		.loc 1 159 1 is_stmt 1 view -0
 704              		.cfi_startproc
 705              		@ args = 0, pretend = 0, frame = 0
 706              		@ frame_needed = 0, uses_anonymous_args = 0
 707              		.loc 1 159 1 is_stmt 0 view .LVU131
 708 0000 38B5     		push	{r3, r4, r5, lr}
 709              	.LCFI14:
 710              		.cfi_def_cfa_offset 16
 711              		.cfi_offset 3, -16
 712              		.cfi_offset 4, -12
 713              		.cfi_offset 5, -8
 714              		.cfi_offset 14, -4
 160:Modules/nrf24l01.c ****     INIT_ADDR[0] = numoslave;
 715              		.loc 1 160 5 is_stmt 1 view .LVU132
 716              		.loc 1 160 18 is_stmt 0 view .LVU133
 717 0002 154D     		ldr	r5, .L50
 718 0004 2870     		strb	r0, [r5]
 161:Modules/nrf24l01.c ****     Clr_NRF24L01_CE;
 719              		.loc 1 161 5 is_stmt 1 view .LVU134
 720 0006 154C     		ldr	r4, .L50+4
 721 0008 0022     		movs	r2, #0
ARM GAS  C:\Users\20398\AppData\Local\Temp\cctPfsh1.s 			page 17


 722 000a 1021     		movs	r1, #16
 723 000c 2046     		mov	r0, r4
 724              	.LVL73:
 725              		.loc 1 161 5 is_stmt 0 view .LVU135
 726 000e FFF7FEFF 		bl	HAL_GPIO_WritePin
 727              	.LVL74:
 162:Modules/nrf24l01.c ****     NRF24L01_Write_Buf(SPI_WRITE_REG + RX_ADDR_P0, (uint8_t *)INIT_ADDR, RX_ADR_WIDTH);
 728              		.loc 1 162 5 is_stmt 1 view .LVU136
 729 0012 0522     		movs	r2, #5
 730 0014 2946     		mov	r1, r5
 731 0016 2A20     		movs	r0, #42
 732 0018 FFF7FEFF 		bl	NRF24L01_Write_Buf
 733              	.LVL75:
 163:Modules/nrf24l01.c ****     NRF24L01_Write_Reg(SPI_WRITE_REG + EN_AA, 0x01);
 734              		.loc 1 163 5 view .LVU137
 735 001c 0121     		movs	r1, #1
 736 001e 2120     		movs	r0, #33
 737 0020 FFF7FEFF 		bl	NRF24L01_Write_Reg
 738              	.LVL76:
 164:Modules/nrf24l01.c ****     NRF24L01_Write_Reg(SPI_WRITE_REG + EN_RXADDR, 0x01);
 739              		.loc 1 164 5 view .LVU138
 740 0024 0121     		movs	r1, #1
 741 0026 2220     		movs	r0, #34
 742 0028 FFF7FEFF 		bl	NRF24L01_Write_Reg
 743              	.LVL77:
 165:Modules/nrf24l01.c ****     NRF24L01_Write_Reg(SPI_WRITE_REG + RF_CH, 40);
 744              		.loc 1 165 5 view .LVU139
 745 002c 2821     		movs	r1, #40
 746 002e 2520     		movs	r0, #37
 747 0030 FFF7FEFF 		bl	NRF24L01_Write_Reg
 748              	.LVL78:
 166:Modules/nrf24l01.c ****     NRF24L01_Write_Reg(SPI_WRITE_REG + RX_PW_P0, RX_PLOAD_WIDTH);
 749              		.loc 1 166 5 view .LVU140
 750 0034 0821     		movs	r1, #8
 751 0036 3120     		movs	r0, #49
 752 0038 FFF7FEFF 		bl	NRF24L01_Write_Reg
 753              	.LVL79:
 167:Modules/nrf24l01.c ****     NRF24L01_Write_Reg(SPI_WRITE_REG + RF_SETUP, 0x0f);
 754              		.loc 1 167 5 view .LVU141
 755 003c 0F21     		movs	r1, #15
 756 003e 2620     		movs	r0, #38
 757 0040 FFF7FEFF 		bl	NRF24L01_Write_Reg
 758              	.LVL80:
 168:Modules/nrf24l01.c ****     NRF24L01_Write_Reg(SPI_WRITE_REG + CONFIG, 0x0f);
 759              		.loc 1 168 5 view .LVU142
 760 0044 0F21     		movs	r1, #15
 761 0046 2020     		movs	r0, #32
 762 0048 FFF7FEFF 		bl	NRF24L01_Write_Reg
 763              	.LVL81:
 169:Modules/nrf24l01.c ****     Set_NRF24L01_CE;
 764              		.loc 1 169 5 view .LVU143
 765 004c 0122     		movs	r2, #1
 766 004e 1021     		movs	r1, #16
 767 0050 2046     		mov	r0, r4
 768 0052 FFF7FEFF 		bl	HAL_GPIO_WritePin
 769              	.LVL82:
 170:Modules/nrf24l01.c **** }
ARM GAS  C:\Users\20398\AppData\Local\Temp\cctPfsh1.s 			page 18


 770              		.loc 1 170 1 is_stmt 0 view .LVU144
 771 0056 38BD     		pop	{r3, r4, r5, pc}
 772              	.L51:
 773              		.align	2
 774              	.L50:
 775 0058 00000000 		.word	.LANCHOR0
 776 005c 00080140 		.word	1073809408
 777              		.cfi_endproc
 778              	.LFE74:
 780              		.section	.text.NRF24L01_RxPacket,"ax",%progbits
 781              		.align	1
 782              		.global	NRF24L01_RxPacket
 783              		.syntax unified
 784              		.thumb
 785              		.thumb_func
 787              	NRF24L01_RxPacket:
 788              	.LVL83:
 789              	.LFB75:
 171:Modules/nrf24l01.c **** 
 172:Modules/nrf24l01.c **** /**
 173:Modules/nrf24l01.c ****  * @brief ËØªÂèñÊï∞ÊçÆ
 174:Modules/nrf24l01.c ****  *
 175:Modules/nrf24l01.c ****  * @param rxbuf Êï∞ÊçÆÂ≠òÂÇ®Âú∞ÂùÄ
 176:Modules/nrf24l01.c ****  * @return uint8_t 1‰∏∫ËØªÂèñÊàêÂäüÔºå0‰∏∫ËØªÂèñÂ§±Ë¥•
 177:Modules/nrf24l01.c ****  */
 178:Modules/nrf24l01.c **** uint8_t NRF24L01_RxPacket(uint8_t *rxbuf)
 179:Modules/nrf24l01.c **** {
 790              		.loc 1 179 1 is_stmt 1 view -0
 791              		.cfi_startproc
 792              		@ args = 0, pretend = 0, frame = 0
 793              		@ frame_needed = 0, uses_anonymous_args = 0
 794              		.loc 1 179 1 is_stmt 0 view .LVU146
 795 0000 38B5     		push	{r3, r4, r5, lr}
 796              	.LCFI15:
 797              		.cfi_def_cfa_offset 16
 798              		.cfi_offset 3, -16
 799              		.cfi_offset 4, -12
 800              		.cfi_offset 5, -8
 801              		.cfi_offset 14, -4
 802 0002 0546     		mov	r5, r0
 180:Modules/nrf24l01.c ****     uint8_t state;
 803              		.loc 1 180 5 is_stmt 1 view .LVU147
 181:Modules/nrf24l01.c ****     state = NRF24L01_Read_Reg(STATUS);
 804              		.loc 1 181 5 view .LVU148
 805              		.loc 1 181 13 is_stmt 0 view .LVU149
 806 0004 0720     		movs	r0, #7
 807              	.LVL84:
 808              		.loc 1 181 13 view .LVU150
 809 0006 FFF7FEFF 		bl	NRF24L01_Read_Reg
 810              	.LVL85:
 811 000a 0446     		mov	r4, r0
 812              	.LVL86:
 182:Modules/nrf24l01.c ****     NRF24L01_Write_Reg(SPI_WRITE_REG + STATUS, state);
 813              		.loc 1 182 5 is_stmt 1 view .LVU151
 814 000c 0146     		mov	r1, r0
 815 000e 2720     		movs	r0, #39
 816              	.LVL87:
ARM GAS  C:\Users\20398\AppData\Local\Temp\cctPfsh1.s 			page 19


 817              		.loc 1 182 5 is_stmt 0 view .LVU152
 818 0010 FFF7FEFF 		bl	NRF24L01_Write_Reg
 819              	.LVL88:
 183:Modules/nrf24l01.c ****     if (state & RX_OK)
 820              		.loc 1 183 5 is_stmt 1 view .LVU153
 821              		.loc 1 183 8 is_stmt 0 view .LVU154
 822 0014 14F04000 		ands	r0, r4, #64
 823 0018 00D1     		bne	.L55
 824              	.L53:
 184:Modules/nrf24l01.c ****     {
 185:Modules/nrf24l01.c ****         NRF24L01_Read_Buf(RD_RX_PLOAD, rxbuf, RX_PLOAD_WIDTH);
 186:Modules/nrf24l01.c ****         NRF24L01_Write_Reg(FLUSH_RX, 0xff);
 187:Modules/nrf24l01.c ****         return 1;
 188:Modules/nrf24l01.c ****     }
 189:Modules/nrf24l01.c ****     return 0;
 190:Modules/nrf24l01.c **** }...
 825              		.loc 1 190 1 view .LVU155
 826 001a 38BD     		pop	{r3, r4, r5, pc}
 827              	.LVL89:
 828              	.L55:
 185:Modules/nrf24l01.c ****         NRF24L01_Read_Buf(RD_RX_PLOAD, rxbuf, RX_PLOAD_WIDTH);
 829              		.loc 1 185 9 is_stmt 1 view .LVU156
 830 001c 0822     		movs	r2, #8
 831 001e 2946     		mov	r1, r5
 832 0020 6120     		movs	r0, #97
 833 0022 FFF7FEFF 		bl	NRF24L01_Read_Buf
 834              	.LVL90:
 186:Modules/nrf24l01.c ****         NRF24L01_Write_Reg(FLUSH_RX, 0xff);
 835              		.loc 1 186 9 view .LVU157
 836 0026 FF21     		movs	r1, #255
 837 0028 E220     		movs	r0, #226
 838 002a FFF7FEFF 		bl	NRF24L01_Write_Reg
 839              	.LVL91:
 187:Modules/nrf24l01.c ****         return 1;
 840              		.loc 1 187 9 view .LVU158
 187:Modules/nrf24l01.c ****         return 1;
 841              		.loc 1 187 16 is_stmt 0 view .LVU159
 842 002e 0120     		movs	r0, #1
 843 0030 F3E7     		b	.L53
 844              		.cfi_endproc
 845              	.LFE75:
 847              		.global	INIT_ADDR
 848              		.section	.data.INIT_ADDR,"aw"
 849              		.align	2
 850              		.set	.LANCHOR0,. + 0
 853              	INIT_ADDR:
 854 0000 001AB1B1 		.ascii	"\000\032\261\261\001"
 854      01
 855              		.text
 856              	.Letext0:
 857              		.file 2 "e:\\ace2025\\enviroment\\gcc-arm-none-eabi-10.3-2021.10-win32\\arm-gnu-toolchian\\arm-non
 858              		.file 3 "e:\\ace2025\\enviroment\\gcc-arm-none-eabi-10.3-2021.10-win32\\arm-gnu-toolchian\\arm-non
 859              		.file 4 "Drivers/CMSIS/Device/ST/STM32F1xx/Include/stm32f103xb.h"
 860              		.file 5 "Drivers/STM32F1xx_HAL_Driver/Inc/stm32f1xx_hal_def.h"
 861              		.file 6 "Drivers/STM32F1xx_HAL_Driver/Inc/stm32f1xx_hal_gpio.h"
 862              		.file 7 "Drivers/STM32F1xx_HAL_Driver/Inc/stm32f1xx_hal_dma.h"
 863              		.file 8 "Drivers/STM32F1xx_HAL_Driver/Inc/stm32f1xx_hal_spi.h"
ARM GAS  C:\Users\20398\AppData\Local\Temp\cctPfsh1.s 			page 20


 864              		.file 9 "Core/Inc/spi.h"
 865              		.file 10 "Bsp/bsp_dwt.h"
ARM GAS  C:\Users\20398\AppData\Local\Temp\cctPfsh1.s 			page 21

