ARM GAS  C:\Users\20398\AppData\Local\Temp\ccezfzWQ.s 			page 1


   1              		.cpu cortex-m3
   2              		.arch armv7-m
   3              		.fpu softvfp
   4              		.eabi_attribute 20, 1
   5              		.eabi_attribute 21, 1
   6              		.eabi_attribute 23, 3
   7              		.eabi_attribute 24, 1
   8              		.eabi_attribute 25, 1
   9              		.eabi_attribute 26, 1
  10              		.eabi_attribute 30, 1
  11              		.eabi_attribute 34, 1
  12              		.eabi_attribute 18, 4
  13              		.file	"remote.c"
  14              		.section	.rodata.str1.4,"aMS",%progbits,1
  15              		.align	2
  16              	.LC0:
  17 0000 7363616E 		.ascii	"scaninfotask\000"
  17      696E666F 
  17      7461736B 
  17      00
  18 000d 000000   		.align	2
  19              	.LC2:
  20 0010 6D656E75 		.ascii	"menutask\000"
  20      7461736B 
  20      00
  21 0019 000000   		.align	2
  22              	.LC4:
  23 001c 73656E64 		.ascii	"sendtask\000"
  23      7461736B 
  23      00
  24              		.text
  25              	.Ltext0:
  26              		.cfi_sections	.debug_frame
  27              		.global	__aeabi_i2f
  28              		.global	__aeabi_fmul
  29              		.global	__aeabi_f2iz
  30              		.section	.text.RemoteDataProc,"ax",%progbits
  31              		.align	1
  32              		.syntax unified
  33              		.thumb
  34              		.thumb_func
  36              	RemoteDataProc:
  37              	.LVL0:
  38              	.LFB72:
  39              		.file 1 "Application/remote.c"
   1:Application/remote.c **** #include "remote.h"
   2:Application/remote.c **** #include "oled.h"
   3:Application/remote.c **** #include "nrf24l01.h"
   4:Application/remote.c **** #include "adc.h"
   5:Application/remote.c **** #include "MENU.h"
   6:Application/remote.c **** #include "menu_task.h"
   7:Application/remote.c **** uint16_t adc_val[8] = {0};
   8:Application/remote.c **** uint8_t tx_buf[8] = {0};
   9:Application/remote.c **** RC_Info_t remote_info;
  10:Application/remote.c **** RC_t remote;
  11:Application/remote.c **** osThreadId scaninfoTaskHandle;
  12:Application/remote.c **** osThreadId menuTaskHandle;
ARM GAS  C:\Users\20398\AppData\Local\Temp\ccezfzWQ.s 			page 2


  13:Application/remote.c **** osThreadId sendTaskHandle;
  14:Application/remote.c **** 
  15:Application/remote.c **** static void RemoteHardware_Init(void)
  16:Application/remote.c **** {
  17:Application/remote.c ****     HAL_Delay(100); // 等待其他外设上电
  18:Application/remote.c ****     __disable_irq();
  19:Application/remote.c ****     OLED_Init();
  20:Application/remote.c ****     NRF24L01_Init();
  21:Application/remote.c ****     HAL_ADCEx_Calibration_Start(&hadc1); // ADC校准
  22:Application/remote.c ****     HAL_ADC_Start_DMA(&hadc1, (uint32_t *)adc_val, sizeof(adc_val) / sizeof(uint16_t));
  23:Application/remote.c ****     while (!NRF24L01_Check())
  24:Application/remote.c ****         ;
  25:Application/remote.c ****     TX_Mode(0);
  26:Application/remote.c ****     __enable_irq();
  27:Application/remote.c **** }
  28:Application/remote.c **** 
  29:Application/remote.c **** void Remote_Init(void)
  30:Application/remote.c **** {
  31:Application/remote.c ****     RemoteHardware_Init();
  32:Application/remote.c ****     memset(&remote_info, 0x00, sizeof(RC_Info_t));
  33:Application/remote.c ****     memset(&remote, 0x00, sizeof(RC_t));
  34:Application/remote.c ****     remote.info = &remote_info;
  35:Application/remote.c **** }
  36:Application/remote.c **** 
  37:Application/remote.c **** static void RemoteDataProc(RC_t *data)
  38:Application/remote.c **** {
  40              		.loc 1 38 1 view -0
  41              		.cfi_startproc
  42              		@ args = 0, pretend = 0, frame = 0
  43              		@ frame_needed = 0, uses_anonymous_args = 0
  44              		.loc 1 38 1 is_stmt 0 view .LVU1
  45 0000 70B5     		push	{r4, r5, r6, lr}
  46              	.LCFI0:
  47              		.cfi_def_cfa_offset 16
  48              		.cfi_offset 4, -16
  49              		.cfi_offset 5, -12
  50              		.cfi_offset 6, -8
  51              		.cfi_offset 14, -4
  52 0002 0546     		mov	r5, r0
  39:Application/remote.c ****     memcpy(&data->res.key, &data->info->key, sizeof(data->info->key));
  53              		.loc 1 39 5 is_stmt 1 view .LVU2
  54              		.loc 1 39 33 is_stmt 0 view .LVU3
  55 0004 0668     		ldr	r6, [r0]
  56 0006 3378     		ldrb	r3, [r6]	@ zero_extendqisi2
  57              		.loc 1 39 5 view .LVU4
  58 0008 8375     		strb	r3, [r0, #22]
  40:Application/remote.c ****     for (int i = 0; i < 2; i++)
  59              		.loc 1 40 5 is_stmt 1 view .LVU5
  60              	.LBB6:
  61              		.loc 1 40 10 view .LVU6
  62              	.LVL1:
  63              		.loc 1 40 14 is_stmt 0 view .LVU7
  64 000a 0024     		movs	r4, #0
  65              	.LVL2:
  66              	.L2:
  67              		.loc 1 40 21 is_stmt 1 discriminator 1 view .LVU8
  68              		.loc 1 40 5 is_stmt 0 discriminator 1 view .LVU9
ARM GAS  C:\Users\20398\AppData\Local\Temp\ccezfzWQ.s 			page 3


  69 000c 012C     		cmp	r4, #1
  70 000e 18DC     		bgt	.L9
  41:Application/remote.c ****     {
  42:Application/remote.c ****         data->res.potVal[i] = (int)(-((float)(data->info->pVal[i] - data->offset_rocker[i]) / 4096)
  71              		.loc 1 42 9 is_stmt 1 discriminator 3 view .LVU10
  72              		.loc 1 42 63 is_stmt 0 discriminator 3 view .LVU11
  73 0010 06EB4403 		add	r3, r6, r4, lsl #1
  74 0014 5888     		ldrh	r0, [r3, #2]
  75              		.loc 1 42 88 discriminator 3 view .LVU12
  76 0016 231D     		adds	r3, r4, #4
  77 0018 05EB4303 		add	r3, r5, r3, lsl #1
  78 001c 5B88     		ldrh	r3, [r3, #2]
  79              		.loc 1 42 39 discriminator 3 view .LVU13
  80 001e C01A     		subs	r0, r0, r3
  81 0020 FFF7FEFF 		bl	__aeabi_i2f
  82              	.LVL3:
  83              		.loc 1 42 93 discriminator 3 view .LVU14
  84 0024 4FF06651 		mov	r1, #964689920
  85 0028 FFF7FEFF 		bl	__aeabi_fmul
  86              	.LVL4:
  87              		.loc 1 42 37 discriminator 3 view .LVU15
  88 002c 00F10040 		add	r0, r0, #-2147483648
  89              		.loc 1 42 101 discriminator 3 view .LVU16
  90 0030 2149     		ldr	r1, .L11
  91 0032 FFF7FEFF 		bl	__aeabi_fmul
  92              	.LVL5:
  93              		.loc 1 42 31 discriminator 3 view .LVU17
  94 0036 FFF7FEFF 		bl	__aeabi_f2iz
  95              	.LVL6:
  96              		.loc 1 42 29 discriminator 3 view .LVU18
  97 003a 2B19     		adds	r3, r5, r4
  98 003c D875     		strb	r0, [r3, #23]
  40:Application/remote.c ****     for (int i = 0; i < 2; i++)
  99              		.loc 1 40 28 is_stmt 1 discriminator 3 view .LVU19
  40:Application/remote.c ****     for (int i = 0; i < 2; i++)
 100              		.loc 1 40 29 is_stmt 0 discriminator 3 view .LVU20
 101 003e 0134     		adds	r4, r4, #1
 102              	.LVL7:
  40:Application/remote.c ****     for (int i = 0; i < 2; i++)
 103              		.loc 1 40 29 discriminator 3 view .LVU21
 104 0040 E4E7     		b	.L2
 105              	.L9:
  40:Application/remote.c ****     for (int i = 0; i < 2; i++)
 106              		.loc 1 40 29 discriminator 3 view .LVU22
 107              	.LBE6:
 108              	.LBB7:
  43:Application/remote.c ****     }
  44:Application/remote.c **** 
  45:Application/remote.c ****     for (int i = 0; i < 4; i++)
 109              		.loc 1 45 14 view .LVU23
 110 0042 0024     		movs	r4, #0
 111              	.LVL8:
 112              		.loc 1 45 14 view .LVU24
 113 0044 18E0     		b	.L4
 114              	.LVL9:
 115              	.L5:
  46:Application/remote.c ****     {
ARM GAS  C:\Users\20398\AppData\Local\Temp\ccezfzWQ.s 			page 4


  47:Application/remote.c ****         if (i > 1)
  48:Application/remote.c ****             data->res.rockerVal[i] = -(int)(((float)(data->info->rockerVal[i] - data->offset_rocker
  49:Application/remote.c ****         else
  50:Application/remote.c ****             data->res.rockerVal[i] = (int)(((float)(data->info->rockerVal[i] - data->offset_rocker[
 116              		.loc 1 50 13 is_stmt 1 view .LVU25
 117              		.loc 1 50 74 is_stmt 0 view .LVU26
 118 0046 06EB4403 		add	r3, r6, r4, lsl #1
 119 004a D888     		ldrh	r0, [r3, #6]
 120              		.loc 1 50 99 view .LVU27
 121 004c A31D     		adds	r3, r4, #6
 122 004e 05EB4303 		add	r3, r5, r3, lsl #1
 123 0052 5B88     		ldrh	r3, [r3, #2]
 124              		.loc 1 50 45 view .LVU28
 125 0054 C01A     		subs	r0, r0, r3
 126 0056 FFF7FEFF 		bl	__aeabi_i2f
 127              	.LVL10:
 128              		.loc 1 50 108 view .LVU29
 129 005a 4FF06851 		mov	r1, #973078528
 130 005e FFF7FEFF 		bl	__aeabi_fmul
 131              	.LVL11:
 132              		.loc 1 50 116 view .LVU30
 133 0062 1649     		ldr	r1, .L11+4
 134 0064 FFF7FEFF 		bl	__aeabi_fmul
 135              	.LVL12:
 136              		.loc 1 50 122 view .LVU31
 137 0068 1549     		ldr	r1, .L11+8
 138 006a FFF7FEFF 		bl	__aeabi_fmul
 139              	.LVL13:
 140              		.loc 1 50 38 view .LVU32
 141 006e FFF7FEFF 		bl	__aeabi_f2iz
 142              	.LVL14:
 143              		.loc 1 50 36 view .LVU33
 144 0072 2B19     		adds	r3, r5, r4
 145 0074 5876     		strb	r0, [r3, #25]
 146              	.L6:
  45:Application/remote.c ****     {
 147              		.loc 1 45 28 is_stmt 1 discriminator 2 view .LVU34
  45:Application/remote.c ****     {
 148              		.loc 1 45 29 is_stmt 0 discriminator 2 view .LVU35
 149 0076 0134     		adds	r4, r4, #1
 150              	.LVL15:
 151              	.L4:
  45:Application/remote.c ****     {
 152              		.loc 1 45 21 is_stmt 1 discriminator 1 view .LVU36
  45:Application/remote.c ****     {
 153              		.loc 1 45 5 is_stmt 0 discriminator 1 view .LVU37
 154 0078 032C     		cmp	r4, #3
 155 007a 1BDC     		bgt	.L10
  47:Application/remote.c ****             data->res.rockerVal[i] = -(int)(((float)(data->info->rockerVal[i] - data->offset_rocker
 156              		.loc 1 47 9 is_stmt 1 view .LVU38
  47:Application/remote.c ****             data->res.rockerVal[i] = -(int)(((float)(data->info->rockerVal[i] - data->offset_rocker
 157              		.loc 1 47 12 is_stmt 0 view .LVU39
 158 007c 012C     		cmp	r4, #1
 159 007e E2DD     		ble	.L5
  48:Application/remote.c ****         else
 160              		.loc 1 48 13 is_stmt 1 view .LVU40
  48:Application/remote.c ****         else
ARM GAS  C:\Users\20398\AppData\Local\Temp\ccezfzWQ.s 			page 5


 161              		.loc 1 48 75 is_stmt 0 view .LVU41
 162 0080 06EB4403 		add	r3, r6, r4, lsl #1
 163 0084 D888     		ldrh	r0, [r3, #6]
  48:Application/remote.c ****         else
 164              		.loc 1 48 100 view .LVU42
 165 0086 A31D     		adds	r3, r4, #6
 166 0088 05EB4303 		add	r3, r5, r3, lsl #1
 167 008c 5B88     		ldrh	r3, [r3, #2]
  48:Application/remote.c ****         else
 168              		.loc 1 48 46 view .LVU43
 169 008e C01A     		subs	r0, r0, r3
 170 0090 FFF7FEFF 		bl	__aeabi_i2f
 171              	.LVL16:
  48:Application/remote.c ****         else
 172              		.loc 1 48 109 view .LVU44
 173 0094 4FF06851 		mov	r1, #973078528
 174 0098 FFF7FEFF 		bl	__aeabi_fmul
 175              	.LVL17:
  48:Application/remote.c ****         else
 176              		.loc 1 48 117 view .LVU45
 177 009c 0749     		ldr	r1, .L11+4
 178 009e FFF7FEFF 		bl	__aeabi_fmul
 179              	.LVL18:
  48:Application/remote.c ****         else
 180              		.loc 1 48 123 view .LVU46
 181 00a2 0749     		ldr	r1, .L11+8
 182 00a4 FFF7FEFF 		bl	__aeabi_fmul
 183              	.LVL19:
  48:Application/remote.c ****         else
 184              		.loc 1 48 39 view .LVU47
 185 00a8 FFF7FEFF 		bl	__aeabi_f2iz
 186              	.LVL20:
  48:Application/remote.c ****         else
 187              		.loc 1 48 36 view .LVU48
 188 00ac 2B19     		adds	r3, r5, r4
 189 00ae 4042     		rsbs	r0, r0, #0
 190 00b0 5876     		strb	r0, [r3, #25]
 191 00b2 E0E7     		b	.L6
 192              	.L10:
  48:Application/remote.c ****         else
 193              		.loc 1 48 36 view .LVU49
 194              	.LBE7:
  51:Application/remote.c ****     }
  52:Application/remote.c **** }
 195              		.loc 1 52 1 view .LVU50
 196 00b4 70BD     		pop	{r4, r5, r6, pc}
 197              	.LVL21:
 198              	.L12:
 199              		.loc 1 52 1 view .LVU51
 200 00b6 00BF     		.align	2
 201              	.L11:
 202 00b8 00007F43 		.word	1132396544
 203 00bc 0000FE42 		.word	1123942400
 204 00c0 0000A040 		.word	1084227584
 205              		.cfi_endproc
 206              	.LFE72:
 208              		.section	.text.RemoteHardware_Init,"ax",%progbits
ARM GAS  C:\Users\20398\AppData\Local\Temp\ccezfzWQ.s 			page 6


 209              		.align	1
 210              		.syntax unified
 211              		.thumb
 212              		.thumb_func
 214              	RemoteHardware_Init:
 215              	.LFB70:
  16:Application/remote.c ****     HAL_Delay(100); // 等待其他外设上电
 216              		.loc 1 16 1 is_stmt 1 view -0
 217              		.cfi_startproc
 218              		@ args = 0, pretend = 0, frame = 0
 219              		@ frame_needed = 0, uses_anonymous_args = 0
 220 0000 10B5     		push	{r4, lr}
 221              	.LCFI1:
 222              		.cfi_def_cfa_offset 8
 223              		.cfi_offset 4, -8
 224              		.cfi_offset 14, -4
  17:Application/remote.c ****     __disable_irq();
 225              		.loc 1 17 5 view .LVU53
 226 0002 6420     		movs	r0, #100
 227 0004 FFF7FEFF 		bl	HAL_Delay
 228              	.LVL22:
  18:Application/remote.c ****     OLED_Init();
 229              		.loc 1 18 5 view .LVU54
 230              	.LBB8:
 231              	.LBI8:
 232              		.file 2 "Drivers/CMSIS/Include/cmsis_gcc.h"
   1:Drivers/CMSIS/Include/cmsis_gcc.h **** /**************************************************************************//**
   2:Drivers/CMSIS/Include/cmsis_gcc.h ****  * @file     cmsis_gcc.h
   3:Drivers/CMSIS/Include/cmsis_gcc.h ****  * @brief    CMSIS compiler GCC header file
   4:Drivers/CMSIS/Include/cmsis_gcc.h ****  * @version  V5.0.4
   5:Drivers/CMSIS/Include/cmsis_gcc.h ****  * @date     09. April 2018
   6:Drivers/CMSIS/Include/cmsis_gcc.h ****  ******************************************************************************/
   7:Drivers/CMSIS/Include/cmsis_gcc.h **** /*
   8:Drivers/CMSIS/Include/cmsis_gcc.h ****  * Copyright (c) 2009-2018 Arm Limited. All rights reserved.
   9:Drivers/CMSIS/Include/cmsis_gcc.h ****  *
  10:Drivers/CMSIS/Include/cmsis_gcc.h ****  * SPDX-License-Identifier: Apache-2.0
  11:Drivers/CMSIS/Include/cmsis_gcc.h ****  *
  12:Drivers/CMSIS/Include/cmsis_gcc.h ****  * Licensed under the Apache License, Version 2.0 (the License); you may
  13:Drivers/CMSIS/Include/cmsis_gcc.h ****  * not use this file except in compliance with the License.
  14:Drivers/CMSIS/Include/cmsis_gcc.h ****  * You may obtain a copy of the License at
  15:Drivers/CMSIS/Include/cmsis_gcc.h ****  *
  16:Drivers/CMSIS/Include/cmsis_gcc.h ****  * www.apache.org/licenses/LICENSE-2.0
  17:Drivers/CMSIS/Include/cmsis_gcc.h ****  *
  18:Drivers/CMSIS/Include/cmsis_gcc.h ****  * Unless required by applicable law or agreed to in writing, software
  19:Drivers/CMSIS/Include/cmsis_gcc.h ****  * distributed under the License is distributed on an AS IS BASIS, WITHOUT
  20:Drivers/CMSIS/Include/cmsis_gcc.h ****  * WARRANTIES OR CONDITIONS OF ANY KIND, either express or implied.
  21:Drivers/CMSIS/Include/cmsis_gcc.h ****  * See the License for the specific language governing permissions and
  22:Drivers/CMSIS/Include/cmsis_gcc.h ****  * limitations under the License.
  23:Drivers/CMSIS/Include/cmsis_gcc.h ****  */
  24:Drivers/CMSIS/Include/cmsis_gcc.h **** 
  25:Drivers/CMSIS/Include/cmsis_gcc.h **** #ifndef __CMSIS_GCC_H
  26:Drivers/CMSIS/Include/cmsis_gcc.h **** #define __CMSIS_GCC_H
  27:Drivers/CMSIS/Include/cmsis_gcc.h **** 
  28:Drivers/CMSIS/Include/cmsis_gcc.h **** /* ignore some GCC warnings */
  29:Drivers/CMSIS/Include/cmsis_gcc.h **** #pragma GCC diagnostic push
  30:Drivers/CMSIS/Include/cmsis_gcc.h **** #pragma GCC diagnostic ignored "-Wsign-conversion"
  31:Drivers/CMSIS/Include/cmsis_gcc.h **** #pragma GCC diagnostic ignored "-Wconversion"
ARM GAS  C:\Users\20398\AppData\Local\Temp\ccezfzWQ.s 			page 7


  32:Drivers/CMSIS/Include/cmsis_gcc.h **** #pragma GCC diagnostic ignored "-Wunused-parameter"
  33:Drivers/CMSIS/Include/cmsis_gcc.h **** 
  34:Drivers/CMSIS/Include/cmsis_gcc.h **** /* Fallback for __has_builtin */
  35:Drivers/CMSIS/Include/cmsis_gcc.h **** #ifndef __has_builtin
  36:Drivers/CMSIS/Include/cmsis_gcc.h ****   #define __has_builtin(x) (0)
  37:Drivers/CMSIS/Include/cmsis_gcc.h **** #endif
  38:Drivers/CMSIS/Include/cmsis_gcc.h **** 
  39:Drivers/CMSIS/Include/cmsis_gcc.h **** /* CMSIS compiler specific defines */
  40:Drivers/CMSIS/Include/cmsis_gcc.h **** #ifndef   __ASM
  41:Drivers/CMSIS/Include/cmsis_gcc.h ****   #define __ASM                                  __asm
  42:Drivers/CMSIS/Include/cmsis_gcc.h **** #endif
  43:Drivers/CMSIS/Include/cmsis_gcc.h **** #ifndef   __INLINE
  44:Drivers/CMSIS/Include/cmsis_gcc.h ****   #define __INLINE                               inline
  45:Drivers/CMSIS/Include/cmsis_gcc.h **** #endif
  46:Drivers/CMSIS/Include/cmsis_gcc.h **** #ifndef   __STATIC_INLINE
  47:Drivers/CMSIS/Include/cmsis_gcc.h ****   #define __STATIC_INLINE                        static inline
  48:Drivers/CMSIS/Include/cmsis_gcc.h **** #endif
  49:Drivers/CMSIS/Include/cmsis_gcc.h **** #ifndef   __STATIC_FORCEINLINE                 
  50:Drivers/CMSIS/Include/cmsis_gcc.h ****   #define __STATIC_FORCEINLINE                   __attribute__((always_inline)) static inline
  51:Drivers/CMSIS/Include/cmsis_gcc.h **** #endif                                           
  52:Drivers/CMSIS/Include/cmsis_gcc.h **** #ifndef   __NO_RETURN
  53:Drivers/CMSIS/Include/cmsis_gcc.h ****   #define __NO_RETURN                            __attribute__((__noreturn__))
  54:Drivers/CMSIS/Include/cmsis_gcc.h **** #endif
  55:Drivers/CMSIS/Include/cmsis_gcc.h **** #ifndef   __USED
  56:Drivers/CMSIS/Include/cmsis_gcc.h ****   #define __USED                                 __attribute__((used))
  57:Drivers/CMSIS/Include/cmsis_gcc.h **** #endif
  58:Drivers/CMSIS/Include/cmsis_gcc.h **** #ifndef   __WEAK
  59:Drivers/CMSIS/Include/cmsis_gcc.h ****   #define __WEAK                                 __attribute__((weak))
  60:Drivers/CMSIS/Include/cmsis_gcc.h **** #endif
  61:Drivers/CMSIS/Include/cmsis_gcc.h **** #ifndef   __PACKED
  62:Drivers/CMSIS/Include/cmsis_gcc.h ****   #define __PACKED                               __attribute__((packed, aligned(1)))
  63:Drivers/CMSIS/Include/cmsis_gcc.h **** #endif
  64:Drivers/CMSIS/Include/cmsis_gcc.h **** #ifndef   __PACKED_STRUCT
  65:Drivers/CMSIS/Include/cmsis_gcc.h ****   #define __PACKED_STRUCT                        struct __attribute__((packed, aligned(1)))
  66:Drivers/CMSIS/Include/cmsis_gcc.h **** #endif
  67:Drivers/CMSIS/Include/cmsis_gcc.h **** #ifndef   __PACKED_UNION
  68:Drivers/CMSIS/Include/cmsis_gcc.h ****   #define __PACKED_UNION                         union __attribute__((packed, aligned(1)))
  69:Drivers/CMSIS/Include/cmsis_gcc.h **** #endif
  70:Drivers/CMSIS/Include/cmsis_gcc.h **** #ifndef   __UNALIGNED_UINT32        /* deprecated */
  71:Drivers/CMSIS/Include/cmsis_gcc.h ****   #pragma GCC diagnostic push
  72:Drivers/CMSIS/Include/cmsis_gcc.h ****   #pragma GCC diagnostic ignored "-Wpacked"
  73:Drivers/CMSIS/Include/cmsis_gcc.h ****   #pragma GCC diagnostic ignored "-Wattributes"
  74:Drivers/CMSIS/Include/cmsis_gcc.h ****   struct __attribute__((packed)) T_UINT32 { uint32_t v; };
  75:Drivers/CMSIS/Include/cmsis_gcc.h ****   #pragma GCC diagnostic pop
  76:Drivers/CMSIS/Include/cmsis_gcc.h ****   #define __UNALIGNED_UINT32(x)                  (((struct T_UINT32 *)(x))->v)
  77:Drivers/CMSIS/Include/cmsis_gcc.h **** #endif
  78:Drivers/CMSIS/Include/cmsis_gcc.h **** #ifndef   __UNALIGNED_UINT16_WRITE
  79:Drivers/CMSIS/Include/cmsis_gcc.h ****   #pragma GCC diagnostic push
  80:Drivers/CMSIS/Include/cmsis_gcc.h ****   #pragma GCC diagnostic ignored "-Wpacked"
  81:Drivers/CMSIS/Include/cmsis_gcc.h ****   #pragma GCC diagnostic ignored "-Wattributes"
  82:Drivers/CMSIS/Include/cmsis_gcc.h ****   __PACKED_STRUCT T_UINT16_WRITE { uint16_t v; };
  83:Drivers/CMSIS/Include/cmsis_gcc.h ****   #pragma GCC diagnostic pop
  84:Drivers/CMSIS/Include/cmsis_gcc.h ****   #define __UNALIGNED_UINT16_WRITE(addr, val)    (void)((((struct T_UINT16_WRITE *)(void *)(addr))-
  85:Drivers/CMSIS/Include/cmsis_gcc.h **** #endif
  86:Drivers/CMSIS/Include/cmsis_gcc.h **** #ifndef   __UNALIGNED_UINT16_READ
  87:Drivers/CMSIS/Include/cmsis_gcc.h ****   #pragma GCC diagnostic push
  88:Drivers/CMSIS/Include/cmsis_gcc.h ****   #pragma GCC diagnostic ignored "-Wpacked"
ARM GAS  C:\Users\20398\AppData\Local\Temp\ccezfzWQ.s 			page 8


  89:Drivers/CMSIS/Include/cmsis_gcc.h ****   #pragma GCC diagnostic ignored "-Wattributes"
  90:Drivers/CMSIS/Include/cmsis_gcc.h ****   __PACKED_STRUCT T_UINT16_READ { uint16_t v; };
  91:Drivers/CMSIS/Include/cmsis_gcc.h ****   #pragma GCC diagnostic pop
  92:Drivers/CMSIS/Include/cmsis_gcc.h ****   #define __UNALIGNED_UINT16_READ(addr)          (((const struct T_UINT16_READ *)(const void *)(add
  93:Drivers/CMSIS/Include/cmsis_gcc.h **** #endif
  94:Drivers/CMSIS/Include/cmsis_gcc.h **** #ifndef   __UNALIGNED_UINT32_WRITE
  95:Drivers/CMSIS/Include/cmsis_gcc.h ****   #pragma GCC diagnostic push
  96:Drivers/CMSIS/Include/cmsis_gcc.h ****   #pragma GCC diagnostic ignored "-Wpacked"
  97:Drivers/CMSIS/Include/cmsis_gcc.h ****   #pragma GCC diagnostic ignored "-Wattributes"
  98:Drivers/CMSIS/Include/cmsis_gcc.h ****   __PACKED_STRUCT T_UINT32_WRITE { uint32_t v; };
  99:Drivers/CMSIS/Include/cmsis_gcc.h ****   #pragma GCC diagnostic pop
 100:Drivers/CMSIS/Include/cmsis_gcc.h ****   #define __UNALIGNED_UINT32_WRITE(addr, val)    (void)((((struct T_UINT32_WRITE *)(void *)(addr))-
 101:Drivers/CMSIS/Include/cmsis_gcc.h **** #endif
 102:Drivers/CMSIS/Include/cmsis_gcc.h **** #ifndef   __UNALIGNED_UINT32_READ
 103:Drivers/CMSIS/Include/cmsis_gcc.h ****   #pragma GCC diagnostic push
 104:Drivers/CMSIS/Include/cmsis_gcc.h ****   #pragma GCC diagnostic ignored "-Wpacked"
 105:Drivers/CMSIS/Include/cmsis_gcc.h ****   #pragma GCC diagnostic ignored "-Wattributes"
 106:Drivers/CMSIS/Include/cmsis_gcc.h ****   __PACKED_STRUCT T_UINT32_READ { uint32_t v; };
 107:Drivers/CMSIS/Include/cmsis_gcc.h ****   #pragma GCC diagnostic pop
 108:Drivers/CMSIS/Include/cmsis_gcc.h ****   #define __UNALIGNED_UINT32_READ(addr)          (((const struct T_UINT32_READ *)(const void *)(add
 109:Drivers/CMSIS/Include/cmsis_gcc.h **** #endif
 110:Drivers/CMSIS/Include/cmsis_gcc.h **** #ifndef   __ALIGNED
 111:Drivers/CMSIS/Include/cmsis_gcc.h ****   #define __ALIGNED(x)                           __attribute__((aligned(x)))
 112:Drivers/CMSIS/Include/cmsis_gcc.h **** #endif
 113:Drivers/CMSIS/Include/cmsis_gcc.h **** #ifndef   __RESTRICT
 114:Drivers/CMSIS/Include/cmsis_gcc.h ****   #define __RESTRICT                             __restrict
 115:Drivers/CMSIS/Include/cmsis_gcc.h **** #endif
 116:Drivers/CMSIS/Include/cmsis_gcc.h **** 
 117:Drivers/CMSIS/Include/cmsis_gcc.h **** 
 118:Drivers/CMSIS/Include/cmsis_gcc.h **** /* ###########################  Core Function Access  ########################### */
 119:Drivers/CMSIS/Include/cmsis_gcc.h **** /** \ingroup  CMSIS_Core_FunctionInterface
 120:Drivers/CMSIS/Include/cmsis_gcc.h ****     \defgroup CMSIS_Core_RegAccFunctions CMSIS Core Register Access Functions
 121:Drivers/CMSIS/Include/cmsis_gcc.h ****   @{
 122:Drivers/CMSIS/Include/cmsis_gcc.h ****  */
 123:Drivers/CMSIS/Include/cmsis_gcc.h **** 
 124:Drivers/CMSIS/Include/cmsis_gcc.h **** /**
 125:Drivers/CMSIS/Include/cmsis_gcc.h ****   \brief   Enable IRQ Interrupts
 126:Drivers/CMSIS/Include/cmsis_gcc.h ****   \details Enables IRQ interrupts by clearing the I-bit in the CPSR.
 127:Drivers/CMSIS/Include/cmsis_gcc.h ****            Can only be executed in Privileged modes.
 128:Drivers/CMSIS/Include/cmsis_gcc.h ****  */
 129:Drivers/CMSIS/Include/cmsis_gcc.h **** __STATIC_FORCEINLINE void __enable_irq(void)
 130:Drivers/CMSIS/Include/cmsis_gcc.h **** {
 131:Drivers/CMSIS/Include/cmsis_gcc.h ****   __ASM volatile ("cpsie i" : : : "memory");
 132:Drivers/CMSIS/Include/cmsis_gcc.h **** }
 133:Drivers/CMSIS/Include/cmsis_gcc.h **** 
 134:Drivers/CMSIS/Include/cmsis_gcc.h **** 
 135:Drivers/CMSIS/Include/cmsis_gcc.h **** /**
 136:Drivers/CMSIS/Include/cmsis_gcc.h ****   \brief   Disable IRQ Interrupts
 137:Drivers/CMSIS/Include/cmsis_gcc.h ****   \details Disables IRQ interrupts by setting the I-bit in the CPSR.
 138:Drivers/CMSIS/Include/cmsis_gcc.h ****            Can only be executed in Privileged modes.
 139:Drivers/CMSIS/Include/cmsis_gcc.h ****  */
 140:Drivers/CMSIS/Include/cmsis_gcc.h **** __STATIC_FORCEINLINE void __disable_irq(void)
 233              		.loc 2 140 27 view .LVU55
 234              	.LBB9:
 141:Drivers/CMSIS/Include/cmsis_gcc.h **** {
 142:Drivers/CMSIS/Include/cmsis_gcc.h ****   __ASM volatile ("cpsid i" : : : "memory");
 235              		.loc 2 142 3 view .LVU56
ARM GAS  C:\Users\20398\AppData\Local\Temp\ccezfzWQ.s 			page 9


 236              		.syntax unified
 237              	@ 142 "Drivers/CMSIS/Include/cmsis_gcc.h" 1
 238 0008 72B6     		cpsid i
 239              	@ 0 "" 2
 240              		.thumb
 241              		.syntax unified
 242              	.LBE9:
 243              	.LBE8:
  19:Application/remote.c ****     NRF24L01_Init();
 244              		.loc 1 19 5 view .LVU57
 245 000a FFF7FEFF 		bl	OLED_Init
 246              	.LVL23:
  20:Application/remote.c ****     HAL_ADCEx_Calibration_Start(&hadc1); // ADC校准
 247              		.loc 1 20 5 view .LVU58
 248 000e FFF7FEFF 		bl	NRF24L01_Init
 249              	.LVL24:
  21:Application/remote.c ****     HAL_ADC_Start_DMA(&hadc1, (uint32_t *)adc_val, sizeof(adc_val) / sizeof(uint16_t));
 250              		.loc 1 21 5 view .LVU59
 251 0012 094C     		ldr	r4, .L16
 252 0014 2046     		mov	r0, r4
 253 0016 FFF7FEFF 		bl	HAL_ADCEx_Calibration_Start
 254              	.LVL25:
  22:Application/remote.c ****     while (!NRF24L01_Check())
 255              		.loc 1 22 5 view .LVU60
 256 001a 0822     		movs	r2, #8
 257 001c 0749     		ldr	r1, .L16+4
 258 001e 2046     		mov	r0, r4
 259 0020 FFF7FEFF 		bl	HAL_ADC_Start_DMA
 260              	.LVL26:
  23:Application/remote.c ****         ;
 261              		.loc 1 23 5 view .LVU61
 262              	.L14:
  24:Application/remote.c ****     TX_Mode(0);
 263              		.loc 1 24 9 discriminator 1 view .LVU62
  23:Application/remote.c ****         ;
 264              		.loc 1 23 11 discriminator 1 view .LVU63
  23:Application/remote.c ****         ;
 265              		.loc 1 23 13 is_stmt 0 discriminator 1 view .LVU64
 266 0024 FFF7FEFF 		bl	NRF24L01_Check
 267              	.LVL27:
  23:Application/remote.c ****         ;
 268              		.loc 1 23 11 discriminator 1 view .LVU65
 269 0028 0028     		cmp	r0, #0
 270 002a FBD0     		beq	.L14
  25:Application/remote.c ****     __enable_irq();
 271              		.loc 1 25 5 is_stmt 1 view .LVU66
 272 002c 0020     		movs	r0, #0
 273 002e FFF7FEFF 		bl	TX_Mode
 274              	.LVL28:
  26:Application/remote.c **** }
 275              		.loc 1 26 5 view .LVU67
 276              	.LBB10:
 277              	.LBI10:
 129:Drivers/CMSIS/Include/cmsis_gcc.h **** {
 278              		.loc 2 129 27 view .LVU68
 279              	.LBB11:
 131:Drivers/CMSIS/Include/cmsis_gcc.h **** }
ARM GAS  C:\Users\20398\AppData\Local\Temp\ccezfzWQ.s 			page 10


 280              		.loc 2 131 3 view .LVU69
 281              		.syntax unified
 282              	@ 131 "Drivers/CMSIS/Include/cmsis_gcc.h" 1
 283 0032 62B6     		cpsie i
 284              	@ 0 "" 2
 285              		.thumb
 286              		.syntax unified
 287              	.LBE11:
 288              	.LBE10:
  27:Application/remote.c **** 
 289              		.loc 1 27 1 is_stmt 0 view .LVU70
 290 0034 10BD     		pop	{r4, pc}
 291              	.L17:
 292 0036 00BF     		.align	2
 293              	.L16:
 294 0038 00000000 		.word	hadc1
 295 003c 00000000 		.word	.LANCHOR0
 296              		.cfi_endproc
 297              	.LFE70:
 299              		.section	.text.ScanRemoteInfo,"ax",%progbits
 300              		.align	1
 301              		.syntax unified
 302              		.thumb
 303              		.thumb_func
 305              	ScanRemoteInfo:
 306              	.LFB73:
  53:Application/remote.c **** static void ScanRemoteInfo(void)
  54:Application/remote.c **** {
 307              		.loc 1 54 1 is_stmt 1 view -0
 308              		.cfi_startproc
 309              		@ args = 0, pretend = 0, frame = 0
 310              		@ frame_needed = 0, uses_anonymous_args = 0
 311 0000 38B5     		push	{r3, r4, r5, lr}
 312              	.LCFI2:
 313              		.cfi_def_cfa_offset 16
 314              		.cfi_offset 3, -16
 315              		.cfi_offset 4, -12
 316              		.cfi_offset 5, -8
 317              		.cfi_offset 14, -4
  55:Application/remote.c ****     remote_info.key.bits.sw1 = (HAL_GPIO_ReadPin(GPIOA, GPIO_PIN_12) == GPIO_PIN_SET ? 1 : 0);
 318              		.loc 1 55 5 view .LVU72
 319              		.loc 1 55 33 is_stmt 0 view .LVU73
 320 0002 2D4D     		ldr	r5, .L20
 321 0004 4FF48051 		mov	r1, #4096
 322 0008 2846     		mov	r0, r5
 323 000a FFF7FEFF 		bl	HAL_GPIO_ReadPin
 324              	.LVL29:
 325              		.loc 1 55 90 view .LVU74
 326 000e 0128     		cmp	r0, #1
 327 0010 14BF     		ite	ne
 328 0012 0020     		movne	r0, #0
 329 0014 0120     		moveq	r0, #1
 330              		.loc 1 55 30 view .LVU75
 331 0016 294C     		ldr	r4, .L20+4
 332 0018 2378     		ldrb	r3, [r4]	@ zero_extendqisi2
 333 001a 60F30003 		bfi	r3, r0, #0, #1
 334 001e 2370     		strb	r3, [r4]
ARM GAS  C:\Users\20398\AppData\Local\Temp\ccezfzWQ.s 			page 11


  56:Application/remote.c ****     remote_info.key.bits.sw2 = (HAL_GPIO_ReadPin(GPIOA, GPIO_PIN_11) == GPIO_PIN_SET ? 1 : 0);
 335              		.loc 1 56 5 is_stmt 1 view .LVU76
 336              		.loc 1 56 33 is_stmt 0 view .LVU77
 337 0020 4FF40061 		mov	r1, #2048
 338 0024 2846     		mov	r0, r5
 339 0026 FFF7FEFF 		bl	HAL_GPIO_ReadPin
 340              	.LVL30:
 341              		.loc 1 56 90 view .LVU78
 342 002a 0128     		cmp	r0, #1
 343 002c 14BF     		ite	ne
 344 002e 0020     		movne	r0, #0
 345 0030 0120     		moveq	r0, #1
 346              		.loc 1 56 30 view .LVU79
 347 0032 2378     		ldrb	r3, [r4]	@ zero_extendqisi2
 348 0034 60F34103 		bfi	r3, r0, #1, #1
 349 0038 2370     		strb	r3, [r4]
  57:Application/remote.c ****     remote_info.key.bits.key0 = (HAL_GPIO_ReadPin(GPIOB, GPIO_PIN_4) == GPIO_PIN_RESET ? 1 : 0);
 350              		.loc 1 57 5 is_stmt 1 view .LVU80
 351              		.loc 1 57 34 is_stmt 0 view .LVU81
 352 003a 05F58065 		add	r5, r5, #1024
 353 003e 1021     		movs	r1, #16
 354 0040 2846     		mov	r0, r5
 355 0042 FFF7FEFF 		bl	HAL_GPIO_ReadPin
 356              	.LVL31:
 357              		.loc 1 57 92 view .LVU82
 358 0046 B0FA80F0 		clz	r0, r0
 359 004a 4009     		lsrs	r0, r0, #5
 360              		.loc 1 57 31 view .LVU83
 361 004c 2378     		ldrb	r3, [r4]	@ zero_extendqisi2
 362 004e 60F38203 		bfi	r3, r0, #2, #1
 363 0052 2370     		strb	r3, [r4]
  58:Application/remote.c ****     remote_info.key.bits.key1 = (HAL_GPIO_ReadPin(GPIOB, GPIO_PIN_3) == GPIO_PIN_RESET ? 1 : 0);
 364              		.loc 1 58 5 is_stmt 1 view .LVU84
 365              		.loc 1 58 34 is_stmt 0 view .LVU85
 366 0054 0821     		movs	r1, #8
 367 0056 2846     		mov	r0, r5
 368 0058 FFF7FEFF 		bl	HAL_GPIO_ReadPin
 369              	.LVL32:
 370              		.loc 1 58 92 view .LVU86
 371 005c B0FA80F0 		clz	r0, r0
 372 0060 4009     		lsrs	r0, r0, #5
 373              		.loc 1 58 31 view .LVU87
 374 0062 2378     		ldrb	r3, [r4]	@ zero_extendqisi2
 375 0064 60F3C303 		bfi	r3, r0, #3, #1
 376 0068 2370     		strb	r3, [r4]
  59:Application/remote.c ****     remote_info.key.bits.key2 = (HAL_GPIO_ReadPin(GPIOB, GPIO_PIN_13) == GPIO_PIN_RESET ? 1 : 0);
 377              		.loc 1 59 5 is_stmt 1 view .LVU88
 378              		.loc 1 59 34 is_stmt 0 view .LVU89
 379 006a 4FF40051 		mov	r1, #8192
 380 006e 2846     		mov	r0, r5
 381 0070 FFF7FEFF 		bl	HAL_GPIO_ReadPin
 382              	.LVL33:
 383              		.loc 1 59 93 view .LVU90
 384 0074 B0FA80F0 		clz	r0, r0
 385 0078 4009     		lsrs	r0, r0, #5
 386              		.loc 1 59 31 view .LVU91
 387 007a 2378     		ldrb	r3, [r4]	@ zero_extendqisi2
ARM GAS  C:\Users\20398\AppData\Local\Temp\ccezfzWQ.s 			page 12


 388 007c 60F30413 		bfi	r3, r0, #4, #1
 389 0080 2370     		strb	r3, [r4]
  60:Application/remote.c ****     remote_info.key.bits.key3 = (HAL_GPIO_ReadPin(GPIOB, GPIO_PIN_12) == GPIO_PIN_RESET ? 1 : 0);
 390              		.loc 1 60 5 is_stmt 1 view .LVU92
 391              		.loc 1 60 34 is_stmt 0 view .LVU93
 392 0082 4FF48051 		mov	r1, #4096
 393 0086 2846     		mov	r0, r5
 394 0088 FFF7FEFF 		bl	HAL_GPIO_ReadPin
 395              	.LVL34:
 396              		.loc 1 60 93 view .LVU94
 397 008c B0FA80F0 		clz	r0, r0
 398 0090 4009     		lsrs	r0, r0, #5
 399              		.loc 1 60 31 view .LVU95
 400 0092 2378     		ldrb	r3, [r4]	@ zero_extendqisi2
 401 0094 60F34513 		bfi	r3, r0, #5, #1
 402 0098 2370     		strb	r3, [r4]
  61:Application/remote.c ****     memcpy(remote_info.pVal, &adc_val[4], 2 * sizeof(uint16_t));  // 两个电位器值
 403              		.loc 1 61 5 is_stmt 1 view .LVU96
 404 009a 094A     		ldr	r2, .L20+8
 405 009c 9368     		ldr	r3, [r2, #8]
 406 009e C4F80230 		str	r3, [r4, #2]	@ unaligned
  62:Application/remote.c ****     memcpy(remote_info.rockerVal, adc_val, 4 * sizeof(uint16_t)); // 两个摇杆值
 407              		.loc 1 62 5 view .LVU97
 408 00a2 1346     		mov	r3, r2
 409 00a4 03CB     		ldmia	r3!, {r0, r1}
 410 00a6 C4F80600 		str	r0, [r4, #6]	@ unaligned
 411 00aa C4F80A10 		str	r1, [r4, #10]	@ unaligned
  63:Application/remote.c ****     memcpy(&remote.Vref, &adc_val[6], 2 * sizeof(uint16_t));      // 基准电压与温度值
 412              		.loc 1 63 5 view .LVU98
 413 00ae D268     		ldr	r2, [r2, #12]
 414 00b0 044B     		ldr	r3, .L20+12
 415 00b2 5A60     		str	r2, [r3, #4]
  64:Application/remote.c **** }
 416              		.loc 1 64 1 is_stmt 0 view .LVU99
 417 00b4 38BD     		pop	{r3, r4, r5, pc}
 418              	.L21:
 419 00b6 00BF     		.align	2
 420              	.L20:
 421 00b8 00080140 		.word	1073809408
 422 00bc 00000000 		.word	.LANCHOR1
 423 00c0 00000000 		.word	.LANCHOR0
 424 00c4 00000000 		.word	.LANCHOR2
 425              		.cfi_endproc
 426              	.LFE73:
 428              		.section	.text.ScanInfoTASK,"ax",%progbits
 429              		.align	1
 430              		.global	ScanInfoTASK
 431              		.syntax unified
 432              		.thumb
 433              		.thumb_func
 435              	ScanInfoTASK:
 436              	.LFB75:
  65:Application/remote.c **** 
  66:Application/remote.c **** static void SendBuff(void)
  67:Application/remote.c **** {
  68:Application/remote.c ****     // 0     1   2   3   4   5   6   7
  69:Application/remote.c ****     // 键值 p1   p2  rl0 rl1 rr0 rr1 校验位
ARM GAS  C:\Users\20398\AppData\Local\Temp\ccezfzWQ.s 			page 13


  70:Application/remote.c ****     tx_buf[7] = 0xBB; // 校验位
  71:Application/remote.c ****     tx_buf[0] = remote.res.key.kb;
  72:Application/remote.c ****     for (int i = 0; i < 2; i++)
  73:Application/remote.c ****         tx_buf[1 + i] = remote.res.potVal[i];
  74:Application/remote.c ****     for (int i = 0; i < 4; i++)
  75:Application/remote.c ****         tx_buf[3 + i] = remote.res.potVal[i] + 128;
  76:Application/remote.c ****     if (NRF24L01_TxPacket(tx_buf) == TX_OK)
  77:Application/remote.c ****     {
  78:Application/remote.c ****         HAL_GPIO_TogglePin(LED_GPIO_Port, LED_Pin);
  79:Application/remote.c ****         remote.online = 1;
  80:Application/remote.c ****     }
  81:Application/remote.c ****     else
  82:Application/remote.c ****         remote.online = 0;
  83:Application/remote.c **** }
  84:Application/remote.c **** 
  85:Application/remote.c **** __attribute__((noreturn)) void ScanInfoTASK(void const *argument)
  86:Application/remote.c **** {
 437              		.loc 1 86 1 is_stmt 1 view -0
 438              		.cfi_startproc
 439              		@ Volatile: function does not return.
 440              		@ args = 0, pretend = 0, frame = 0
 441              		@ frame_needed = 0, uses_anonymous_args = 0
 442              	.LVL35:
 443              		.loc 1 86 1 is_stmt 0 view .LVU101
 444 0000 08B5     		push	{r3, lr}
 445              	.LCFI3:
 446              		.cfi_def_cfa_offset 8
 447              		.cfi_offset 3, -8
 448              		.cfi_offset 14, -4
 449              	.LVL36:
 450              	.L23:
  87:Application/remote.c ****     for (;;)
 451              		.loc 1 87 5 is_stmt 1 discriminator 1 view .LVU102
  88:Application/remote.c ****     {
  89:Application/remote.c ****         ScanRemoteInfo();
 452              		.loc 1 89 9 discriminator 1 view .LVU103
 453 0002 FFF7FEFF 		bl	ScanRemoteInfo
 454              	.LVL37:
  90:Application/remote.c ****         RemoteDataProc(&remote);
 455              		.loc 1 90 9 discriminator 1 view .LVU104
 456 0006 0348     		ldr	r0, .L25
 457 0008 FFF7FEFF 		bl	RemoteDataProc
 458              	.LVL38:
  91:Application/remote.c ****         osDelay(5);
 459              		.loc 1 91 9 discriminator 1 view .LVU105
 460 000c 0520     		movs	r0, #5
 461 000e FFF7FEFF 		bl	osDelay
 462              	.LVL39:
  87:Application/remote.c ****     {
 463              		.loc 1 87 11 discriminator 1 view .LVU106
 464 0012 F6E7     		b	.L23
 465              	.L26:
 466              		.align	2
 467              	.L25:
 468 0014 00000000 		.word	.LANCHOR2
 469              		.cfi_endproc
 470              	.LFE75:
ARM GAS  C:\Users\20398\AppData\Local\Temp\ccezfzWQ.s 			page 14


 472              		.section	.text.SendBuff,"ax",%progbits
 473              		.align	1
 474              		.syntax unified
 475              		.thumb
 476              		.thumb_func
 478              	SendBuff:
 479              	.LFB74:
  67:Application/remote.c ****     // 0     1   2   3   4   5   6   7
 480              		.loc 1 67 1 view -0
 481              		.cfi_startproc
 482              		@ args = 0, pretend = 0, frame = 0
 483              		@ frame_needed = 0, uses_anonymous_args = 0
 484 0000 08B5     		push	{r3, lr}
 485              	.LCFI4:
 486              		.cfi_def_cfa_offset 8
 487              		.cfi_offset 3, -8
 488              		.cfi_offset 14, -4
  70:Application/remote.c ****     tx_buf[0] = remote.res.key.kb;
 489              		.loc 1 70 5 view .LVU108
  70:Application/remote.c ****     tx_buf[0] = remote.res.key.kb;
 490              		.loc 1 70 15 is_stmt 0 view .LVU109
 491 0002 184B     		ldr	r3, .L37
 492 0004 BB22     		movs	r2, #187
 493 0006 DA71     		strb	r2, [r3, #7]
  71:Application/remote.c ****     for (int i = 0; i < 2; i++)
 494              		.loc 1 71 5 is_stmt 1 view .LVU110
  71:Application/remote.c ****     for (int i = 0; i < 2; i++)
 495              		.loc 1 71 31 is_stmt 0 view .LVU111
 496 0008 174A     		ldr	r2, .L37+4
 497 000a 927D     		ldrb	r2, [r2, #22]	@ zero_extendqisi2
  71:Application/remote.c ****     for (int i = 0; i < 2; i++)
 498              		.loc 1 71 15 view .LVU112
 499 000c 1A70     		strb	r2, [r3]
  72:Application/remote.c ****         tx_buf[1 + i] = remote.res.potVal[i];
 500              		.loc 1 72 5 is_stmt 1 view .LVU113
 501              	.LBB12:
  72:Application/remote.c ****         tx_buf[1 + i] = remote.res.potVal[i];
 502              		.loc 1 72 10 view .LVU114
 503              	.LVL40:
  72:Application/remote.c ****         tx_buf[1 + i] = remote.res.potVal[i];
 504              		.loc 1 72 14 is_stmt 0 view .LVU115
 505 000e 0023     		movs	r3, #0
 506              	.LVL41:
 507              	.L28:
  72:Application/remote.c ****         tx_buf[1 + i] = remote.res.potVal[i];
 508              		.loc 1 72 21 is_stmt 1 discriminator 1 view .LVU116
  72:Application/remote.c ****         tx_buf[1 + i] = remote.res.potVal[i];
 509              		.loc 1 72 5 is_stmt 0 discriminator 1 view .LVU117
 510 0010 012B     		cmp	r3, #1
 511 0012 07DC     		bgt	.L35
  73:Application/remote.c ****     for (int i = 0; i < 4; i++)
 512              		.loc 1 73 9 is_stmt 1 discriminator 3 view .LVU118
  73:Application/remote.c ****     for (int i = 0; i < 4; i++)
 513              		.loc 1 73 18 is_stmt 0 discriminator 3 view .LVU119
 514 0014 591C     		adds	r1, r3, #1
  73:Application/remote.c ****     for (int i = 0; i < 4; i++)
 515              		.loc 1 73 42 discriminator 3 view .LVU120
ARM GAS  C:\Users\20398\AppData\Local\Temp\ccezfzWQ.s 			page 15


 516 0016 144A     		ldr	r2, .L37+4
 517 0018 1344     		add	r3, r3, r2
 518              	.LVL42:
  73:Application/remote.c ****     for (int i = 0; i < 4; i++)
 519              		.loc 1 73 42 discriminator 3 view .LVU121
 520 001a DA7D     		ldrb	r2, [r3, #23]	@ zero_extendqisi2
  73:Application/remote.c ****     for (int i = 0; i < 4; i++)
 521              		.loc 1 73 23 discriminator 3 view .LVU122
 522 001c 114B     		ldr	r3, .L37
 523              	.LVL43:
  73:Application/remote.c ****     for (int i = 0; i < 4; i++)
 524              		.loc 1 73 23 discriminator 3 view .LVU123
 525 001e 5A54     		strb	r2, [r3, r1]
  72:Application/remote.c ****         tx_buf[1 + i] = remote.res.potVal[i];
 526              		.loc 1 72 28 is_stmt 1 discriminator 3 view .LVU124
 527              	.LVL44:
  72:Application/remote.c ****         tx_buf[1 + i] = remote.res.potVal[i];
 528              		.loc 1 72 29 is_stmt 0 discriminator 3 view .LVU125
 529 0020 0B46     		mov	r3, r1
 530 0022 F5E7     		b	.L28
 531              	.LVL45:
 532              	.L35:
  72:Application/remote.c ****         tx_buf[1 + i] = remote.res.potVal[i];
 533              		.loc 1 72 29 discriminator 3 view .LVU126
 534              	.LBE12:
 535              	.LBB13:
  74:Application/remote.c ****         tx_buf[3 + i] = remote.res.potVal[i] + 128;
 536              		.loc 1 74 14 view .LVU127
 537 0024 0023     		movs	r3, #0
 538              	.LVL46:
  74:Application/remote.c ****         tx_buf[3 + i] = remote.res.potVal[i] + 128;
 539              		.loc 1 74 14 view .LVU128
 540 0026 08E0     		b	.L30
 541              	.LVL47:
 542              	.L31:
  75:Application/remote.c ****     if (NRF24L01_TxPacket(tx_buf) == TX_OK)
 543              		.loc 1 75 9 is_stmt 1 discriminator 3 view .LVU129
  75:Application/remote.c ****     if (NRF24L01_TxPacket(tx_buf) == TX_OK)
 544              		.loc 1 75 42 is_stmt 0 discriminator 3 view .LVU130
 545 0028 0F4A     		ldr	r2, .L37+4
 546 002a 1A44     		add	r2, r2, r3
 547 002c D27D     		ldrb	r2, [r2, #23]	@ zero_extendqisi2
  75:Application/remote.c ****     if (NRF24L01_TxPacket(tx_buf) == TX_OK)
 548              		.loc 1 75 18 discriminator 3 view .LVU131
 549 002e D91C     		adds	r1, r3, #3
  75:Application/remote.c ****     if (NRF24L01_TxPacket(tx_buf) == TX_OK)
 550              		.loc 1 75 46 discriminator 3 view .LVU132
 551 0030 82F08002 		eor	r2, r2, #128
  75:Application/remote.c ****     if (NRF24L01_TxPacket(tx_buf) == TX_OK)
 552              		.loc 1 75 23 discriminator 3 view .LVU133
 553 0034 0B48     		ldr	r0, .L37
 554 0036 4254     		strb	r2, [r0, r1]
  74:Application/remote.c ****         tx_buf[3 + i] = remote.res.potVal[i] + 128;
 555              		.loc 1 74 28 is_stmt 1 discriminator 3 view .LVU134
  74:Application/remote.c ****         tx_buf[3 + i] = remote.res.potVal[i] + 128;
 556              		.loc 1 74 29 is_stmt 0 discriminator 3 view .LVU135
 557 0038 0133     		adds	r3, r3, #1
ARM GAS  C:\Users\20398\AppData\Local\Temp\ccezfzWQ.s 			page 16


 558              	.LVL48:
 559              	.L30:
  74:Application/remote.c ****         tx_buf[3 + i] = remote.res.potVal[i] + 128;
 560              		.loc 1 74 21 is_stmt 1 discriminator 1 view .LVU136
  74:Application/remote.c ****         tx_buf[3 + i] = remote.res.potVal[i] + 128;
 561              		.loc 1 74 5 is_stmt 0 discriminator 1 view .LVU137
 562 003a 032B     		cmp	r3, #3
 563 003c F4DD     		ble	.L31
 564              	.LBE13:
  76:Application/remote.c ****     {
 565              		.loc 1 76 5 is_stmt 1 view .LVU138
  76:Application/remote.c ****     {
 566              		.loc 1 76 9 is_stmt 0 view .LVU139
 567 003e 0948     		ldr	r0, .L37
 568 0040 FFF7FEFF 		bl	NRF24L01_TxPacket
 569              	.LVL49:
  76:Application/remote.c ****     {
 570              		.loc 1 76 8 view .LVU140
 571 0044 2028     		cmp	r0, #32
 572 0046 03D0     		beq	.L36
  82:Application/remote.c **** }
 573              		.loc 1 82 9 is_stmt 1 view .LVU141
  82:Application/remote.c **** }
 574              		.loc 1 82 23 is_stmt 0 view .LVU142
 575 0048 074B     		ldr	r3, .L37+4
 576 004a 0022     		movs	r2, #0
 577 004c 1A72     		strb	r2, [r3, #8]
 578              	.L27:
  83:Application/remote.c **** 
 579              		.loc 1 83 1 view .LVU143
 580 004e 08BD     		pop	{r3, pc}
 581              	.L36:
  78:Application/remote.c ****         remote.online = 1;
 582              		.loc 1 78 9 is_stmt 1 view .LVU144
 583 0050 4FF40051 		mov	r1, #8192
 584 0054 0548     		ldr	r0, .L37+8
 585 0056 FFF7FEFF 		bl	HAL_GPIO_TogglePin
 586              	.LVL50:
  79:Application/remote.c ****     }
 587              		.loc 1 79 9 view .LVU145
  79:Application/remote.c ****     }
 588              		.loc 1 79 23 is_stmt 0 view .LVU146
 589 005a 034B     		ldr	r3, .L37+4
 590 005c 0122     		movs	r2, #1
 591 005e 1A72     		strb	r2, [r3, #8]
 592 0060 F5E7     		b	.L27
 593              	.L38:
 594 0062 00BF     		.align	2
 595              	.L37:
 596 0064 00000000 		.word	.LANCHOR3
 597 0068 00000000 		.word	.LANCHOR2
 598 006c 00100140 		.word	1073811456
 599              		.cfi_endproc
 600              	.LFE74:
 602              		.section	.text.SendTASK,"ax",%progbits
 603              		.align	1
 604              		.global	SendTASK
ARM GAS  C:\Users\20398\AppData\Local\Temp\ccezfzWQ.s 			page 17


 605              		.syntax unified
 606              		.thumb
 607              		.thumb_func
 609              	SendTASK:
 610              	.LFB76:
  92:Application/remote.c ****     }
  93:Application/remote.c **** }
  94:Application/remote.c **** 
  95:Application/remote.c **** __attribute__((noreturn)) void SendTASK(void const *argument)
  96:Application/remote.c **** {
 611              		.loc 1 96 1 is_stmt 1 view -0
 612              		.cfi_startproc
 613              		@ Volatile: function does not return.
 614              		@ args = 0, pretend = 0, frame = 0
 615              		@ frame_needed = 0, uses_anonymous_args = 0
 616              	.LVL51:
 617              		.loc 1 96 1 is_stmt 0 view .LVU148
 618 0000 08B5     		push	{r3, lr}
 619              	.LCFI5:
 620              		.cfi_def_cfa_offset 8
 621              		.cfi_offset 3, -8
 622              		.cfi_offset 14, -4
 623              	.LVL52:
 624              	.L40:
  97:Application/remote.c ****     for (;;)
 625              		.loc 1 97 5 is_stmt 1 discriminator 1 view .LVU149
  98:Application/remote.c ****     {
  99:Application/remote.c ****         SendBuff();
 626              		.loc 1 99 9 discriminator 1 view .LVU150
 627 0002 FFF7FEFF 		bl	SendBuff
 628              	.LVL53:
 100:Application/remote.c ****         osDelay(10);
 629              		.loc 1 100 9 discriminator 1 view .LVU151
 630 0006 0A20     		movs	r0, #10
 631 0008 FFF7FEFF 		bl	osDelay
 632              	.LVL54:
  97:Application/remote.c ****     for (;;)
 633              		.loc 1 97 11 discriminator 1 view .LVU152
 634 000c F9E7     		b	.L40
 635              		.cfi_endproc
 636              	.LFE76:
 638              		.section	.text.MenuTASK,"ax",%progbits
 639              		.align	1
 640              		.global	MenuTASK
 641              		.syntax unified
 642              		.thumb
 643              		.thumb_func
 645              	MenuTASK:
 646              	.LVL55:
 647              	.LFB77:
 101:Application/remote.c ****     }
 102:Application/remote.c **** }
 103:Application/remote.c **** 
 104:Application/remote.c **** static MENU_OptionTypeDef MENU_OptionList[] = {
 105:Application/remote.c ****     {"<<<", NULL},                        // 固定格式, 用于退出
 106:Application/remote.c ****     {"RockerInfo", MENU_RockerInfo},      // 工具
 107:Application/remote.c ****     {"Calibration", MENU_Calibration},    // 游戏
ARM GAS  C:\Users\20398\AppData\Local\Temp\ccezfzWQ.s 			page 18


 108:Application/remote.c ****     {"Iamge", MENU_ShowImage},            // 设置
 109:Application/remote.c ****     {"Information", MENU_ShowInfomation}, // 信息
 110:Application/remote.c ****     {"..", NULL},                         // 固定格式, 用于计算选项列表长度和退出
 111:Application/remote.c **** };
 112:Application/remote.c **** static MENU_HandleTypeDef MENU = {.OptionList = MENU_OptionList};
 113:Application/remote.c **** 
 114:Application/remote.c **** __attribute__((noreturn)) void MenuTASK(void const *argument)
 115:Application/remote.c **** {
 648              		.loc 1 115 1 view -0
 649              		.cfi_startproc
 650              		@ Volatile: function does not return.
 651              		@ args = 0, pretend = 0, frame = 0
 652              		@ frame_needed = 0, uses_anonymous_args = 0
 653              		.loc 1 115 1 is_stmt 0 view .LVU154
 654 0000 08B5     		push	{r3, lr}
 655              	.LCFI6:
 656              		.cfi_def_cfa_offset 8
 657              		.cfi_offset 3, -8
 658              		.cfi_offset 14, -4
 116:Application/remote.c ****     MENU_HandleInit(&MENU);
 659              		.loc 1 116 5 is_stmt 1 view .LVU155
 660 0002 0E48     		ldr	r0, .L45
 661              	.LVL56:
 662              		.loc 1 116 5 is_stmt 0 view .LVU156
 663 0004 FFF7FEFF 		bl	MENU_HandleInit
 664              	.LVL57:
 117:Application/remote.c ****     MENU_Init();
 665              		.loc 1 117 5 is_stmt 1 view .LVU157
 666 0008 FFF7FEFF 		bl	MENU_Init
 667              	.LVL58:
 668              	.L43:
 118:Application/remote.c ****     for (;;)
 669              		.loc 1 118 5 discriminator 1 view .LVU158
 119:Application/remote.c ****     {
 120:Application/remote.c ****         // while (MENU.isRun)
 121:Application/remote.c ****         {
 122:Application/remote.c ****             menu_command_callback(BUFFER_CLEAR); // 擦除缓冲区
 670              		.loc 1 122 13 discriminator 1 view .LVU159
 671 000c 0120     		movs	r0, #1
 672 000e FFF7FEFF 		bl	menu_command_callback
 673              	.LVL59:
 123:Application/remote.c ****             MENU_ShowOptionList(&MENU);          /* 显示选项列表 */
 674              		.loc 1 123 13 discriminator 1 view .LVU160
 675 0012 0A4C     		ldr	r4, .L45
 676 0014 2046     		mov	r0, r4
 677 0016 FFF7FEFF 		bl	MENU_ShowOptionList
 678              	.LVL60:
 124:Application/remote.c ****             MENU_ShowCursor(&MENU);              /* 显示光标 */
 679              		.loc 1 124 13 discriminator 1 view .LVU161
 680 001a 2046     		mov	r0, r4
 681 001c FFF7FEFF 		bl	MENU_ShowCursor
 682              	.LVL61:
 125:Application/remote.c ****             MENU_ShowBorder(&MENU);              // 显示边框
 683              		.loc 1 125 13 discriminator 1 view .LVU162
 684 0020 2046     		mov	r0, r4
 685 0022 FFF7FEFF 		bl	MENU_ShowBorder
 686              	.LVL62:
ARM GAS  C:\Users\20398\AppData\Local\Temp\ccezfzWQ.s 			page 19


 126:Application/remote.c **** 
 127:Application/remote.c ****             menu_command_callback(BUFFER_DISPLAY); // 缓冲区更新至显示器
 687              		.loc 1 127 13 discriminator 1 view .LVU163
 688 0026 0020     		movs	r0, #0
 689 0028 FFF7FEFF 		bl	menu_command_callback
 690              	.LVL63:
 128:Application/remote.c ****             MENU_Event_and_Action(&MENU);          // 检查事件及作相应操作
 691              		.loc 1 128 13 discriminator 1 view .LVU164
 692 002c 2046     		mov	r0, r4
 693 002e FFF7FEFF 		bl	MENU_Event_and_Action
 694              	.LVL64:
 129:Application/remote.c ****             osDelay(1);
 695              		.loc 1 129 13 discriminator 1 view .LVU165
 696 0032 0120     		movs	r0, #1
 697 0034 FFF7FEFF 		bl	osDelay
 698              	.LVL65:
 118:Application/remote.c ****     {
 699              		.loc 1 118 11 discriminator 1 view .LVU166
 700 0038 E8E7     		b	.L43
 701              	.L46:
 702 003a 00BF     		.align	2
 703              	.L45:
 704 003c 00000000 		.word	.LANCHOR4
 705              		.cfi_endproc
 706              	.LFE77:
 708              		.section	.text.Remote_Init,"ax",%progbits
 709              		.align	1
 710              		.global	Remote_Init
 711              		.syntax unified
 712              		.thumb
 713              		.thumb_func
 715              	Remote_Init:
 716              	.LFB71:
  30:Application/remote.c ****     RemoteHardware_Init();
 717              		.loc 1 30 1 view -0
 718              		.cfi_startproc
 719              		@ args = 0, pretend = 0, frame = 0
 720              		@ frame_needed = 0, uses_anonymous_args = 0
 721 0000 38B5     		push	{r3, r4, r5, lr}
 722              	.LCFI7:
 723              		.cfi_def_cfa_offset 16
 724              		.cfi_offset 3, -16
 725              		.cfi_offset 4, -12
 726              		.cfi_offset 5, -8
 727              		.cfi_offset 14, -4
  31:Application/remote.c ****     memset(&remote_info, 0x00, sizeof(RC_Info_t));
 728              		.loc 1 31 5 view .LVU168
 729 0002 FFF7FEFF 		bl	RemoteHardware_Init
 730              	.LVL66:
  32:Application/remote.c ****     memset(&remote, 0x00, sizeof(RC_t));
 731              		.loc 1 32 5 view .LVU169
 732 0006 064C     		ldr	r4, .L49
 733 0008 0021     		movs	r1, #0
 734 000a 2160     		str	r1, [r4]
 735 000c 6160     		str	r1, [r4, #4]
 736 000e A160     		str	r1, [r4, #8]
 737 0010 A181     		strh	r1, [r4, #12]	@ movhi
ARM GAS  C:\Users\20398\AppData\Local\Temp\ccezfzWQ.s 			page 20


  33:Application/remote.c ****     remote.info = &remote_info;
 738              		.loc 1 33 5 view .LVU170
 739 0012 044D     		ldr	r5, .L49+4
 740 0014 2022     		movs	r2, #32
 741 0016 2846     		mov	r0, r5
 742 0018 FFF7FEFF 		bl	memset
 743              	.LVL67:
  34:Application/remote.c **** }
 744              		.loc 1 34 5 view .LVU171
  34:Application/remote.c **** }
 745              		.loc 1 34 17 is_stmt 0 view .LVU172
 746 001c 2C60     		str	r4, [r5]
  35:Application/remote.c **** 
 747              		.loc 1 35 1 view .LVU173
 748 001e 38BD     		pop	{r3, r4, r5, pc}
 749              	.L50:
 750              		.align	2
 751              	.L49:
 752 0020 00000000 		.word	.LANCHOR1
 753 0024 00000000 		.word	.LANCHOR2
 754              		.cfi_endproc
 755              	.LFE71:
 757              		.section	.text.RemoteTask_Init,"ax",%progbits
 758              		.align	1
 759              		.global	RemoteTask_Init
 760              		.syntax unified
 761              		.thumb
 762              		.thumb_func
 764              	RemoteTask_Init:
 765              	.LFB78:
 130:Application/remote.c ****         }
 131:Application/remote.c ****     }
 132:Application/remote.c **** }
 133:Application/remote.c **** 
 134:Application/remote.c **** void RemoteTask_Init(void)
 135:Application/remote.c **** {
 766              		.loc 1 135 1 is_stmt 1 view -0
 767              		.cfi_startproc
 768              		@ args = 0, pretend = 0, frame = 88
 769              		@ frame_needed = 0, uses_anonymous_args = 0
 770 0000 10B5     		push	{r4, lr}
 771              	.LCFI8:
 772              		.cfi_def_cfa_offset 8
 773              		.cfi_offset 4, -8
 774              		.cfi_offset 14, -4
 775 0002 96B0     		sub	sp, sp, #88
 776              	.LCFI9:
 777              		.cfi_def_cfa_offset 96
 136:Application/remote.c ****     osThreadDef(scaninfotask, ScanInfoTASK, osPriorityHigh, 0, 128);
 778              		.loc 1 136 5 view .LVU175
 779 0004 1B4C     		ldr	r4, .L53
 780 0006 0DF13C0C 		add	ip, sp, #60
 781 000a A646     		mov	lr, r4
 782 000c BEE80F00 		ldmia	lr!, {r0, r1, r2, r3}
 783 0010 ACE80F00 		stmia	ip!, {r0, r1, r2, r3}
 784 0014 9EE80700 		ldm	lr, {r0, r1, r2}
 785 0018 8CE80700 		stm	ip, {r0, r1, r2}
ARM GAS  C:\Users\20398\AppData\Local\Temp\ccezfzWQ.s 			page 21


 137:Application/remote.c ****     scaninfoTaskHandle = osThreadCreate(osThread(scaninfotask), NULL); //
 786              		.loc 1 137 5 view .LVU176
 787              		.loc 1 137 26 is_stmt 0 view .LVU177
 788 001c 0021     		movs	r1, #0
 789 001e 0FA8     		add	r0, sp, #60
 790 0020 FFF7FEFF 		bl	osThreadCreate
 791              	.LVL68:
 792              		.loc 1 137 24 view .LVU178
 793 0024 144B     		ldr	r3, .L53+4
 794 0026 1860     		str	r0, [r3]
 138:Application/remote.c **** 
 139:Application/remote.c ****     osThreadDef(menutask, MenuTASK, osPriorityNormal, 0, 256);
 795              		.loc 1 139 5 is_stmt 1 view .LVU179
 796 0028 0DF1200C 		add	ip, sp, #32
 797 002c 04F11C0E 		add	lr, r4, #28
 798 0030 BEE80F00 		ldmia	lr!, {r0, r1, r2, r3}
 799 0034 ACE80F00 		stmia	ip!, {r0, r1, r2, r3}
 800 0038 9EE80700 		ldm	lr, {r0, r1, r2}
 801 003c 8CE80700 		stm	ip, {r0, r1, r2}
 140:Application/remote.c ****     menuTaskHandle = osThreadCreate(osThread(menutask), NULL);
 802              		.loc 1 140 5 view .LVU180
 803              		.loc 1 140 22 is_stmt 0 view .LVU181
 804 0040 0021     		movs	r1, #0
 805 0042 08A8     		add	r0, sp, #32
 806 0044 FFF7FEFF 		bl	osThreadCreate
 807              	.LVL69:
 808              		.loc 1 140 20 view .LVU182
 809 0048 0C4B     		ldr	r3, .L53+8
 810 004a 1860     		str	r0, [r3]
 141:Application/remote.c **** 
 142:Application/remote.c ****     osThreadDef(sendtask, SendTASK, osPriorityRealtime, 0, 128);
 811              		.loc 1 142 5 is_stmt 1 view .LVU183
 812 004c 0DF1040E 		add	lr, sp, #4
 813 0050 04F1380C 		add	ip, r4, #56
 814 0054 BCE80F00 		ldmia	ip!, {r0, r1, r2, r3}
 815 0058 AEE80F00 		stmia	lr!, {r0, r1, r2, r3}
 816 005c 9CE80700 		ldm	ip, {r0, r1, r2}
 817 0060 8EE80700 		stm	lr, {r0, r1, r2}
 143:Application/remote.c ****     sendTaskHandle = osThreadCreate(osThread(sendtask), NULL);
 818              		.loc 1 143 5 view .LVU184
 819              		.loc 1 143 22 is_stmt 0 view .LVU185
 820 0064 0021     		movs	r1, #0
 821 0066 01A8     		add	r0, sp, #4
 822 0068 FFF7FEFF 		bl	osThreadCreate
 823              	.LVL70:
 824              		.loc 1 143 20 view .LVU186
 825 006c 044B     		ldr	r3, .L53+12
 826 006e 1860     		str	r0, [r3]
 144:Application/remote.c **** }
 827              		.loc 1 144 1 view .LVU187
 828 0070 16B0     		add	sp, sp, #88
 829              	.LCFI10:
 830              		.cfi_def_cfa_offset 8
 831              		@ sp needed
 832 0072 10BD     		pop	{r4, pc}
 833              	.L54:
 834              		.align	2
ARM GAS  C:\Users\20398\AppData\Local\Temp\ccezfzWQ.s 			page 22


 835              	.L53:
 836 0074 00000000 		.word	.LANCHOR5
 837 0078 00000000 		.word	.LANCHOR6
 838 007c 00000000 		.word	.LANCHOR7
 839 0080 00000000 		.word	.LANCHOR8
 840              		.cfi_endproc
 841              	.LFE78:
 843              		.section	.text.GetRCpointer,"ax",%progbits
 844              		.align	1
 845              		.global	GetRCpointer
 846              		.syntax unified
 847              		.thumb
 848              		.thumb_func
 850              	GetRCpointer:
 851              	.LFB79:
 145:Application/remote.c **** 
 146:Application/remote.c **** RC_t *GetRCpointer(void) { return &remote; }...
 852              		.loc 1 146 26 is_stmt 1 view -0
 853              		.cfi_startproc
 854              		@ args = 0, pretend = 0, frame = 0
 855              		@ frame_needed = 0, uses_anonymous_args = 0
 856              		@ link register save eliminated.
 857              		.loc 1 146 28 view .LVU189
 858              		.loc 1 146 44 is_stmt 0 view .LVU190
 859 0000 0048     		ldr	r0, .L56
 860 0002 7047     		bx	lr
 861              	.L57:
 862              		.align	2
 863              	.L56:
 864 0004 00000000 		.word	.LANCHOR2
 865              		.cfi_endproc
 866              	.LFE79:
 868              		.section	.rodata.str1.4
 869 0025 000000   		.align	2
 870              	.LC9:
 871 0028 3C3C3C00 		.ascii	"<<<\000"
 872              		.align	2
 873              	.LC10:
 874 002c 526F636B 		.ascii	"RockerInfo\000"
 874      6572496E 
 874      666F00
 875 0037 00       		.align	2
 876              	.LC11:
 877 0038 43616C69 		.ascii	"Calibration\000"
 877      62726174 
 877      696F6E00 
 878              		.align	2
 879              	.LC12:
 880 0044 49616D67 		.ascii	"Iamge\000"
 880      6500
 881 004a 0000     		.align	2
 882              	.LC13:
 883 004c 496E666F 		.ascii	"Information\000"
 883      726D6174 
 883      696F6E00 
 884              		.align	2
 885              	.LC14:
ARM GAS  C:\Users\20398\AppData\Local\Temp\ccezfzWQ.s 			page 23


 886 0058 2E2E00   		.ascii	"..\000"
 887              		.global	sendTaskHandle
 888              		.global	menuTaskHandle
 889              		.global	scaninfoTaskHandle
 890              		.global	remote
 891              		.global	remote_info
 892              		.global	tx_buf
 893              		.global	adc_val
 894              		.section	.rodata
 895              		.align	2
 896              		.set	.LANCHOR5,. + 0
 897              	.LC6:
 898 0000 00000000 		.word	.LC0
 899 0004 00000000 		.word	ScanInfoTASK
 900 0008 0200     		.short	2
 901 000a 0000     		.space	2
 902 000c 00000000 		.word	0
 903 0010 80000000 		.word	128
 904 0014 00000000 		.word	0
 905 0018 00000000 		.word	0
 906              	.LC7:
 907 001c 10000000 		.word	.LC2
 908 0020 00000000 		.word	MenuTASK
 909 0024 0000     		.short	0
 910 0026 0000     		.space	2
 911 0028 00000000 		.word	0
 912 002c 00010000 		.word	256
 913 0030 00000000 		.word	0
 914 0034 00000000 		.word	0
 915              	.LC8:
 916 0038 1C000000 		.word	.LC4
 917 003c 00000000 		.word	SendTASK
 918 0040 0300     		.short	3
 919 0042 0000     		.space	2
 920 0044 00000000 		.word	0
 921 0048 80000000 		.word	128
 922 004c 00000000 		.word	0
 923 0050 00000000 		.word	0
 924              		.section	.bss.adc_val,"aw",%nobits
 925              		.align	2
 926              		.set	.LANCHOR0,. + 0
 929              	adc_val:
 930 0000 00000000 		.space	16
 930      00000000 
 930      00000000 
 930      00000000 
 931              		.section	.bss.menuTaskHandle,"aw",%nobits
 932              		.align	2
 933              		.set	.LANCHOR7,. + 0
 936              	menuTaskHandle:
 937 0000 00000000 		.space	4
 938              		.section	.bss.remote,"aw",%nobits
 939              		.align	2
 940              		.set	.LANCHOR2,. + 0
 943              	remote:
 944 0000 00000000 		.space	32
 944      00000000 
ARM GAS  C:\Users\20398\AppData\Local\Temp\ccezfzWQ.s 			page 24


 944      00000000 
 944      00000000 
 944      00000000 
 945              		.section	.bss.remote_info,"aw",%nobits
 946              		.align	2
 947              		.set	.LANCHOR1,. + 0
 950              	remote_info:
 951 0000 00000000 		.space	14
 951      00000000 
 951      00000000 
 951      0000
 952              		.section	.bss.scaninfoTaskHandle,"aw",%nobits
 953              		.align	2
 954              		.set	.LANCHOR6,. + 0
 957              	scaninfoTaskHandle:
 958 0000 00000000 		.space	4
 959              		.section	.bss.sendTaskHandle,"aw",%nobits
 960              		.align	2
 961              		.set	.LANCHOR8,. + 0
 964              	sendTaskHandle:
 965 0000 00000000 		.space	4
 966              		.section	.bss.tx_buf,"aw",%nobits
 967              		.align	2
 968              		.set	.LANCHOR3,. + 0
 971              	tx_buf:
 972 0000 00000000 		.space	8
 972      00000000 
 973              		.section	.data.MENU,"aw"
 974              		.align	2
 975              		.set	.LANCHOR4,. + 0
 978              	MENU:
 979 0000 00000000 		.word	MENU_OptionList
 980 0004 00000000 		.space	16
 980      00000000 
 980      00000000 
 980      00000000 
 981              		.section	.data.MENU_OptionList,"aw"
 982              		.align	2
 985              	MENU_OptionList:
 986 0000 28000000 		.word	.LC9
 987 0004 00000000 		.word	0
 988 0008 00000000 		.space	8
 988      00000000 
 989 0010 2C000000 		.word	.LC10
 990 0014 00000000 		.word	MENU_RockerInfo
 991 0018 00000000 		.space	8
 991      00000000 
 992 0020 38000000 		.word	.LC11
 993 0024 00000000 		.word	MENU_Calibration
 994 0028 00000000 		.space	8
 994      00000000 
 995 0030 44000000 		.word	.LC12
 996 0034 00000000 		.word	MENU_ShowImage
 997 0038 00000000 		.space	8
 997      00000000 
 998 0040 4C000000 		.word	.LC13
 999 0044 00000000 		.word	MENU_ShowInfomation
ARM GAS  C:\Users\20398\AppData\Local\Temp\ccezfzWQ.s 			page 25


 1000 0048 00000000 		.space	8
 1000      00000000 
 1001 0050 58000000 		.word	.LC14
 1002 0054 00000000 		.word	0
 1003 0058 00000000 		.space	8
 1003      00000000 
 1004              		.text
 1005              	.Letext0:
 1006              		.file 3 "e:\\ace2025\\enviroment\\gcc-arm-none-eabi-10.3-2021.10-win32\\arm-gnu-toolchian\\arm-non
 1007              		.file 4 "e:\\ace2025\\enviroment\\gcc-arm-none-eabi-10.3-2021.10-win32\\arm-gnu-toolchian\\arm-non
 1008              		.file 5 "Drivers/CMSIS/Device/ST/STM32F1xx/Include/stm32f103xb.h"
 1009              		.file 6 "Drivers/CMSIS/Device/ST/STM32F1xx/Include/stm32f1xx.h"
 1010              		.file 7 "Drivers/STM32F1xx_HAL_Driver/Inc/stm32f1xx_hal_def.h"
 1011              		.file 8 "Drivers/STM32F1xx_HAL_Driver/Inc/stm32f1xx_hal_gpio.h"
 1012              		.file 9 "Drivers/STM32F1xx_HAL_Driver/Inc/stm32f1xx_hal_dma.h"
 1013              		.file 10 "Drivers/STM32F1xx_HAL_Driver/Inc/stm32f1xx_hal_adc.h"
 1014              		.file 11 "Middlewares/Third_Party/FreeRTOS/Source/portable/GCC/ARM_CM3/portmacro.h"
 1015              		.file 12 "Middlewares/Third_Party/FreeRTOS/Source/include/FreeRTOS.h"
 1016              		.file 13 "Middlewares/Third_Party/FreeRTOS/Source/include/task.h"
 1017              		.file 14 "Middlewares/Third_Party/FreeRTOS/Source/CMSIS_RTOS/cmsis_os.h"
 1018              		.file 15 "Application/remote.h"
 1019              		.file 16 "Application/MENU.h"
 1020              		.file 17 "Core/Inc/adc.h"
 1021              		.file 18 "Application/menu_task.h"
 1022              		.file 19 "Modules/nrf24l01.h"
 1023              		.file 20 "Drivers/STM32F1xx_HAL_Driver/Inc/stm32f1xx_hal.h"
 1024              		.file 21 "Modules/oled.h"
 1025              		.file 22 "Drivers/STM32F1xx_HAL_Driver/Inc/stm32f1xx_hal_adc_ex.h"
 1026              		.file 23 "<built-in>"
ARM GAS  C:\Users\20398\AppData\Local\Temp\ccezfzWQ.s 			page 26


DEFINED SYMBOLS
                            *ABS*:00000000 remote.c
C:\Users\20398\AppData\Local\Temp\ccezfzWQ.s:15     .rodata.str1.4:00000000 $d
C:\Users\20398\AppData\Local\Temp\ccezfzWQ.s:31     .text.RemoteDataProc:00000000 $t
C:\Users\20398\AppData\Local\Temp\ccezfzWQ.s:36     .text.RemoteDataProc:00000000 RemoteDataProc
C:\Users\20398\AppData\Local\Temp\ccezfzWQ.s:202    .text.RemoteDataProc:000000b8 $d
C:\Users\20398\AppData\Local\Temp\ccezfzWQ.s:209    .text.RemoteHardware_Init:00000000 $t
C:\Users\20398\AppData\Local\Temp\ccezfzWQ.s:214    .text.RemoteHardware_Init:00000000 RemoteHardware_Init
C:\Users\20398\AppData\Local\Temp\ccezfzWQ.s:294    .text.RemoteHardware_Init:00000038 $d
C:\Users\20398\AppData\Local\Temp\ccezfzWQ.s:300    .text.ScanRemoteInfo:00000000 $t
C:\Users\20398\AppData\Local\Temp\ccezfzWQ.s:305    .text.ScanRemoteInfo:00000000 ScanRemoteInfo
C:\Users\20398\AppData\Local\Temp\ccezfzWQ.s:421    .text.ScanRemoteInfo:000000b8 $d
C:\Users\20398\AppData\Local\Temp\ccezfzWQ.s:429    .text.ScanInfoTASK:00000000 $t
C:\Users\20398\AppData\Local\Temp\ccezfzWQ.s:435    .text.ScanInfoTASK:00000000 ScanInfoTASK
C:\Users\20398\AppData\Local\Temp\ccezfzWQ.s:468    .text.ScanInfoTASK:00000014 $d
C:\Users\20398\AppData\Local\Temp\ccezfzWQ.s:473    .text.SendBuff:00000000 $t
C:\Users\20398\AppData\Local\Temp\ccezfzWQ.s:478    .text.SendBuff:00000000 SendBuff
C:\Users\20398\AppData\Local\Temp\ccezfzWQ.s:596    .text.SendBuff:00000064 $d
C:\Users\20398\AppData\Local\Temp\ccezfzWQ.s:603    .text.SendTASK:00000000 $t
C:\Users\20398\AppData\Local\Temp\ccezfzWQ.s:609    .text.SendTASK:00000000 SendTASK
C:\Users\20398\AppData\Local\Temp\ccezfzWQ.s:639    .text.MenuTASK:00000000 $t
C:\Users\20398\AppData\Local\Temp\ccezfzWQ.s:645    .text.MenuTASK:00000000 MenuTASK
C:\Users\20398\AppData\Local\Temp\ccezfzWQ.s:704    .text.MenuTASK:0000003c $d
C:\Users\20398\AppData\Local\Temp\ccezfzWQ.s:709    .text.Remote_Init:00000000 $t
C:\Users\20398\AppData\Local\Temp\ccezfzWQ.s:715    .text.Remote_Init:00000000 Remote_Init
C:\Users\20398\AppData\Local\Temp\ccezfzWQ.s:752    .text.Remote_Init:00000020 $d
C:\Users\20398\AppData\Local\Temp\ccezfzWQ.s:758    .text.RemoteTask_Init:00000000 $t
C:\Users\20398\AppData\Local\Temp\ccezfzWQ.s:764    .text.RemoteTask_Init:00000000 RemoteTask_Init
C:\Users\20398\AppData\Local\Temp\ccezfzWQ.s:836    .text.RemoteTask_Init:00000074 $d
C:\Users\20398\AppData\Local\Temp\ccezfzWQ.s:844    .text.GetRCpointer:00000000 $t
C:\Users\20398\AppData\Local\Temp\ccezfzWQ.s:850    .text.GetRCpointer:00000000 GetRCpointer
C:\Users\20398\AppData\Local\Temp\ccezfzWQ.s:864    .text.GetRCpointer:00000004 $d
C:\Users\20398\AppData\Local\Temp\ccezfzWQ.s:964    .bss.sendTaskHandle:00000000 sendTaskHandle
C:\Users\20398\AppData\Local\Temp\ccezfzWQ.s:936    .bss.menuTaskHandle:00000000 menuTaskHandle
C:\Users\20398\AppData\Local\Temp\ccezfzWQ.s:957    .bss.scaninfoTaskHandle:00000000 scaninfoTaskHandle
C:\Users\20398\AppData\Local\Temp\ccezfzWQ.s:943    .bss.remote:00000000 remote
C:\Users\20398\AppData\Local\Temp\ccezfzWQ.s:950    .bss.remote_info:00000000 remote_info
C:\Users\20398\AppData\Local\Temp\ccezfzWQ.s:971    .bss.tx_buf:00000000 tx_buf
C:\Users\20398\AppData\Local\Temp\ccezfzWQ.s:929    .bss.adc_val:00000000 adc_val
C:\Users\20398\AppData\Local\Temp\ccezfzWQ.s:895    .rodata:00000000 $d
C:\Users\20398\AppData\Local\Temp\ccezfzWQ.s:925    .bss.adc_val:00000000 $d
C:\Users\20398\AppData\Local\Temp\ccezfzWQ.s:932    .bss.menuTaskHandle:00000000 $d
C:\Users\20398\AppData\Local\Temp\ccezfzWQ.s:939    .bss.remote:00000000 $d
C:\Users\20398\AppData\Local\Temp\ccezfzWQ.s:946    .bss.remote_info:00000000 $d
C:\Users\20398\AppData\Local\Temp\ccezfzWQ.s:953    .bss.scaninfoTaskHandle:00000000 $d
C:\Users\20398\AppData\Local\Temp\ccezfzWQ.s:960    .bss.sendTaskHandle:00000000 $d
C:\Users\20398\AppData\Local\Temp\ccezfzWQ.s:967    .bss.tx_buf:00000000 $d
C:\Users\20398\AppData\Local\Temp\ccezfzWQ.s:974    .data.MENU:00000000 $d
C:\Users\20398\AppData\Local\Temp\ccezfzWQ.s:978    .data.MENU:00000000 MENU
C:\Users\20398\AppData\Local\Temp\ccezfzWQ.s:985    .data.MENU_OptionList:00000000 MENU_OptionList
C:\Users\20398\AppData\Local\Temp\ccezfzWQ.s:982    .data.MENU_OptionList:00000000 $d

UNDEFINED SYMBOLS
__aeabi_i2f
__aeabi_fmul
__aeabi_f2iz
HAL_Delay
ARM GAS  C:\Users\20398\AppData\Local\Temp\ccezfzWQ.s 			page 27


OLED_Init
NRF24L01_Init
HAL_ADCEx_Calibration_Start
HAL_ADC_Start_DMA
NRF24L01_Check
TX_Mode
hadc1
HAL_GPIO_ReadPin
osDelay
NRF24L01_TxPacket
HAL_GPIO_TogglePin
MENU_HandleInit
MENU_Init
menu_command_callback
MENU_ShowOptionList
MENU_ShowCursor
MENU_ShowBorder
MENU_Event_and_Action
memset
osThreadCreate
MENU_RockerInfo
MENU_Calibration
MENU_ShowImage
MENU_ShowInfomation
