ARM GAS  C:\Users\20398\AppData\Local\Temp\ccK5HbfU.s 			page 1


   1              		.cpu cortex-m3
   2              		.arch armv7-m
   3              		.fpu softvfp
   4              		.eabi_attribute 20, 1
   5              		.eabi_attribute 21, 1
   6              		.eabi_attribute 23, 3
   7              		.eabi_attribute 24, 1
   8              		.eabi_attribute 25, 1
   9              		.eabi_attribute 26, 1
  10              		.eabi_attribute 30, 1
  11              		.eabi_attribute 34, 1
  12              		.eabi_attribute 18, 4
  13              		.file	"remote.c"
  14              		.section	.rodata.str1.4,"aMS",%progbits,1
  15              		.align	2
  16              	.LC0:
  17 0000 7363616E 		.ascii	"scaninfotask\000"
  17      696E666F 
  17      7461736B 
  17      00
  18 000d 000000   		.align	2
  19              	.LC2:
  20 0010 6D656E75 		.ascii	"menutask\000"
  20      7461736B 
  20      00
  21 0019 000000   		.align	2
  22              	.LC4:
  23 001c 73656E64 		.ascii	"sendtask\000"
  23      7461736B 
  23      00
  24              		.text
  25              	.Ltext0:
  26              		.cfi_sections	.debug_frame
  27              		.global	__aeabi_i2f
  28              		.global	__aeabi_fmul
  29              		.global	__aeabi_f2iz
  30              		.section	.text.RemoteDataProc,"ax",%progbits
  31              		.align	1
  32              		.syntax unified
  33              		.thumb
  34              		.thumb_func
  36              	RemoteDataProc:
  37              	.LVL0:
  38              	.LFB72:
  39              		.file 1 "Application/remote.c"
   1:Application/remote.c **** #include "remote.h"
   2:Application/remote.c **** #include "oled.h"
   3:Application/remote.c **** #include "nrf24l01.h"
   4:Application/remote.c **** #include "adc.h"
   5:Application/remote.c **** #include "MENU.h"
   6:Application/remote.c **** #include "menu_task.h"
   7:Application/remote.c **** uint16_t adc_val[8] = {0};
   8:Application/remote.c **** uint8_t tx_buf[8] = {0};
   9:Application/remote.c **** RC_Info_t remote_info;
  10:Application/remote.c **** RC_t remote;
  11:Application/remote.c **** osThreadId scaninfoTaskHandle;
  12:Application/remote.c **** osThreadId menuTaskHandle;
ARM GAS  C:\Users\20398\AppData\Local\Temp\ccK5HbfU.s 			page 2


  13:Application/remote.c **** osThreadId sendTaskHandle;
  14:Application/remote.c **** 
  15:Application/remote.c **** static void RemoteHardware_Init(void)
  16:Application/remote.c **** {
  17:Application/remote.c ****     HAL_Delay(100); // 等待其他外设上电
  18:Application/remote.c ****     __disable_irq();
  19:Application/remote.c ****     OLED_Init();
  20:Application/remote.c ****     NRF24L01_Init();
  21:Application/remote.c ****     HAL_ADCEx_Calibration_Start(&hadc1); // ADC校准
  22:Application/remote.c ****     HAL_ADC_Start_DMA(&hadc1, (uint32_t *)adc_val, sizeof(adc_val) / sizeof(uint16_t));
  23:Application/remote.c ****     while (!NRF24L01_Check())
  24:Application/remote.c ****         ;
  25:Application/remote.c ****     TX_Mode(0);
  26:Application/remote.c ****     __enable_irq();
  27:Application/remote.c **** }
  28:Application/remote.c **** 
  29:Application/remote.c **** void Remote_Init(void)
  30:Application/remote.c **** {
  31:Application/remote.c ****     RemoteHardware_Init();
  32:Application/remote.c ****     memset(&remote_info, 0x00, sizeof(RC_Info_t));
  33:Application/remote.c ****     memset(&remote, 0x00, sizeof(RC_t));
  34:Application/remote.c ****     remote.info = &remote_info;
  35:Application/remote.c **** }
  36:Application/remote.c **** 
  37:Application/remote.c **** static void RemoteDataProc(RC_t *data)
  38:Application/remote.c **** {
  40              		.loc 1 38 1 view -0
  41              		.cfi_startproc
  42              		@ args = 0, pretend = 0, frame = 0
  43              		@ frame_needed = 0, uses_anonymous_args = 0
  44              		.loc 1 38 1 is_stmt 0 view .LVU1
  45 0000 70B5     		push	{r4, r5, r6, lr}
  46              	.LCFI0:
  47              		.cfi_def_cfa_offset 16
  48              		.cfi_offset 4, -16
  49              		.cfi_offset 5, -12
  50              		.cfi_offset 6, -8
  51              		.cfi_offset 14, -4
  52 0002 0546     		mov	r5, r0
  39:Application/remote.c ****     memcpy(&data->res.key, &data->info->key, sizeof(data->info->key));
  53              		.loc 1 39 5 is_stmt 1 view .LVU2
  54              		.loc 1 39 33 is_stmt 0 view .LVU3
  55 0004 0668     		ldr	r6, [r0]
  56 0006 3378     		ldrb	r3, [r6]	@ zero_extendqisi2
  57              		.loc 1 39 5 view .LVU4
  58 0008 8375     		strb	r3, [r0, #22]
  40:Application/remote.c ****     for (int i = 0; i < 2; i++)
  59              		.loc 1 40 5 is_stmt 1 view .LVU5
  60              	.LBB6:
  61              		.loc 1 40 10 view .LVU6
  62              	.LVL1:
  63              		.loc 1 40 14 is_stmt 0 view .LVU7
  64 000a 0024     		movs	r4, #0
  65              	.LVL2:
  66              	.L2:
  67              		.loc 1 40 21 is_stmt 1 discriminator 1 view .LVU8
  68              		.loc 1 40 5 is_stmt 0 discriminator 1 view .LVU9
ARM GAS  C:\Users\20398\AppData\Local\Temp\ccK5HbfU.s 			page 3


  69 000c 012C     		cmp	r4, #1
  70 000e 18DC     		bgt	.L9
  41:Application/remote.c ****     {
  42:Application/remote.c ****         data->res.potVal[i] = (int)(-((float)(data->info->pVal[i] - data->offset_rocker[i]) / 4096)
  71              		.loc 1 42 9 is_stmt 1 discriminator 3 view .LVU10
  72              		.loc 1 42 63 is_stmt 0 discriminator 3 view .LVU11
  73 0010 06EB4403 		add	r3, r6, r4, lsl #1
  74 0014 5888     		ldrh	r0, [r3, #2]
  75              		.loc 1 42 88 discriminator 3 view .LVU12
  76 0016 231D     		adds	r3, r4, #4
  77 0018 05EB4303 		add	r3, r5, r3, lsl #1
  78 001c 5B88     		ldrh	r3, [r3, #2]
  79              		.loc 1 42 39 discriminator 3 view .LVU13
  80 001e C01A     		subs	r0, r0, r3
  81 0020 FFF7FEFF 		bl	__aeabi_i2f
  82              	.LVL3:
  83              		.loc 1 42 93 discriminator 3 view .LVU14
  84 0024 4FF06651 		mov	r1, #964689920
  85 0028 FFF7FEFF 		bl	__aeabi_fmul
  86              	.LVL4:
  87              		.loc 1 42 37 discriminator 3 view .LVU15
  88 002c 00F10040 		add	r0, r0, #-2147483648
  89              		.loc 1 42 101 discriminator 3 view .LVU16
  90 0030 2149     		ldr	r1, .L11
  91 0032 FFF7FEFF 		bl	__aeabi_fmul
  92              	.LVL5:
  93              		.loc 1 42 31 discriminator 3 view .LVU17
  94 0036 FFF7FEFF 		bl	__aeabi_f2iz
  95              	.LVL6:
  96              		.loc 1 42 29 discriminator 3 view .LVU18
  97 003a 2B19     		adds	r3, r5, r4
  98 003c D875     		strb	r0, [r3, #23]
  40:Application/remote.c ****     for (int i = 0; i < 2; i++)
  99              		.loc 1 40 28 is_stmt 1 discriminator 3 view .LVU19
  40:Application/remote.c ****     for (int i = 0; i < 2; i++)
 100              		.loc 1 40 29 is_stmt 0 discriminator 3 view .LVU20
 101 003e 0134     		adds	r4, r4, #1
 102              	.LVL7:
  40:Application/remote.c ****     for (int i = 0; i < 2; i++)
 103              		.loc 1 40 29 discriminator 3 view .LVU21
 104 0040 E4E7     		b	.L2
 105              	.L9:
  40:Application/remote.c ****     for (int i = 0; i < 2; i++)
 106              		.loc 1 40 29 discriminator 3 view .LVU22
 107              	.LBE6:
 108              	.LBB7:
  43:Application/remote.c ****     }
  44:Application/remote.c **** 
  45:Application/remote.c ****     for (int i = 0; i < 4; i++)
 109              		.loc 1 45 14 view .LVU23
 110 0042 0024     		movs	r4, #0
 111              	.LVL8:
 112              		.loc 1 45 14 view .LVU24
 113 0044 18E0     		b	.L4
 114              	.LVL9:
 115              	.L5:
  46:Application/remote.c ****     {
ARM GAS  C:\Users\20398\AppData\Local\Temp\ccK5HbfU.s 			page 4


  47:Application/remote.c ****         if (i > 1)
  48:Application/remote.c ****             data->res.rockerVal[i] = -(int)(((float)(data->info->rockerVal[i] - data->offset_rocker
  49:Application/remote.c ****         else
  50:Application/remote.c ****             data->res.rockerVal[i] = (int)(((float)(data->info->rockerVal[i] - data->offset_rocker[
 116              		.loc 1 50 13 is_stmt 1 view .LVU25
 117              		.loc 1 50 74 is_stmt 0 view .LVU26
 118 0046 06EB4403 		add	r3, r6, r4, lsl #1
 119 004a D888     		ldrh	r0, [r3, #6]
 120              		.loc 1 50 99 view .LVU27
 121 004c A31D     		adds	r3, r4, #6
 122 004e 05EB4303 		add	r3, r5, r3, lsl #1
 123 0052 5B88     		ldrh	r3, [r3, #2]
 124              		.loc 1 50 45 view .LVU28
 125 0054 C01A     		subs	r0, r0, r3
 126 0056 FFF7FEFF 		bl	__aeabi_i2f
 127              	.LVL10:
 128              		.loc 1 50 108 view .LVU29
 129 005a 4FF06851 		mov	r1, #973078528
 130 005e FFF7FEFF 		bl	__aeabi_fmul
 131              	.LVL11:
 132              		.loc 1 50 116 view .LVU30
 133 0062 1649     		ldr	r1, .L11+4
 134 0064 FFF7FEFF 		bl	__aeabi_fmul
 135              	.LVL12:
 136              		.loc 1 50 122 view .LVU31
 137 0068 1549     		ldr	r1, .L11+8
 138 006a FFF7FEFF 		bl	__aeabi_fmul
 139              	.LVL13:
 140              		.loc 1 50 38 view .LVU32
 141 006e FFF7FEFF 		bl	__aeabi_f2iz
 142              	.LVL14:
 143              		.loc 1 50 36 view .LVU33
 144 0072 2B19     		adds	r3, r5, r4
 145 0074 5876     		strb	r0, [r3, #25]
 146              	.L6:
  45:Application/remote.c ****     {
 147              		.loc 1 45 28 is_stmt 1 discriminator 2 view .LVU34
  45:Application/remote.c ****     {
 148              		.loc 1 45 29 is_stmt 0 discriminator 2 view .LVU35
 149 0076 0134     		adds	r4, r4, #1
 150              	.LVL15:
 151              	.L4:
  45:Application/remote.c ****     {
 152              		.loc 1 45 21 is_stmt 1 discriminator 1 view .LVU36
  45:Application/remote.c ****     {
 153              		.loc 1 45 5 is_stmt 0 discriminator 1 view .LVU37
 154 0078 032C     		cmp	r4, #3
 155 007a 1BDC     		bgt	.L10
  47:Application/remote.c ****             data->res.rockerVal[i] = -(int)(((float)(data->info->rockerVal[i] - data->offset_rocker
 156              		.loc 1 47 9 is_stmt 1 view .LVU38
  47:Application/remote.c ****             data->res.rockerVal[i] = -(int)(((float)(data->info->rockerVal[i] - data->offset_rocker
 157              		.loc 1 47 12 is_stmt 0 view .LVU39
 158 007c 012C     		cmp	r4, #1
 159 007e E2DD     		ble	.L5
  48:Application/remote.c ****         else
 160              		.loc 1 48 13 is_stmt 1 view .LVU40
  48:Application/remote.c ****         else
ARM GAS  C:\Users\20398\AppData\Local\Temp\ccK5HbfU.s 			page 5


 161              		.loc 1 48 75 is_stmt 0 view .LVU41
 162 0080 06EB4403 		add	r3, r6, r4, lsl #1
 163 0084 D888     		ldrh	r0, [r3, #6]
  48:Application/remote.c ****         else
 164              		.loc 1 48 100 view .LVU42
 165 0086 A31D     		adds	r3, r4, #6
 166 0088 05EB4303 		add	r3, r5, r3, lsl #1
 167 008c 5B88     		ldrh	r3, [r3, #2]
  48:Application/remote.c ****         else
 168              		.loc 1 48 46 view .LVU43
 169 008e C01A     		subs	r0, r0, r3
 170 0090 FFF7FEFF 		bl	__aeabi_i2f
 171              	.LVL16:
  48:Application/remote.c ****         else
 172              		.loc 1 48 109 view .LVU44
 173 0094 4FF06851 		mov	r1, #973078528
 174 0098 FFF7FEFF 		bl	__aeabi_fmul
 175              	.LVL17:
  48:Application/remote.c ****         else
 176              		.loc 1 48 117 view .LVU45
 177 009c 0749     		ldr	r1, .L11+4
 178 009e FFF7FEFF 		bl	__aeabi_fmul
 179              	.LVL18:
  48:Application/remote.c ****         else
 180              		.loc 1 48 123 view .LVU46
 181 00a2 0749     		ldr	r1, .L11+8
 182 00a4 FFF7FEFF 		bl	__aeabi_fmul
 183              	.LVL19:
  48:Application/remote.c ****         else
 184              		.loc 1 48 39 view .LVU47
 185 00a8 FFF7FEFF 		bl	__aeabi_f2iz
 186              	.LVL20:
  48:Application/remote.c ****         else
 187              		.loc 1 48 36 view .LVU48
 188 00ac 2B19     		adds	r3, r5, r4
 189 00ae 4042     		rsbs	r0, r0, #0
 190 00b0 5876     		strb	r0, [r3, #25]
 191 00b2 E0E7     		b	.L6
 192              	.L10:
  48:Application/remote.c ****         else
 193              		.loc 1 48 36 view .LVU49
 194              	.LBE7:
  51:Application/remote.c ****     }
  52:Application/remote.c **** }
 195              		.loc 1 52 1 view .LVU50
 196 00b4 70BD     		pop	{r4, r5, r6, pc}
 197              	.LVL21:
 198              	.L12:
 199              		.loc 1 52 1 view .LVU51
 200 00b6 00BF     		.align	2
 201              	.L11:
 202 00b8 00007F43 		.word	1132396544
 203 00bc 0000FE42 		.word	1123942400
 204 00c0 0000A040 		.word	1084227584
 205              		.cfi_endproc
 206              	.LFE72:
 208              		.section	.text.RemoteHardware_Init,"ax",%progbits
ARM GAS  C:\Users\20398\AppData\Local\Temp\ccK5HbfU.s 			page 6


 209              		.align	1
 210              		.syntax unified
 211              		.thumb
 212              		.thumb_func
 214              	RemoteHardware_Init:
 215              	.LFB70:
  16:Application/remote.c ****     HAL_Delay(100); // 等待其他外设上电
 216              		.loc 1 16 1 is_stmt 1 view -0
 217              		.cfi_startproc
 218              		@ args = 0, pretend = 0, frame = 0
 219              		@ frame_needed = 0, uses_anonymous_args = 0
 220 0000 10B5     		push	{r4, lr}
 221              	.LCFI1:
 222              		.cfi_def_cfa_offset 8
 223              		.cfi_offset 4, -8
 224              		.cfi_offset 14, -4
  17:Application/remote.c ****     __disable_irq();
 225              		.loc 1 17 5 view .LVU53
 226 0002 6420     		movs	r0, #100
 227 0004 FFF7FEFF 		bl	HAL_Delay
 228              	.LVL22:
  18:Application/remote.c ****     OLED_Init();
 229              		.loc 1 18 5 view .LVU54
 230              	.LBB8:
 231              	.LBI8:
 232              		.file 2 "Drivers/CMSIS/Include/cmsis_gcc.h"
   1:Drivers/CMSIS/Include/cmsis_gcc.h **** /**************************************************************************//**
   2:Drivers/CMSIS/Include/cmsis_gcc.h ****  * @file     cmsis_gcc.h
   3:Drivers/CMSIS/Include/cmsis_gcc.h ****  * @brief    CMSIS compiler GCC header file
   4:Drivers/CMSIS/Include/cmsis_gcc.h ****  * @version  V5.0.4
   5:Drivers/CMSIS/Include/cmsis_gcc.h ****  * @date     09. April 2018
   6:Drivers/CMSIS/Include/cmsis_gcc.h ****  ******************************************************************************/
   7:Drivers/CMSIS/Include/cmsis_gcc.h **** /*
   8:Drivers/CMSIS/Include/cmsis_gcc.h ****  * Copyright (c) 2009-2018 Arm Limited. All rights reserved.
   9:Drivers/CMSIS/Include/cmsis_gcc.h ****  *
  10:Drivers/CMSIS/Include/cmsis_gcc.h ****  * SPDX-License-Identifier: Apache-2.0
  11:Drivers/CMSIS/Include/cmsis_gcc.h ****  *
  12:Drivers/CMSIS/Include/cmsis_gcc.h ****  * Licensed under the Apache License, Version 2.0 (the License); you may
  13:Drivers/CMSIS/Include/cmsis_gcc.h ****  * not use this file except in compliance with the License.
  14:Drivers/CMSIS/Include/cmsis_gcc.h ****  * You may obtain a copy of the License at
  15:Drivers/CMSIS/Include/cmsis_gcc.h ****  *
  16:Drivers/CMSIS/Include/cmsis_gcc.h ****  * www.apache.org/licenses/LICENSE-2.0
  17:Drivers/CMSIS/Include/cmsis_gcc.h ****  *
  18:Drivers/CMSIS/Include/cmsis_gcc.h ****  * Unless required by applicable law or agreed to in writing, software
  19:Drivers/CMSIS/Include/cmsis_gcc.h ****  * distributed under the License is distributed on an AS IS BASIS, WITHOUT
  20:Drivers/CMSIS/Include/cmsis_gcc.h ****  * WARRANTIES OR CONDITIONS OF ANY KIND, either express or implied.
  21:Drivers/CMSIS/Include/cmsis_gcc.h ****  * See the License for the specific language governing permissions and
  22:Drivers/CMSIS/Include/cmsis_gcc.h ****  * limitations under the License.
  23:Drivers/CMSIS/Include/cmsis_gcc.h ****  */
  24:Drivers/CMSIS/Include/cmsis_gcc.h **** 
  25:Drivers/CMSIS/Include/cmsis_gcc.h **** #ifndef __CMSIS_GCC_H
  26:Drivers/CMSIS/Include/cmsis_gcc.h **** #define __CMSIS_GCC_H
  27:Drivers/CMSIS/Include/cmsis_gcc.h **** 
  28:Drivers/CMSIS/Include/cmsis_gcc.h **** /* ignore some GCC warnings */
  29:Drivers/CMSIS/Include/cmsis_gcc.h **** #pragma GCC diagnostic push
  30:Drivers/CMSIS/Include/cmsis_gcc.h **** #pragma GCC diagnostic ignored "-Wsign-conversion"
  31:Drivers/CMSIS/Include/cmsis_gcc.h **** #pragma GCC diagnostic ignored "-Wconversion"
ARM GAS  C:\Users\20398\AppData\Local\Temp\ccK5HbfU.s 			page 7


  32:Drivers/CMSIS/Include/cmsis_gcc.h **** #pragma GCC diagnostic ignored "-Wunused-parameter"
  33:Drivers/CMSIS/Include/cmsis_gcc.h **** 
  34:Drivers/CMSIS/Include/cmsis_gcc.h **** /* Fallback for __has_builtin */
  35:Drivers/CMSIS/Include/cmsis_gcc.h **** #ifndef __has_builtin
  36:Drivers/CMSIS/Include/cmsis_gcc.h ****   #define __has_builtin(x) (0)
  37:Drivers/CMSIS/Include/cmsis_gcc.h **** #endif
  38:Drivers/CMSIS/Include/cmsis_gcc.h **** 
  39:Drivers/CMSIS/Include/cmsis_gcc.h **** /* CMSIS compiler specific defines */
  40:Drivers/CMSIS/Include/cmsis_gcc.h **** #ifndef   __ASM
  41:Drivers/CMSIS/Include/cmsis_gcc.h ****   #define __ASM                                  __asm
  42:Drivers/CMSIS/Include/cmsis_gcc.h **** #endif
  43:Drivers/CMSIS/Include/cmsis_gcc.h **** #ifndef   __INLINE
  44:Drivers/CMSIS/Include/cmsis_gcc.h ****   #define __INLINE                               inline
  45:Drivers/CMSIS/Include/cmsis_gcc.h **** #endif
  46:Drivers/CMSIS/Include/cmsis_gcc.h **** #ifndef   __STATIC_INLINE
  47:Drivers/CMSIS/Include/cmsis_gcc.h ****   #define __STATIC_INLINE                        static inline
  48:Drivers/CMSIS/Include/cmsis_gcc.h **** #endif
  49:Drivers/CMSIS/Include/cmsis_gcc.h **** #ifndef   __STATIC_FORCEINLINE                 
  50:Drivers/CMSIS/Include/cmsis_gcc.h ****   #define __STATIC_FORCEINLINE                   __attribute__((always_inline)) static inline
  51:Drivers/CMSIS/Include/cmsis_gcc.h **** #endif                                           
  52:Drivers/CMSIS/Include/cmsis_gcc.h **** #ifndef   __NO_RETURN
  53:Drivers/CMSIS/Include/cmsis_gcc.h ****   #define __NO_RETURN                            __attribute__((__noreturn__))
  54:Drivers/CMSIS/Include/cmsis_gcc.h **** #endif
  55:Drivers/CMSIS/Include/cmsis_gcc.h **** #ifndef   __USED
  56:Drivers/CMSIS/Include/cmsis_gcc.h ****   #define __USED                                 __attribute__((used))
  57:Drivers/CMSIS/Include/cmsis_gcc.h **** #endif
  58:Drivers/CMSIS/Include/cmsis_gcc.h **** #ifndef   __WEAK
  59:Drivers/CMSIS/Include/cmsis_gcc.h ****   #define __WEAK                                 __attribute__((weak))
  60:Drivers/CMSIS/Include/cmsis_gcc.h **** #endif
  61:Drivers/CMSIS/Include/cmsis_gcc.h **** #ifndef   __PACKED
  62:Drivers/CMSIS/Include/cmsis_gcc.h ****   #define __PACKED                               __attribute__((packed, aligned(1)))
  63:Drivers/CMSIS/Include/cmsis_gcc.h **** #endif
  64:Drivers/CMSIS/Include/cmsis_gcc.h **** #ifndef   __PACKED_STRUCT
  65:Drivers/CMSIS/Include/cmsis_gcc.h ****   #define __PACKED_STRUCT                        struct __attribute__((packed, aligned(1)))
  66:Drivers/CMSIS/Include/cmsis_gcc.h **** #endif
  67:Drivers/CMSIS/Include/cmsis_gcc.h **** #ifndef   __PACKED_UNION
  68:Drivers/CMSIS/Include/cmsis_gcc.h ****   #define __PACKED_UNION                         union __attribute__((packed, aligned(1)))
  69:Drivers/CMSIS/Include/cmsis_gcc.h **** #endif
  70:Drivers/CMSIS/Include/cmsis_gcc.h **** #ifndef   __UNALIGNED_UINT32        /* deprecated */
  71:Drivers/CMSIS/Include/cmsis_gcc.h ****   #pragma GCC diagnostic push
  72:Drivers/CMSIS/Include/cmsis_gcc.h ****   #pragma GCC diagnostic ignored "-Wpacked"
  73:Drivers/CMSIS/Include/cmsis_gcc.h ****   #pragma GCC diagnostic ignored "-Wattributes"
  74:Drivers/CMSIS/Include/cmsis_gcc.h ****   struct __attribute__((packed)) T_UINT32 { uint32_t v; };
  75:Drivers/CMSIS/Include/cmsis_gcc.h ****   #pragma GCC diagnostic pop
  76:Drivers/CMSIS/Include/cmsis_gcc.h ****   #define __UNALIGNED_UINT32(x)                  (((struct T_UINT32 *)(x))->v)
  77:Drivers/CMSIS/Include/cmsis_gcc.h **** #endif
  78:Drivers/CMSIS/Include/cmsis_gcc.h **** #ifndef   __UNALIGNED_UINT16_WRITE
  79:Drivers/CMSIS/Include/cmsis_gcc.h ****   #pragma GCC diagnostic push
  80:Drivers/CMSIS/Include/cmsis_gcc.h ****   #pragma GCC diagnostic ignored "-Wpacked"
  81:Drivers/CMSIS/Include/cmsis_gcc.h ****   #pragma GCC diagnostic ignored "-Wattributes"
  82:Drivers/CMSIS/Include/cmsis_gcc.h ****   __PACKED_STRUCT T_UINT16_WRITE { uint16_t v; };
  83:Drivers/CMSIS/Include/cmsis_gcc.h ****   #pragma GCC diagnostic pop
  84:Drivers/CMSIS/Include/cmsis_gcc.h ****   #define __UNALIGNED_UINT16_WRITE(addr, val)    (void)((((struct T_UINT16_WRITE *)(void *)(addr))-
  85:Drivers/CMSIS/Include/cmsis_gcc.h **** #endif
  86:Drivers/CMSIS/Include/cmsis_gcc.h **** #ifndef   __UNALIGNED_UINT16_READ
  87:Drivers/CMSIS/Include/cmsis_gcc.h ****   #pragma GCC diagnostic push
  88:Drivers/CMSIS/Include/cmsis_gcc.h ****   #pragma GCC diagnostic ignored "-Wpacked"
ARM GAS  C:\Users\20398\AppData\Local\Temp\ccK5HbfU.s 			page 8


  89:Drivers/CMSIS/Include/cmsis_gcc.h ****   #pragma GCC diagnostic ignored "-Wattributes"
  90:Drivers/CMSIS/Include/cmsis_gcc.h ****   __PACKED_STRUCT T_UINT16_READ { uint16_t v; };
  91:Drivers/CMSIS/Include/cmsis_gcc.h ****   #pragma GCC diagnostic pop
  92:Drivers/CMSIS/Include/cmsis_gcc.h ****   #define __UNALIGNED_UINT16_READ(addr)          (((const struct T_UINT16_READ *)(const void *)(add
  93:Drivers/CMSIS/Include/cmsis_gcc.h **** #endif
  94:Drivers/CMSIS/Include/cmsis_gcc.h **** #ifndef   __UNALIGNED_UINT32_WRITE
  95:Drivers/CMSIS/Include/cmsis_gcc.h ****   #pragma GCC diagnostic push
  96:Drivers/CMSIS/Include/cmsis_gcc.h ****   #pragma GCC diagnostic ignored "-Wpacked"
  97:Drivers/CMSIS/Include/cmsis_gcc.h ****   #pragma GCC diagnostic ignored "-Wattributes"
  98:Drivers/CMSIS/Include/cmsis_gcc.h ****   __PACKED_STRUCT T_UINT32_WRITE { uint32_t v; };
  99:Drivers/CMSIS/Include/cmsis_gcc.h ****   #pragma GCC diagnostic pop
 100:Drivers/CMSIS/Include/cmsis_gcc.h ****   #define __UNALIGNED_UINT32_WRITE(addr, val)    (void)((((struct T_UINT32_WRITE *)(void *)(addr))-
 101:Drivers/CMSIS/Include/cmsis_gcc.h **** #endif
 102:Drivers/CMSIS/Include/cmsis_gcc.h **** #ifndef   __UNALIGNED_UINT32_READ
 103:Drivers/CMSIS/Include/cmsis_gcc.h ****   #pragma GCC diagnostic push
 104:Drivers/CMSIS/Include/cmsis_gcc.h ****   #pragma GCC diagnostic ignored "-Wpacked"
 105:Drivers/CMSIS/Include/cmsis_gcc.h ****   #pragma GCC diagnostic ignored "-Wattributes"
 106:Drivers/CMSIS/Include/cmsis_gcc.h ****   __PACKED_STRUCT T_UINT32_READ { uint32_t v; };
 107:Drivers/CMSIS/Include/cmsis_gcc.h ****   #pragma GCC diagnostic pop
 108:Drivers/CMSIS/Include/cmsis_gcc.h ****   #define __UNALIGNED_UINT32_READ(addr)          (((const struct T_UINT32_READ *)(const void *)(add
 109:Drivers/CMSIS/Include/cmsis_gcc.h **** #endif
 110:Drivers/CMSIS/Include/cmsis_gcc.h **** #ifndef   __ALIGNED
 111:Drivers/CMSIS/Include/cmsis_gcc.h ****   #define __ALIGNED(x)                           __attribute__((aligned(x)))
 112:Drivers/CMSIS/Include/cmsis_gcc.h **** #endif
 113:Drivers/CMSIS/Include/cmsis_gcc.h **** #ifndef   __RESTRICT
 114:Drivers/CMSIS/Include/cmsis_gcc.h ****   #define __RESTRICT                             __restrict
 115:Drivers/CMSIS/Include/cmsis_gcc.h **** #endif
 116:Drivers/CMSIS/Include/cmsis_gcc.h **** 
 117:Drivers/CMSIS/Include/cmsis_gcc.h **** 
 118:Drivers/CMSIS/Include/cmsis_gcc.h **** /* ###########################  Core Function Access  ########################### */
 119:Drivers/CMSIS/Include/cmsis_gcc.h **** /** \ingroup  CMSIS_Core_FunctionInterface
 120:Drivers/CMSIS/Include/cmsis_gcc.h ****     \defgroup CMSIS_Core_RegAccFunctions CMSIS Core Register Access Functions
 121:Drivers/CMSIS/Include/cmsis_gcc.h ****   @{
 122:Drivers/CMSIS/Include/cmsis_gcc.h ****  */
 123:Drivers/CMSIS/Include/cmsis_gcc.h **** 
 124:Drivers/CMSIS/Include/cmsis_gcc.h **** /**
 125:Drivers/CMSIS/Include/cmsis_gcc.h ****   \brief   Enable IRQ Interrupts
 126:Drivers/CMSIS/Include/cmsis_gcc.h ****   \details Enables IRQ interrupts by clearing the I-bit in the CPSR.
 127:Drivers/CMSIS/Include/cmsis_gcc.h ****            Can only be executed in Privileged modes.
 128:Drivers/CMSIS/Include/cmsis_gcc.h ****  */
 129:Drivers/CMSIS/Include/cmsis_gcc.h **** __STATIC_FORCEINLINE void __enable_irq(void)
 130:Drivers/CMSIS/Include/cmsis_gcc.h **** {
 131:Drivers/CMSIS/Include/cmsis_gcc.h ****   __ASM volatile ("cpsie i" : : : "memory");
 132:Drivers/CMSIS/Include/cmsis_gcc.h **** }
 133:Drivers/CMSIS/Include/cmsis_gcc.h **** 
 134:Drivers/CMSIS/Include/cmsis_gcc.h **** 
 135:Drivers/CMSIS/Include/cmsis_gcc.h **** /**
 136:Drivers/CMSIS/Include/cmsis_gcc.h ****   \brief   Disable IRQ Interrupts
 137:Drivers/CMSIS/Include/cmsis_gcc.h ****   \details Disables IRQ interrupts by setting the I-bit in the CPSR.
 138:Drivers/CMSIS/Include/cmsis_gcc.h ****            Can only be executed in Privileged modes.
 139:Drivers/CMSIS/Include/cmsis_gcc.h ****  */
 140:Drivers/CMSIS/Include/cmsis_gcc.h **** __STATIC_FORCEINLINE void __disable_irq(void)
 233              		.loc 2 140 27 view .LVU55
 234              	.LBB9:
 141:Drivers/CMSIS/Include/cmsis_gcc.h **** {
 142:Drivers/CMSIS/Include/cmsis_gcc.h ****   __ASM volatile ("cpsid i" : : : "memory");
 235              		.loc 2 142 3 view .LVU56
ARM GAS  C:\Users\20398\AppData\Local\Temp\ccK5HbfU.s 			page 9


 236              		.syntax unified
 237              	@ 142 "Drivers/CMSIS/Include/cmsis_gcc.h" 1
 238 0008 72B6     		cpsid i
 239              	@ 0 "" 2
 240              		.thumb
 241              		.syntax unified
 242              	.LBE9:
 243              	.LBE8:
  19:Application/remote.c ****     NRF24L01_Init();
 244              		.loc 1 19 5 view .LVU57
 245 000a FFF7FEFF 		bl	OLED_Init
 246              	.LVL23:
  20:Application/remote.c ****     HAL_ADCEx_Calibration_Start(&hadc1); // ADC校准
 247              		.loc 1 20 5 view .LVU58
 248 000e FFF7FEFF 		bl	NRF24L01_Init
 249              	.LVL24:
  21:Application/remote.c ****     HAL_ADC_Start_DMA(&hadc1, (uint32_t *)adc_val, sizeof(adc_val) / sizeof(uint16_t));
 250              		.loc 1 21 5 view .LVU59
 251 0012 094C     		ldr	r4, .L16
 252 0014 2046     		mov	r0, r4
 253 0016 FFF7FEFF 		bl	HAL_ADCEx_Calibration_Start
 254              	.LVL25:
  22:Application/remote.c ****     while (!NRF24L01_Check())
 255              		.loc 1 22 5 view .LVU60
 256 001a 0822     		movs	r2, #8
 257 001c 0749     		ldr	r1, .L16+4
 258 001e 2046     		mov	r0, r4
 259 0020 FFF7FEFF 		bl	HAL_ADC_Start_DMA
 260              	.LVL26:
  23:Application/remote.c ****         ;
 261              		.loc 1 23 5 view .LVU61
 262              	.L14:
  24:Application/remote.c ****     TX_Mode(0);
 263              		.loc 1 24 9 discriminator 1 view .LVU62
  23:Application/remote.c ****         ;
 264              		.loc 1 23 11 discriminator 1 view .LVU63
  23:Application/remote.c ****         ;
 265              		.loc 1 23 13 is_stmt 0 discriminator 1 view .LVU64
 266 0024 FFF7FEFF 		bl	NRF24L01_Check
 267              	.LVL27:
  23:Application/remote.c ****         ;
 268              		.loc 1 23 11 discriminator 1 view .LVU65
 269 0028 0028     		cmp	r0, #0
 270 002a FBD0     		beq	.L14
  25:Application/remote.c ****     __enable_irq();
 271              		.loc 1 25 5 is_stmt 1 view .LVU66
 272 002c 0020     		movs	r0, #0
 273 002e FFF7FEFF 		bl	TX_Mode
 274              	.LVL28:
  26:Application/remote.c **** }
 275              		.loc 1 26 5 view .LVU67
 276              	.LBB10:
 277              	.LBI10:
 129:Drivers/CMSIS/Include/cmsis_gcc.h **** {
 278              		.loc 2 129 27 view .LVU68
 279              	.LBB11:
 131:Drivers/CMSIS/Include/cmsis_gcc.h **** }
ARM GAS  C:\Users\20398\AppData\Local\Temp\ccK5HbfU.s 			page 10


 280              		.loc 2 131 3 view .LVU69
 281              		.syntax unified
 282              	@ 131 "Drivers/CMSIS/Include/cmsis_gcc.h" 1
 283 0032 62B6     		cpsie i
 284              	@ 0 "" 2
 285              		.thumb
 286              		.syntax unified
 287              	.LBE11:
 288              	.LBE10:
  27:Application/remote.c **** 
 289              		.loc 1 27 1 is_stmt 0 view .LVU70
 290 0034 10BD     		pop	{r4, pc}
 291              	.L17:
 292 0036 00BF     		.align	2
 293              	.L16:
 294 0038 00000000 		.word	hadc1
 295 003c 00000000 		.word	.LANCHOR0
 296              		.cfi_endproc
 297              	.LFE70:
 299              		.section	.text.ScanRemoteInfo,"ax",%progbits
 300              		.align	1
 301              		.syntax unified
 302              		.thumb
 303              		.thumb_func
 305              	ScanRemoteInfo:
 306              	.LFB73:
  53:Application/remote.c **** static void ScanRemoteInfo(void)
  54:Application/remote.c **** {
 307              		.loc 1 54 1 is_stmt 1 view -0
 308              		.cfi_startproc
 309              		@ args = 0, pretend = 0, frame = 0
 310              		@ frame_needed = 0, uses_anonymous_args = 0
 311 0000 38B5     		push	{r3, r4, r5, lr}
 312              	.LCFI2:
 313              		.cfi_def_cfa_offset 16
 314              		.cfi_offset 3, -16
 315              		.cfi_offset 4, -12
 316              		.cfi_offset 5, -8
 317              		.cfi_offset 14, -4
  55:Application/remote.c ****     remote_info.key.bits.sw1 = (HAL_GPIO_ReadPin(GPIOA, GPIO_PIN_12) == GPIO_PIN_SET ? 1 : 0);
 318              		.loc 1 55 5 view .LVU72
 319              		.loc 1 55 33 is_stmt 0 view .LVU73
 320 0002 2D4D     		ldr	r5, .L20
 321 0004 4FF48051 		mov	r1, #4096
 322 0008 2846     		mov	r0, r5
 323 000a FFF7FEFF 		bl	HAL_GPIO_ReadPin
 324              	.LVL29:
 325              		.loc 1 55 90 view .LVU74
 326 000e 0128     		cmp	r0, #1
 327 0010 14BF     		ite	ne
 328 0012 0020     		movne	r0, #0
 329 0014 0120     		moveq	r0, #1
 330              		.loc 1 55 30 view .LVU75
 331 0016 294C     		ldr	r4, .L20+4
 332 0018 2378     		ldrb	r3, [r4]	@ zero_extendqisi2
 333 001a 60F30003 		bfi	r3, r0, #0, #1
 334 001e 2370     		strb	r3, [r4]
ARM GAS  C:\Users\20398\AppData\Local\Temp\ccK5HbfU.s 			page 11


  56:Application/remote.c ****     remote_info.key.bits.sw2 = (HAL_GPIO_ReadPin(GPIOA, GPIO_PIN_11) == GPIO_PIN_SET ? 1 : 0);
 335              		.loc 1 56 5 is_stmt 1 view .LVU76
 336              		.loc 1 56 33 is_stmt 0 view .LVU77
 337 0020 4FF40061 		mov	r1, #2048
 338 0024 2846     		mov	r0, r5
 339 0026 FFF7FEFF 		bl	HAL_GPIO_ReadPin
 340              	.LVL30:
 341              		.loc 1 56 90 view .LVU78
 342 002a 0128     		cmp	r0, #1
 343 002c 14BF     		ite	ne
 344 002e 0020     		movne	r0, #0
 345 0030 0120     		moveq	r0, #1
 346              		.loc 1 56 30 view .LVU79
 347 0032 2378     		ldrb	r3, [r4]	@ zero_extendqisi2
 348 0034 60F34103 		bfi	r3, r0, #1, #1
 349 0038 2370     		strb	r3, [r4]
  57:Application/remote.c ****     remote_info.key.bits.key0 = (HAL_GPIO_ReadPin(GPIOB, GPIO_PIN_4) == GPIO_PIN_RESET ? 1 : 0);
 350              		.loc 1 57 5 is_stmt 1 view .LVU80
 351              		.loc 1 57 34 is_stmt 0 view .LVU81
 352 003a 05F58065 		add	r5, r5, #1024
 353 003e 1021     		movs	r1, #16
 354 0040 2846     		mov	r0, r5
 355 0042 FFF7FEFF 		bl	HAL_GPIO_ReadPin
 356              	.LVL31:
 357              		.loc 1 57 92 view .LVU82
 358 0046 B0FA80F0 		clz	r0, r0
 359 004a 4009     		lsrs	r0, r0, #5
 360              		.loc 1 57 31 view .LVU83
 361 004c 2378     		ldrb	r3, [r4]	@ zero_extendqisi2
 362 004e 60F38203 		bfi	r3, r0, #2, #1
 363 0052 2370     		strb	r3, [r4]
  58:Application/remote.c ****     remote_info.key.bits.key1 = (HAL_GPIO_ReadPin(GPIOB, GPIO_PIN_3) == GPIO_PIN_RESET ? 1 : 0);
 364              		.loc 1 58 5 is_stmt 1 view .LVU84
 365              		.loc 1 58 34 is_stmt 0 view .LVU85
 366 0054 0821     		movs	r1, #8
 367 0056 2846     		mov	r0, r5
 368 0058 FFF7FEFF 		bl	HAL_GPIO_ReadPin
 369              	.LVL32:
 370              		.loc 1 58 92 view .LVU86
 371 005c B0FA80F0 		clz	r0, r0
 372 0060 4009     		lsrs	r0, r0, #5
 373              		.loc 1 58 31 view .LVU87
 374 0062 2378     		ldrb	r3, [r4]	@ zero_extendqisi2
 375 0064 60F3C303 		bfi	r3, r0, #3, #1
 376 0068 2370     		strb	r3, [r4]
  59:Application/remote.c ****     remote_info.key.bits.key2 = (HAL_GPIO_ReadPin(GPIOB, GPIO_PIN_13) == GPIO_PIN_RESET ? 1 : 0);
 377              		.loc 1 59 5 is_stmt 1 view .LVU88
 378              		.loc 1 59 34 is_stmt 0 view .LVU89
 379 006a 4FF40051 		mov	r1, #8192
 380 006e 2846     		mov	r0, r5
 381 0070 FFF7FEFF 		bl	HAL_GPIO_ReadPin
 382              	.LVL33:
 383              		.loc 1 59 93 view .LVU90
 384 0074 B0FA80F0 		clz	r0, r0
 385 0078 4009     		lsrs	r0, r0, #5
 386              		.loc 1 59 31 view .LVU91
 387 007a 2378     		ldrb	r3, [r4]	@ zero_extendqisi2
ARM GAS  C:\Users\20398\AppData\Local\Temp\ccK5HbfU.s 			page 12


 388 007c 60F30413 		bfi	r3, r0, #4, #1
 389 0080 2370     		strb	r3, [r4]
  60:Application/remote.c ****     remote_info.key.bits.key3 = (HAL_GPIO_ReadPin(GPIOB, GPIO_PIN_12) == GPIO_PIN_RESET ? 1 : 0);
 390              		.loc 1 60 5 is_stmt 1 view .LVU92
 391              		.loc 1 60 34 is_stmt 0 view .LVU93
 392 0082 4FF48051 		mov	r1, #4096
 393 0086 2846     		mov	r0, r5
 394 0088 FFF7FEFF 		bl	HAL_GPIO_ReadPin
 395              	.LVL34:
 396              		.loc 1 60 93 view .LVU94
 397 008c B0FA80F0 		clz	r0, r0
 398 0090 4009     		lsrs	r0, r0, #5
 399              		.loc 1 60 31 view .LVU95
 400 0092 2378     		ldrb	r3, [r4]	@ zero_extendqisi2
 401 0094 60F34513 		bfi	r3, r0, #5, #1
 402 0098 2370     		strb	r3, [r4]
  61:Application/remote.c ****     memcpy(remote_info.pVal, &adc_val[4], 2 * sizeof(uint16_t));  // 两个电位器值
 403              		.loc 1 61 5 is_stmt 1 view .LVU96
 404 009a 094A     		ldr	r2, .L20+8
 405 009c 9368     		ldr	r3, [r2, #8]
 406 009e C4F80230 		str	r3, [r4, #2]	@ unaligned
  62:Application/remote.c ****     memcpy(remote_info.rockerVal, adc_val, 4 * sizeof(uint16_t)); // 两个摇杆值
 407              		.loc 1 62 5 view .LVU97
 408 00a2 1346     		mov	r3, r2
 409 00a4 03CB     		ldmia	r3!, {r0, r1}
 410 00a6 C4F80600 		str	r0, [r4, #6]	@ unaligned
 411 00aa C4F80A10 		str	r1, [r4, #10]	@ unaligned
  63:Application/remote.c ****     memcpy(&remote.Vref, &adc_val[6], 2 * sizeof(uint16_t));      // 基准电压与温度值
 412              		.loc 1 63 5 view .LVU98
 413 00ae D268     		ldr	r2, [r2, #12]
 414 00b0 044B     		ldr	r3, .L20+12
 415 00b2 5A60     		str	r2, [r3, #4]
  64:Application/remote.c **** }
 416              		.loc 1 64 1 is_stmt 0 view .LVU99
 417 00b4 38BD     		pop	{r3, r4, r5, pc}
 418              	.L21:
 419 00b6 00BF     		.align	2
 420              	.L20:
 421 00b8 00080140 		.word	1073809408
 422 00bc 00000000 		.word	.LANCHOR1
 423 00c0 00000000 		.word	.LANCHOR0
 424 00c4 00000000 		.word	.LANCHOR2
 425              		.cfi_endproc
 426              	.LFE73:
 428              		.section	.text.ScanInfoTASK,"ax",%progbits
 429              		.align	1
 430              		.global	ScanInfoTASK
 431              		.syntax unified
 432              		.thumb
 433              		.thumb_func
 435              	ScanInfoTASK:
 436              	.LFB75:
  65:Application/remote.c **** 
  66:Application/remote.c **** static void SendBuff(void)
  67:Application/remote.c **** {
  68:Application/remote.c ****     // 0     1   2   3   4   5   6   7
  69:Application/remote.c ****     // 键值 p1   p2  rl0 rl1 rr0 rr1 校验位
ARM GAS  C:\Users\20398\AppData\Local\Temp\ccK5HbfU.s 			page 13


  70:Application/remote.c ****     tx_buf[7] = 0xBB; // 校验位
  71:Application/remote.c ****     tx_buf[0] = remote.res.key.kb;
  72:Application/remote.c ****     for (int i = 0; i < 2; i++)
  73:Application/remote.c ****         tx_buf[1 + i] = remote.res.potVal[i];
  74:Application/remote.c ****     for (int i = 0; i < 4; i++)
  75:Application/remote.c ****         tx_buf[3 + i] = remote.res.rockerVal[i] + 128;
  76:Application/remote.c ****     if (NRF24L01_TxPacket(tx_buf) == TX_OK)
  77:Application/remote.c ****     {
  78:Application/remote.c ****         HAL_GPIO_WritePin(LED_GPIO_Port, LED_Pin, GPIO_PIN_SET);
  79:Application/remote.c ****         remote.online = 1;
  80:Application/remote.c ****     }
  81:Application/remote.c ****     else
  82:Application/remote.c ****     {
  83:Application/remote.c ****         HAL_GPIO_WritePin(LED_GPIO_Port, LED_Pin, GPIO_PIN_RESET);
  84:Application/remote.c ****         remote.online = 0;
  85:Application/remote.c ****     }
  86:Application/remote.c **** }
  87:Application/remote.c **** 
  88:Application/remote.c **** __attribute__((noreturn)) void ScanInfoTASK(void const *argument)
  89:Application/remote.c **** {
 437              		.loc 1 89 1 is_stmt 1 view -0
 438              		.cfi_startproc
 439              		@ Volatile: function does not return.
 440              		@ args = 0, pretend = 0, frame = 0
 441              		@ frame_needed = 0, uses_anonymous_args = 0
 442              	.LVL35:
 443              		.loc 1 89 1 is_stmt 0 view .LVU101
 444 0000 08B5     		push	{r3, lr}
 445              	.LCFI3:
 446              		.cfi_def_cfa_offset 8
 447              		.cfi_offset 3, -8
 448              		.cfi_offset 14, -4
 449              	.LVL36:
 450              	.L23:
  90:Application/remote.c ****     for (;;)
 451              		.loc 1 90 5 is_stmt 1 discriminator 1 view .LVU102
  91:Application/remote.c ****     {
  92:Application/remote.c ****         ScanRemoteInfo();
 452              		.loc 1 92 9 discriminator 1 view .LVU103
 453 0002 FFF7FEFF 		bl	ScanRemoteInfo
 454              	.LVL37:
  93:Application/remote.c ****         RemoteDataProc(&remote);
 455              		.loc 1 93 9 discriminator 1 view .LVU104
 456 0006 0348     		ldr	r0, .L25
 457 0008 FFF7FEFF 		bl	RemoteDataProc
 458              	.LVL38:
  94:Application/remote.c ****         osDelay(5);
 459              		.loc 1 94 9 discriminator 1 view .LVU105
 460 000c 0520     		movs	r0, #5
 461 000e FFF7FEFF 		bl	osDelay
 462              	.LVL39:
  90:Application/remote.c ****     {
 463              		.loc 1 90 11 discriminator 1 view .LVU106
 464 0012 F6E7     		b	.L23
 465              	.L26:
 466              		.align	2
 467              	.L25:
ARM GAS  C:\Users\20398\AppData\Local\Temp\ccK5HbfU.s 			page 14


 468 0014 00000000 		.word	.LANCHOR2
 469              		.cfi_endproc
 470              	.LFE75:
 472              		.section	.text.SendBuff,"ax",%progbits
 473              		.align	1
 474              		.syntax unified
 475              		.thumb
 476              		.thumb_func
 478              	SendBuff:
 479              	.LFB74:
  67:Application/remote.c ****     // 0     1   2   3   4   5   6   7
 480              		.loc 1 67 1 view -0
 481              		.cfi_startproc
 482              		@ args = 0, pretend = 0, frame = 0
 483              		@ frame_needed = 0, uses_anonymous_args = 0
 484 0000 08B5     		push	{r3, lr}
 485              	.LCFI4:
 486              		.cfi_def_cfa_offset 8
 487              		.cfi_offset 3, -8
 488              		.cfi_offset 14, -4
  70:Application/remote.c ****     tx_buf[0] = remote.res.key.kb;
 489              		.loc 1 70 5 view .LVU108
  70:Application/remote.c ****     tx_buf[0] = remote.res.key.kb;
 490              		.loc 1 70 15 is_stmt 0 view .LVU109
 491 0002 1B4B     		ldr	r3, .L37
 492 0004 BB22     		movs	r2, #187
 493 0006 DA71     		strb	r2, [r3, #7]
  71:Application/remote.c ****     for (int i = 0; i < 2; i++)
 494              		.loc 1 71 5 is_stmt 1 view .LVU110
  71:Application/remote.c ****     for (int i = 0; i < 2; i++)
 495              		.loc 1 71 31 is_stmt 0 view .LVU111
 496 0008 1A4A     		ldr	r2, .L37+4
 497 000a 927D     		ldrb	r2, [r2, #22]	@ zero_extendqisi2
  71:Application/remote.c ****     for (int i = 0; i < 2; i++)
 498              		.loc 1 71 15 view .LVU112
 499 000c 1A70     		strb	r2, [r3]
  72:Application/remote.c ****         tx_buf[1 + i] = remote.res.potVal[i];
 500              		.loc 1 72 5 is_stmt 1 view .LVU113
 501              	.LBB12:
  72:Application/remote.c ****         tx_buf[1 + i] = remote.res.potVal[i];
 502              		.loc 1 72 10 view .LVU114
 503              	.LVL40:
  72:Application/remote.c ****         tx_buf[1 + i] = remote.res.potVal[i];
 504              		.loc 1 72 14 is_stmt 0 view .LVU115
 505 000e 0023     		movs	r3, #0
 506              	.LVL41:
 507              	.L28:
  72:Application/remote.c ****         tx_buf[1 + i] = remote.res.potVal[i];
 508              		.loc 1 72 21 is_stmt 1 discriminator 1 view .LVU116
  72:Application/remote.c ****         tx_buf[1 + i] = remote.res.potVal[i];
 509              		.loc 1 72 5 is_stmt 0 discriminator 1 view .LVU117
 510 0010 012B     		cmp	r3, #1
 511 0012 07DC     		bgt	.L35
  73:Application/remote.c ****     for (int i = 0; i < 4; i++)
 512              		.loc 1 73 9 is_stmt 1 discriminator 3 view .LVU118
  73:Application/remote.c ****     for (int i = 0; i < 4; i++)
 513              		.loc 1 73 18 is_stmt 0 discriminator 3 view .LVU119
ARM GAS  C:\Users\20398\AppData\Local\Temp\ccK5HbfU.s 			page 15


 514 0014 591C     		adds	r1, r3, #1
  73:Application/remote.c ****     for (int i = 0; i < 4; i++)
 515              		.loc 1 73 42 discriminator 3 view .LVU120
 516 0016 174A     		ldr	r2, .L37+4
 517 0018 1344     		add	r3, r3, r2
 518              	.LVL42:
  73:Application/remote.c ****     for (int i = 0; i < 4; i++)
 519              		.loc 1 73 42 discriminator 3 view .LVU121
 520 001a DA7D     		ldrb	r2, [r3, #23]	@ zero_extendqisi2
  73:Application/remote.c ****     for (int i = 0; i < 4; i++)
 521              		.loc 1 73 23 discriminator 3 view .LVU122
 522 001c 144B     		ldr	r3, .L37
 523              	.LVL43:
  73:Application/remote.c ****     for (int i = 0; i < 4; i++)
 524              		.loc 1 73 23 discriminator 3 view .LVU123
 525 001e 5A54     		strb	r2, [r3, r1]
  72:Application/remote.c ****         tx_buf[1 + i] = remote.res.potVal[i];
 526              		.loc 1 72 28 is_stmt 1 discriminator 3 view .LVU124
 527              	.LVL44:
  72:Application/remote.c ****         tx_buf[1 + i] = remote.res.potVal[i];
 528              		.loc 1 72 29 is_stmt 0 discriminator 3 view .LVU125
 529 0020 0B46     		mov	r3, r1
 530 0022 F5E7     		b	.L28
 531              	.LVL45:
 532              	.L35:
  72:Application/remote.c ****         tx_buf[1 + i] = remote.res.potVal[i];
 533              		.loc 1 72 29 discriminator 3 view .LVU126
 534              	.LBE12:
 535              	.LBB13:
  74:Application/remote.c ****         tx_buf[3 + i] = remote.res.rockerVal[i] + 128;
 536              		.loc 1 74 14 view .LVU127
 537 0024 0023     		movs	r3, #0
 538              	.LVL46:
  74:Application/remote.c ****         tx_buf[3 + i] = remote.res.rockerVal[i] + 128;
 539              		.loc 1 74 14 view .LVU128
 540 0026 08E0     		b	.L30
 541              	.LVL47:
 542              	.L31:
  75:Application/remote.c ****     if (NRF24L01_TxPacket(tx_buf) == TX_OK)
 543              		.loc 1 75 9 is_stmt 1 discriminator 3 view .LVU129
  75:Application/remote.c ****     if (NRF24L01_TxPacket(tx_buf) == TX_OK)
 544              		.loc 1 75 45 is_stmt 0 discriminator 3 view .LVU130
 545 0028 124A     		ldr	r2, .L37+4
 546 002a 1A44     		add	r2, r2, r3
 547 002c 527E     		ldrb	r2, [r2, #25]	@ zero_extendqisi2
  75:Application/remote.c ****     if (NRF24L01_TxPacket(tx_buf) == TX_OK)
 548              		.loc 1 75 18 discriminator 3 view .LVU131
 549 002e D91C     		adds	r1, r3, #3
  75:Application/remote.c ****     if (NRF24L01_TxPacket(tx_buf) == TX_OK)
 550              		.loc 1 75 49 discriminator 3 view .LVU132
 551 0030 82F08002 		eor	r2, r2, #128
  75:Application/remote.c ****     if (NRF24L01_TxPacket(tx_buf) == TX_OK)
 552              		.loc 1 75 23 discriminator 3 view .LVU133
 553 0034 0E48     		ldr	r0, .L37
 554 0036 4254     		strb	r2, [r0, r1]
  74:Application/remote.c ****         tx_buf[3 + i] = remote.res.rockerVal[i] + 128;
 555              		.loc 1 74 28 is_stmt 1 discriminator 3 view .LVU134
ARM GAS  C:\Users\20398\AppData\Local\Temp\ccK5HbfU.s 			page 16


  74:Application/remote.c ****         tx_buf[3 + i] = remote.res.rockerVal[i] + 128;
 556              		.loc 1 74 29 is_stmt 0 discriminator 3 view .LVU135
 557 0038 0133     		adds	r3, r3, #1
 558              	.LVL48:
 559              	.L30:
  74:Application/remote.c ****         tx_buf[3 + i] = remote.res.rockerVal[i] + 128;
 560              		.loc 1 74 21 is_stmt 1 discriminator 1 view .LVU136
  74:Application/remote.c ****         tx_buf[3 + i] = remote.res.rockerVal[i] + 128;
 561              		.loc 1 74 5 is_stmt 0 discriminator 1 view .LVU137
 562 003a 032B     		cmp	r3, #3
 563 003c F4DD     		ble	.L31
 564              	.LBE13:
  76:Application/remote.c ****     {
 565              		.loc 1 76 5 is_stmt 1 view .LVU138
  76:Application/remote.c ****     {
 566              		.loc 1 76 9 is_stmt 0 view .LVU139
 567 003e 0C48     		ldr	r0, .L37
 568 0040 FFF7FEFF 		bl	NRF24L01_TxPacket
 569              	.LVL49:
  76:Application/remote.c ****     {
 570              		.loc 1 76 8 view .LVU140
 571 0044 2028     		cmp	r0, #32
 572 0046 09D0     		beq	.L36
  83:Application/remote.c ****         remote.online = 0;
 573              		.loc 1 83 9 is_stmt 1 view .LVU141
 574 0048 0022     		movs	r2, #0
 575 004a 4FF40051 		mov	r1, #8192
 576 004e 0A48     		ldr	r0, .L37+8
 577 0050 FFF7FEFF 		bl	HAL_GPIO_WritePin
 578              	.LVL50:
  84:Application/remote.c ****     }
 579              		.loc 1 84 9 view .LVU142
  84:Application/remote.c ****     }
 580              		.loc 1 84 23 is_stmt 0 view .LVU143
 581 0054 074B     		ldr	r3, .L37+4
 582 0056 0022     		movs	r2, #0
 583 0058 1A72     		strb	r2, [r3, #8]
 584              	.L27:
  86:Application/remote.c **** 
 585              		.loc 1 86 1 view .LVU144
 586 005a 08BD     		pop	{r3, pc}
 587              	.L36:
  78:Application/remote.c ****         remote.online = 1;
 588              		.loc 1 78 9 is_stmt 1 view .LVU145
 589 005c 0122     		movs	r2, #1
 590 005e 4FF40051 		mov	r1, #8192
 591 0062 0548     		ldr	r0, .L37+8
 592 0064 FFF7FEFF 		bl	HAL_GPIO_WritePin
 593              	.LVL51:
  79:Application/remote.c ****     }
 594              		.loc 1 79 9 view .LVU146
  79:Application/remote.c ****     }
 595              		.loc 1 79 23 is_stmt 0 view .LVU147
 596 0068 024B     		ldr	r3, .L37+4
 597 006a 0122     		movs	r2, #1
 598 006c 1A72     		strb	r2, [r3, #8]
 599 006e F4E7     		b	.L27
ARM GAS  C:\Users\20398\AppData\Local\Temp\ccK5HbfU.s 			page 17


 600              	.L38:
 601              		.align	2
 602              	.L37:
 603 0070 00000000 		.word	.LANCHOR3
 604 0074 00000000 		.word	.LANCHOR2
 605 0078 00100140 		.word	1073811456
 606              		.cfi_endproc
 607              	.LFE74:
 609              		.section	.text.SendTASK,"ax",%progbits
 610              		.align	1
 611              		.global	SendTASK
 612              		.syntax unified
 613              		.thumb
 614              		.thumb_func
 616              	SendTASK:
 617              	.LFB76:
  95:Application/remote.c ****     }
  96:Application/remote.c **** }
  97:Application/remote.c **** 
  98:Application/remote.c **** __attribute__((noreturn)) void SendTASK(void const *argument)
  99:Application/remote.c **** {
 618              		.loc 1 99 1 is_stmt 1 view -0
 619              		.cfi_startproc
 620              		@ Volatile: function does not return.
 621              		@ args = 0, pretend = 0, frame = 0
 622              		@ frame_needed = 0, uses_anonymous_args = 0
 623              	.LVL52:
 624              		.loc 1 99 1 is_stmt 0 view .LVU149
 625 0000 08B5     		push	{r3, lr}
 626              	.LCFI5:
 627              		.cfi_def_cfa_offset 8
 628              		.cfi_offset 3, -8
 629              		.cfi_offset 14, -4
 630              	.LVL53:
 631              	.L40:
 100:Application/remote.c ****     for (;;)
 632              		.loc 1 100 5 is_stmt 1 discriminator 1 view .LVU150
 101:Application/remote.c ****     {
 102:Application/remote.c ****         SendBuff();
 633              		.loc 1 102 9 discriminator 1 view .LVU151
 634 0002 FFF7FEFF 		bl	SendBuff
 635              	.LVL54:
 103:Application/remote.c ****         osDelay(10);
 636              		.loc 1 103 9 discriminator 1 view .LVU152
 637 0006 0A20     		movs	r0, #10
 638 0008 FFF7FEFF 		bl	osDelay
 639              	.LVL55:
 100:Application/remote.c ****     for (;;)
 640              		.loc 1 100 11 discriminator 1 view .LVU153
 641 000c F9E7     		b	.L40
 642              		.cfi_endproc
 643              	.LFE76:
 645              		.section	.text.MenuTASK,"ax",%progbits
 646              		.align	1
 647              		.global	MenuTASK
 648              		.syntax unified
 649              		.thumb
ARM GAS  C:\Users\20398\AppData\Local\Temp\ccK5HbfU.s 			page 18


 650              		.thumb_func
 652              	MenuTASK:
 653              	.LVL56:
 654              	.LFB77:
 104:Application/remote.c ****     }
 105:Application/remote.c **** }
 106:Application/remote.c **** 
 107:Application/remote.c **** static MENU_OptionTypeDef MENU_OptionList[] = {
 108:Application/remote.c ****     {"<<<", NULL},                        // 固定格式, 用于退出
 109:Application/remote.c ****     {"RockerInfo", MENU_RockerInfo},      // 工具
 110:Application/remote.c ****     {"Calibration", MENU_Calibration},    // 游戏
 111:Application/remote.c ****     {"Iamge", MENU_ShowImage},            // 设置
 112:Application/remote.c ****     {"Information", MENU_ShowInfomation}, // 信息
 113:Application/remote.c ****     {"..", NULL},                         // 固定格式, 用于计算选项列表长度和退出
 114:Application/remote.c **** };
 115:Application/remote.c **** static MENU_HandleTypeDef MENU = {.OptionList = MENU_OptionList};
 116:Application/remote.c **** 
 117:Application/remote.c **** __attribute__((noreturn)) void MenuTASK(void const *argument)
 118:Application/remote.c **** {
 655              		.loc 1 118 1 view -0
 656              		.cfi_startproc
 657              		@ Volatile: function does not return.
 658              		@ args = 0, pretend = 0, frame = 0
 659              		@ frame_needed = 0, uses_anonymous_args = 0
 660              		.loc 1 118 1 is_stmt 0 view .LVU155
 661 0000 08B5     		push	{r3, lr}
 662              	.LCFI6:
 663              		.cfi_def_cfa_offset 8
 664              		.cfi_offset 3, -8
 665              		.cfi_offset 14, -4
 119:Application/remote.c ****     MENU_HandleInit(&MENU);
 666              		.loc 1 119 5 is_stmt 1 view .LVU156
 667 0002 0E48     		ldr	r0, .L45
 668              	.LVL57:
 669              		.loc 1 119 5 is_stmt 0 view .LVU157
 670 0004 FFF7FEFF 		bl	MENU_HandleInit
 671              	.LVL58:
 120:Application/remote.c ****     MENU_Init();
 672              		.loc 1 120 5 is_stmt 1 view .LVU158
 673 0008 FFF7FEFF 		bl	MENU_Init
 674              	.LVL59:
 675              	.L43:
 121:Application/remote.c ****     for (;;)
 676              		.loc 1 121 5 discriminator 1 view .LVU159
 122:Application/remote.c ****     {
 123:Application/remote.c ****         // while (MENU.isRun)
 124:Application/remote.c ****         {
 125:Application/remote.c ****             menu_command_callback(BUFFER_CLEAR); // 擦除缓冲区
 677              		.loc 1 125 13 discriminator 1 view .LVU160
 678 000c 0120     		movs	r0, #1
 679 000e FFF7FEFF 		bl	menu_command_callback
 680              	.LVL60:
 126:Application/remote.c ****             MENU_ShowOptionList(&MENU);          /* 显示选项列表 */
 681              		.loc 1 126 13 discriminator 1 view .LVU161
 682 0012 0A4C     		ldr	r4, .L45
 683 0014 2046     		mov	r0, r4
 684 0016 FFF7FEFF 		bl	MENU_ShowOptionList
ARM GAS  C:\Users\20398\AppData\Local\Temp\ccK5HbfU.s 			page 19


 685              	.LVL61:
 127:Application/remote.c ****             MENU_ShowCursor(&MENU);              /* 显示光标 */
 686              		.loc 1 127 13 discriminator 1 view .LVU162
 687 001a 2046     		mov	r0, r4
 688 001c FFF7FEFF 		bl	MENU_ShowCursor
 689              	.LVL62:
 128:Application/remote.c ****             MENU_ShowBorder(&MENU);              // 显示边框
 690              		.loc 1 128 13 discriminator 1 view .LVU163
 691 0020 2046     		mov	r0, r4
 692 0022 FFF7FEFF 		bl	MENU_ShowBorder
 693              	.LVL63:
 129:Application/remote.c **** 
 130:Application/remote.c ****             menu_command_callback(BUFFER_DISPLAY); // 缓冲区更新至显示器
 694              		.loc 1 130 13 discriminator 1 view .LVU164
 695 0026 0020     		movs	r0, #0
 696 0028 FFF7FEFF 		bl	menu_command_callback
 697              	.LVL64:
 131:Application/remote.c ****             MENU_Event_and_Action(&MENU);          // 检查事件及作相应操作
 698              		.loc 1 131 13 discriminator 1 view .LVU165
 699 002c 2046     		mov	r0, r4
 700 002e FFF7FEFF 		bl	MENU_Event_and_Action
 701              	.LVL65:
 132:Application/remote.c ****             osDelay(1);
 702              		.loc 1 132 13 discriminator 1 view .LVU166
 703 0032 0120     		movs	r0, #1
 704 0034 FFF7FEFF 		bl	osDelay
 705              	.LVL66:
 121:Application/remote.c ****     {
 706              		.loc 1 121 11 discriminator 1 view .LVU167
 707 0038 E8E7     		b	.L43
 708              	.L46:
 709 003a 00BF     		.align	2
 710              	.L45:
 711 003c 00000000 		.word	.LANCHOR4
 712              		.cfi_endproc
 713              	.LFE77:
 715              		.section	.text.Remote_Init,"ax",%progbits
 716              		.align	1
 717              		.global	Remote_Init
 718              		.syntax unified
 719              		.thumb
 720              		.thumb_func
 722              	Remote_Init:
 723              	.LFB71:
  30:Application/remote.c ****     RemoteHardware_Init();
 724              		.loc 1 30 1 view -0
 725              		.cfi_startproc
 726              		@ args = 0, pretend = 0, frame = 0
 727              		@ frame_needed = 0, uses_anonymous_args = 0
 728 0000 38B5     		push	{r3, r4, r5, lr}
 729              	.LCFI7:
 730              		.cfi_def_cfa_offset 16
 731              		.cfi_offset 3, -16
 732              		.cfi_offset 4, -12
 733              		.cfi_offset 5, -8
 734              		.cfi_offset 14, -4
  31:Application/remote.c ****     memset(&remote_info, 0x00, sizeof(RC_Info_t));
ARM GAS  C:\Users\20398\AppData\Local\Temp\ccK5HbfU.s 			page 20


 735              		.loc 1 31 5 view .LVU169
 736 0002 FFF7FEFF 		bl	RemoteHardware_Init
 737              	.LVL67:
  32:Application/remote.c ****     memset(&remote, 0x00, sizeof(RC_t));
 738              		.loc 1 32 5 view .LVU170
 739 0006 064C     		ldr	r4, .L49
 740 0008 0021     		movs	r1, #0
 741 000a 2160     		str	r1, [r4]
 742 000c 6160     		str	r1, [r4, #4]
 743 000e A160     		str	r1, [r4, #8]
 744 0010 A181     		strh	r1, [r4, #12]	@ movhi
  33:Application/remote.c ****     remote.info = &remote_info;
 745              		.loc 1 33 5 view .LVU171
 746 0012 044D     		ldr	r5, .L49+4
 747 0014 2022     		movs	r2, #32
 748 0016 2846     		mov	r0, r5
 749 0018 FFF7FEFF 		bl	memset
 750              	.LVL68:
  34:Application/remote.c **** }
 751              		.loc 1 34 5 view .LVU172
  34:Application/remote.c **** }
 752              		.loc 1 34 17 is_stmt 0 view .LVU173
 753 001c 2C60     		str	r4, [r5]
  35:Application/remote.c **** 
 754              		.loc 1 35 1 view .LVU174
 755 001e 38BD     		pop	{r3, r4, r5, pc}
 756              	.L50:
 757              		.align	2
 758              	.L49:
 759 0020 00000000 		.word	.LANCHOR1
 760 0024 00000000 		.word	.LANCHOR2
 761              		.cfi_endproc
 762              	.LFE71:
 764              		.section	.text.RemoteTask_Init,"ax",%progbits
 765              		.align	1
 766              		.global	RemoteTask_Init
 767              		.syntax unified
 768              		.thumb
 769              		.thumb_func
 771              	RemoteTask_Init:
 772              	.LFB78:
 133:Application/remote.c ****         }
 134:Application/remote.c ****     }
 135:Application/remote.c **** }
 136:Application/remote.c **** 
 137:Application/remote.c **** void RemoteTask_Init(void)
 138:Application/remote.c **** {
 773              		.loc 1 138 1 is_stmt 1 view -0
 774              		.cfi_startproc
 775              		@ args = 0, pretend = 0, frame = 88
 776              		@ frame_needed = 0, uses_anonymous_args = 0
 777 0000 10B5     		push	{r4, lr}
 778              	.LCFI8:
 779              		.cfi_def_cfa_offset 8
 780              		.cfi_offset 4, -8
 781              		.cfi_offset 14, -4
 782 0002 96B0     		sub	sp, sp, #88
ARM GAS  C:\Users\20398\AppData\Local\Temp\ccK5HbfU.s 			page 21


 783              	.LCFI9:
 784              		.cfi_def_cfa_offset 96
 139:Application/remote.c ****     osThreadDef(scaninfotask, ScanInfoTASK, osPriorityHigh, 0, 128);
 785              		.loc 1 139 5 view .LVU176
 786 0004 1B4C     		ldr	r4, .L53
 787 0006 0DF13C0C 		add	ip, sp, #60
 788 000a A646     		mov	lr, r4
 789 000c BEE80F00 		ldmia	lr!, {r0, r1, r2, r3}
 790 0010 ACE80F00 		stmia	ip!, {r0, r1, r2, r3}
 791 0014 9EE80700 		ldm	lr, {r0, r1, r2}
 792 0018 8CE80700 		stm	ip, {r0, r1, r2}
 140:Application/remote.c ****     scaninfoTaskHandle = osThreadCreate(osThread(scaninfotask), NULL); //
 793              		.loc 1 140 5 view .LVU177
 794              		.loc 1 140 26 is_stmt 0 view .LVU178
 795 001c 0021     		movs	r1, #0
 796 001e 0FA8     		add	r0, sp, #60
 797 0020 FFF7FEFF 		bl	osThreadCreate
 798              	.LVL69:
 799              		.loc 1 140 24 view .LVU179
 800 0024 144B     		ldr	r3, .L53+4
 801 0026 1860     		str	r0, [r3]
 141:Application/remote.c **** 
 142:Application/remote.c ****     osThreadDef(menutask, MenuTASK, osPriorityNormal, 0, 256);
 802              		.loc 1 142 5 is_stmt 1 view .LVU180
 803 0028 0DF1200C 		add	ip, sp, #32
 804 002c 04F11C0E 		add	lr, r4, #28
 805 0030 BEE80F00 		ldmia	lr!, {r0, r1, r2, r3}
 806 0034 ACE80F00 		stmia	ip!, {r0, r1, r2, r3}
 807 0038 9EE80700 		ldm	lr, {r0, r1, r2}
 808 003c 8CE80700 		stm	ip, {r0, r1, r2}
 143:Application/remote.c ****     menuTaskHandle = osThreadCreate(osThread(menutask), NULL);
 809              		.loc 1 143 5 view .LVU181
 810              		.loc 1 143 22 is_stmt 0 view .LVU182
 811 0040 0021     		movs	r1, #0
 812 0042 08A8     		add	r0, sp, #32
 813 0044 FFF7FEFF 		bl	osThreadCreate
 814              	.LVL70:
 815              		.loc 1 143 20 view .LVU183
 816 0048 0C4B     		ldr	r3, .L53+8
 817 004a 1860     		str	r0, [r3]
 144:Application/remote.c **** 
 145:Application/remote.c ****     osThreadDef(sendtask, SendTASK, osPriorityRealtime, 0, 128);
 818              		.loc 1 145 5 is_stmt 1 view .LVU184
 819 004c 0DF1040E 		add	lr, sp, #4
 820 0050 04F1380C 		add	ip, r4, #56
 821 0054 BCE80F00 		ldmia	ip!, {r0, r1, r2, r3}
 822 0058 AEE80F00 		stmia	lr!, {r0, r1, r2, r3}
 823 005c 9CE80700 		ldm	ip, {r0, r1, r2}
 824 0060 8EE80700 		stm	lr, {r0, r1, r2}
 146:Application/remote.c ****     sendTaskHandle = osThreadCreate(osThread(sendtask), NULL);
 825              		.loc 1 146 5 view .LVU185
 826              		.loc 1 146 22 is_stmt 0 view .LVU186
 827 0064 0021     		movs	r1, #0
 828 0066 01A8     		add	r0, sp, #4
 829 0068 FFF7FEFF 		bl	osThreadCreate
 830              	.LVL71:
 831              		.loc 1 146 20 view .LVU187
ARM GAS  C:\Users\20398\AppData\Local\Temp\ccK5HbfU.s 			page 22


 832 006c 044B     		ldr	r3, .L53+12
 833 006e 1860     		str	r0, [r3]
 147:Application/remote.c **** }
 834              		.loc 1 147 1 view .LVU188
 835 0070 16B0     		add	sp, sp, #88
 836              	.LCFI10:
 837              		.cfi_def_cfa_offset 8
 838              		@ sp needed
 839 0072 10BD     		pop	{r4, pc}
 840              	.L54:
 841              		.align	2
 842              	.L53:
 843 0074 00000000 		.word	.LANCHOR5
 844 0078 00000000 		.word	.LANCHOR6
 845 007c 00000000 		.word	.LANCHOR7
 846 0080 00000000 		.word	.LANCHOR8
 847              		.cfi_endproc
 848              	.LFE78:
 850              		.section	.text.GetRCpointer,"ax",%progbits
 851              		.align	1
 852              		.global	GetRCpointer
 853              		.syntax unified
 854              		.thumb
 855              		.thumb_func
 857              	GetRCpointer:
 858              	.LFB79:
 148:Application/remote.c **** 
 149:Application/remote.c **** RC_t *GetRCpointer(void) { return &remote; }...
 859              		.loc 1 149 26 is_stmt 1 view -0
 860              		.cfi_startproc
 861              		@ args = 0, pretend = 0, frame = 0
 862              		@ frame_needed = 0, uses_anonymous_args = 0
 863              		@ link register save eliminated.
 864              		.loc 1 149 28 view .LVU190
 865              		.loc 1 149 44 is_stmt 0 view .LVU191
 866 0000 0048     		ldr	r0, .L56
 867 0002 7047     		bx	lr
 868              	.L57:
 869              		.align	2
 870              	.L56:
 871 0004 00000000 		.word	.LANCHOR2
 872              		.cfi_endproc
 873              	.LFE79:
 875              		.section	.rodata.str1.4
 876 0025 000000   		.align	2
 877              	.LC9:
 878 0028 3C3C3C00 		.ascii	"<<<\000"
 879              		.align	2
 880              	.LC10:
 881 002c 526F636B 		.ascii	"RockerInfo\000"
 881      6572496E 
 881      666F00
 882 0037 00       		.align	2
 883              	.LC11:
 884 0038 43616C69 		.ascii	"Calibration\000"
 884      62726174 
 884      696F6E00 
ARM GAS  C:\Users\20398\AppData\Local\Temp\ccK5HbfU.s 			page 23


 885              		.align	2
 886              	.LC12:
 887 0044 49616D67 		.ascii	"Iamge\000"
 887      6500
 888 004a 0000     		.align	2
 889              	.LC13:
 890 004c 496E666F 		.ascii	"Information\000"
 890      726D6174 
 890      696F6E00 
 891              		.align	2
 892              	.LC14:
 893 0058 2E2E00   		.ascii	"..\000"
 894              		.global	sendTaskHandle
 895              		.global	menuTaskHandle
 896              		.global	scaninfoTaskHandle
 897              		.global	remote
 898              		.global	remote_info
 899              		.global	tx_buf
 900              		.global	adc_val
 901              		.section	.rodata
 902              		.align	2
 903              		.set	.LANCHOR5,. + 0
 904              	.LC6:
 905 0000 00000000 		.word	.LC0
 906 0004 00000000 		.word	ScanInfoTASK
 907 0008 0200     		.short	2
 908 000a 0000     		.space	2
 909 000c 00000000 		.word	0
 910 0010 80000000 		.word	128
 911 0014 00000000 		.word	0
 912 0018 00000000 		.word	0
 913              	.LC7:
 914 001c 10000000 		.word	.LC2
 915 0020 00000000 		.word	MenuTASK
 916 0024 0000     		.short	0
 917 0026 0000     		.space	2
 918 0028 00000000 		.word	0
 919 002c 00010000 		.word	256
 920 0030 00000000 		.word	0
 921 0034 00000000 		.word	0
 922              	.LC8:
 923 0038 1C000000 		.word	.LC4
 924 003c 00000000 		.word	SendTASK
 925 0040 0300     		.short	3
 926 0042 0000     		.space	2
 927 0044 00000000 		.word	0
 928 0048 80000000 		.word	128
 929 004c 00000000 		.word	0
 930 0050 00000000 		.word	0
 931              		.section	.bss.adc_val,"aw",%nobits
 932              		.align	2
 933              		.set	.LANCHOR0,. + 0
 936              	adc_val:
 937 0000 00000000 		.space	16
 937      00000000 
 937      00000000 
 937      00000000 
ARM GAS  C:\Users\20398\AppData\Local\Temp\ccK5HbfU.s 			page 24


 938              		.section	.bss.menuTaskHandle,"aw",%nobits
 939              		.align	2
 940              		.set	.LANCHOR7,. + 0
 943              	menuTaskHandle:
 944 0000 00000000 		.space	4
 945              		.section	.bss.remote,"aw",%nobits
 946              		.align	2
 947              		.set	.LANCHOR2,. + 0
 950              	remote:
 951 0000 00000000 		.space	32
 951      00000000 
 951      00000000 
 951      00000000 
 951      00000000 
 952              		.section	.bss.remote_info,"aw",%nobits
 953              		.align	2
 954              		.set	.LANCHOR1,. + 0
 957              	remote_info:
 958 0000 00000000 		.space	14
 958      00000000 
 958      00000000 
 958      0000
 959              		.section	.bss.scaninfoTaskHandle,"aw",%nobits
 960              		.align	2
 961              		.set	.LANCHOR6,. + 0
 964              	scaninfoTaskHandle:
 965 0000 00000000 		.space	4
 966              		.section	.bss.sendTaskHandle,"aw",%nobits
 967              		.align	2
 968              		.set	.LANCHOR8,. + 0
 971              	sendTaskHandle:
 972 0000 00000000 		.space	4
 973              		.section	.bss.tx_buf,"aw",%nobits
 974              		.align	2
 975              		.set	.LANCHOR3,. + 0
 978              	tx_buf:
 979 0000 00000000 		.space	8
 979      00000000 
 980              		.section	.data.MENU,"aw"
 981              		.align	2
 982              		.set	.LANCHOR4,. + 0
 985              	MENU:
 986 0000 00000000 		.word	MENU_OptionList
 987 0004 00000000 		.space	16
 987      00000000 
 987      00000000 
 987      00000000 
 988              		.section	.data.MENU_OptionList,"aw"
 989              		.align	2
 992              	MENU_OptionList:
 993 0000 28000000 		.word	.LC9
 994 0004 00000000 		.word	0
 995 0008 00000000 		.space	8
 995      00000000 
 996 0010 2C000000 		.word	.LC10
 997 0014 00000000 		.word	MENU_RockerInfo
 998 0018 00000000 		.space	8
ARM GAS  C:\Users\20398\AppData\Local\Temp\ccK5HbfU.s 			page 25


 998      00000000 
 999 0020 38000000 		.word	.LC11
 1000 0024 00000000 		.word	MENU_Calibration
 1001 0028 00000000 		.space	8
 1001      00000000 
 1002 0030 44000000 		.word	.LC12
 1003 0034 00000000 		.word	MENU_ShowImage
 1004 0038 00000000 		.space	8
 1004      00000000 
 1005 0040 4C000000 		.word	.LC13
 1006 0044 00000000 		.word	MENU_ShowInfomation
 1007 0048 00000000 		.space	8
 1007      00000000 
 1008 0050 58000000 		.word	.LC14
 1009 0054 00000000 		.word	0
 1010 0058 00000000 		.space	8
 1010      00000000 
 1011              		.text
 1012              	.Letext0:
 1013              		.file 3 "e:\\ace2025\\enviroment\\gcc-arm-none-eabi-10.3-2021.10-win32\\arm-gnu-toolchian\\arm-non
 1014              		.file 4 "e:\\ace2025\\enviroment\\gcc-arm-none-eabi-10.3-2021.10-win32\\arm-gnu-toolchian\\arm-non
 1015              		.file 5 "Drivers/CMSIS/Device/ST/STM32F1xx/Include/stm32f103xb.h"
 1016              		.file 6 "Drivers/CMSIS/Device/ST/STM32F1xx/Include/stm32f1xx.h"
 1017              		.file 7 "Drivers/STM32F1xx_HAL_Driver/Inc/stm32f1xx_hal_def.h"
 1018              		.file 8 "Drivers/STM32F1xx_HAL_Driver/Inc/stm32f1xx_hal_gpio.h"
 1019              		.file 9 "Drivers/STM32F1xx_HAL_Driver/Inc/stm32f1xx_hal_dma.h"
 1020              		.file 10 "Drivers/STM32F1xx_HAL_Driver/Inc/stm32f1xx_hal_adc.h"
 1021              		.file 11 "Middlewares/Third_Party/FreeRTOS/Source/portable/GCC/ARM_CM3/portmacro.h"
 1022              		.file 12 "Middlewares/Third_Party/FreeRTOS/Source/include/FreeRTOS.h"
 1023              		.file 13 "Middlewares/Third_Party/FreeRTOS/Source/include/task.h"
 1024              		.file 14 "Middlewares/Third_Party/FreeRTOS/Source/CMSIS_RTOS/cmsis_os.h"
 1025              		.file 15 "Application/remote.h"
 1026              		.file 16 "Application/MENU.h"
 1027              		.file 17 "Core/Inc/adc.h"
 1028              		.file 18 "Application/menu_task.h"
 1029              		.file 19 "Modules/nrf24l01.h"
 1030              		.file 20 "Drivers/STM32F1xx_HAL_Driver/Inc/stm32f1xx_hal.h"
 1031              		.file 21 "Modules/oled.h"
 1032              		.file 22 "Drivers/STM32F1xx_HAL_Driver/Inc/stm32f1xx_hal_adc_ex.h"
 1033              		.file 23 "<built-in>"
ARM GAS  C:\Users\20398\AppData\Local\Temp\ccK5HbfU.s 			page 26

