ARM GAS  C:\Users\20398\AppData\Local\Temp\cchI1MdI.s 			page 1


   1              		.cpu cortex-m3
   2              		.arch armv7-m
   3              		.fpu softvfp
   4              		.eabi_attribute 20, 1
   5              		.eabi_attribute 21, 1
   6              		.eabi_attribute 23, 3
   7              		.eabi_attribute 24, 1
   8              		.eabi_attribute 25, 1
   9              		.eabi_attribute 26, 1
  10              		.eabi_attribute 30, 1
  11              		.eabi_attribute 34, 1
  12              		.eabi_attribute 18, 4
  13              		.file	"SEGGER_SYSVIEW.c"
  14              		.text
  15              	.Ltext0:
  16              		.cfi_sections	.debug_frame
  17              		.section	.text._EncodeData,"ax",%progbits
  18              		.align	1
  19              		.syntax unified
  20              		.thumb
  21              		.thumb_func
  23              	_EncodeData:
  24              	.LVL0:
  25              	.LFB0:
  26              		.file 1 "systemview/SEGGER_SYSVIEW.c"
   1:systemview/SEGGER_SYSVIEW.c **** /*********************************************************************
   2:systemview/SEGGER_SYSVIEW.c **** *                    SEGGER Microcontroller GmbH                     *
   3:systemview/SEGGER_SYSVIEW.c **** *                        The Embedded Experts                        *
   4:systemview/SEGGER_SYSVIEW.c **** **********************************************************************
   5:systemview/SEGGER_SYSVIEW.c **** *                                                                    *
   6:systemview/SEGGER_SYSVIEW.c **** *            (c) 1995 - 2024 SEGGER Microcontroller GmbH             *
   7:systemview/SEGGER_SYSVIEW.c **** *                                                                    *
   8:systemview/SEGGER_SYSVIEW.c **** *       www.segger.com     Support: support@segger.com               *
   9:systemview/SEGGER_SYSVIEW.c **** *                                                                    *
  10:systemview/SEGGER_SYSVIEW.c **** **********************************************************************
  11:systemview/SEGGER_SYSVIEW.c **** *                                                                    *
  12:systemview/SEGGER_SYSVIEW.c **** *       SEGGER SystemView * Real-time application analysis           *
  13:systemview/SEGGER_SYSVIEW.c **** *                                                                    *
  14:systemview/SEGGER_SYSVIEW.c **** **********************************************************************
  15:systemview/SEGGER_SYSVIEW.c **** *                                                                    *
  16:systemview/SEGGER_SYSVIEW.c **** * All rights reserved.                                               *
  17:systemview/SEGGER_SYSVIEW.c **** *                                                                    *
  18:systemview/SEGGER_SYSVIEW.c **** * SEGGER strongly recommends to not make any changes                 *
  19:systemview/SEGGER_SYSVIEW.c **** * to or modify the source code of this software in order to stay     *
  20:systemview/SEGGER_SYSVIEW.c **** * compatible with the SystemView and RTT protocol, and J-Link.       *
  21:systemview/SEGGER_SYSVIEW.c **** *                                                                    *
  22:systemview/SEGGER_SYSVIEW.c **** * Redistribution and use in source and binary forms, with or         *
  23:systemview/SEGGER_SYSVIEW.c **** * without modification, are permitted provided that the following    *
  24:systemview/SEGGER_SYSVIEW.c **** * condition is met:                                                  *
  25:systemview/SEGGER_SYSVIEW.c **** *                                                                    *
  26:systemview/SEGGER_SYSVIEW.c **** * o Redistributions of source code must retain the above copyright   *
  27:systemview/SEGGER_SYSVIEW.c **** *   notice, this condition and the following disclaimer.             *
  28:systemview/SEGGER_SYSVIEW.c **** *                                                                    *
  29:systemview/SEGGER_SYSVIEW.c **** * THIS SOFTWARE IS PROVIDED BY THE COPYRIGHT HOLDERS AND             *
  30:systemview/SEGGER_SYSVIEW.c **** * CONTRIBUTORS "AS IS" AND ANY EXPRESS OR IMPLIED WARRANTIES,        *
  31:systemview/SEGGER_SYSVIEW.c **** * INCLUDING, BUT NOT LIMITED TO, THE IMPLIED WARRANTIES OF           *
  32:systemview/SEGGER_SYSVIEW.c **** * MERCHANTABILITY AND FITNESS FOR A PARTICULAR PURPOSE ARE           *
ARM GAS  C:\Users\20398\AppData\Local\Temp\cchI1MdI.s 			page 2


  33:systemview/SEGGER_SYSVIEW.c **** * DISCLAIMED. IN NO EVENT SHALL SEGGER Microcontroller BE LIABLE FOR *
  34:systemview/SEGGER_SYSVIEW.c **** * ANY DIRECT, INDIRECT, INCIDENTAL, SPECIAL, EXEMPLARY, OR           *
  35:systemview/SEGGER_SYSVIEW.c **** * CONSEQUENTIAL DAMAGES (INCLUDING, BUT NOT LIMITED TO, PROCUREMENT  *
  36:systemview/SEGGER_SYSVIEW.c **** * OF SUBSTITUTE GOODS OR SERVICES; LOSS OF USE, DATA, OR PROFITS;    *
  37:systemview/SEGGER_SYSVIEW.c **** * OR BUSINESS INTERRUPTION) HOWEVER CAUSED AND ON ANY THEORY OF      *
  38:systemview/SEGGER_SYSVIEW.c **** * LIABILITY, WHETHER IN CONTRACT, STRICT LIABILITY, OR TORT          *
  39:systemview/SEGGER_SYSVIEW.c **** * (INCLUDING NEGLIGENCE OR OTHERWISE) ARISING IN ANY WAY OUT OF THE  *
  40:systemview/SEGGER_SYSVIEW.c **** * USE OF THIS SOFTWARE, EVEN IF ADVISED OF THE POSSIBILITY OF SUCH   *
  41:systemview/SEGGER_SYSVIEW.c **** * DAMAGE.                                                            *
  42:systemview/SEGGER_SYSVIEW.c **** *                                                                    *
  43:systemview/SEGGER_SYSVIEW.c **** **********************************************************************
  44:systemview/SEGGER_SYSVIEW.c **** *                                                                    *
  45:systemview/SEGGER_SYSVIEW.c **** *       SystemView version: 3.58                                    *
  46:systemview/SEGGER_SYSVIEW.c **** *                                                                    *
  47:systemview/SEGGER_SYSVIEW.c **** **********************************************************************
  48:systemview/SEGGER_SYSVIEW.c **** -------------------------- END-OF-HEADER -----------------------------
  49:systemview/SEGGER_SYSVIEW.c **** 
  50:systemview/SEGGER_SYSVIEW.c **** File    : SEGGER_SYSVIEW.c
  51:systemview/SEGGER_SYSVIEW.c **** Purpose : System visualization API implementation.
  52:systemview/SEGGER_SYSVIEW.c **** Revision: $Rev: 29105 $
  53:systemview/SEGGER_SYSVIEW.c **** 
  54:systemview/SEGGER_SYSVIEW.c **** Additional information:
  55:systemview/SEGGER_SYSVIEW.c ****   Packet format:
  56:systemview/SEGGER_SYSVIEW.c ****     Packets with IDs 0..23 are standard packets with known structure.
  57:systemview/SEGGER_SYSVIEW.c ****     For efficiency, they do *NOT* contain a length field.
  58:systemview/SEGGER_SYSVIEW.c ****     <ID><Data><TimeStampDelta>
  59:systemview/SEGGER_SYSVIEW.c **** 
  60:systemview/SEGGER_SYSVIEW.c ****     Packets with IDs 24..31 are standard packets with extendible
  61:systemview/SEGGER_SYSVIEW.c ****     structure and contain a length field.
  62:systemview/SEGGER_SYSVIEW.c ****     <ID><Lenght><Data><TimeStampDelta>
  63:systemview/SEGGER_SYSVIEW.c **** 
  64:systemview/SEGGER_SYSVIEW.c ****     Packet ID 31 is used for SystemView extended events.
  65:systemview/SEGGER_SYSVIEW.c ****     <ID><Lenght><ID_EX><Data><TimeStampDelta>
  66:systemview/SEGGER_SYSVIEW.c **** 
  67:systemview/SEGGER_SYSVIEW.c ****     Packets with IDs >= 32 always contain a length field.
  68:systemview/SEGGER_SYSVIEW.c ****     <ID><Length><Data><TimeStampDelta>
  69:systemview/SEGGER_SYSVIEW.c **** 
  70:systemview/SEGGER_SYSVIEW.c ****   Packet IDs:
  71:systemview/SEGGER_SYSVIEW.c ****        0..  31 : Standard packets, known by SystemView.
  72:systemview/SEGGER_SYSVIEW.c ****       32..1023 : OS-definable packets, described in a SystemView description file.
  73:systemview/SEGGER_SYSVIEW.c ****     1024..2047 : User-definable packets, described in a SystemView description file.
  74:systemview/SEGGER_SYSVIEW.c ****     2048..32767: Undefined.
  75:systemview/SEGGER_SYSVIEW.c **** 
  76:systemview/SEGGER_SYSVIEW.c ****   Data encoding:
  77:systemview/SEGGER_SYSVIEW.c ****     Basic types (int, short, char, ...):
  78:systemview/SEGGER_SYSVIEW.c ****       Basic types are encoded little endian with most-significant bit variant
  79:systemview/SEGGER_SYSVIEW.c ****       encoding.
  80:systemview/SEGGER_SYSVIEW.c ****       Each encoded byte contains 7 data bits [6:0] and the MSB continuation bit.
  81:systemview/SEGGER_SYSVIEW.c ****       The continuation bit indicates whether the next byte belongs to the data
  82:systemview/SEGGER_SYSVIEW.c ****       (bit set) or this is the last byte (bit clear).
  83:systemview/SEGGER_SYSVIEW.c ****       The most significant bits of data are encoded first, proceeding to the
  84:systemview/SEGGER_SYSVIEW.c ****       least significant bits in the final byte (little endian).
  85:systemview/SEGGER_SYSVIEW.c **** 
  86:systemview/SEGGER_SYSVIEW.c ****       Example encoding:
  87:systemview/SEGGER_SYSVIEW.c ****         Data: 0x1F4 (500)
  88:systemview/SEGGER_SYSVIEW.c ****         Encoded: 0xF4 (First 7 data bits 74 | Continuation bit)
  89:systemview/SEGGER_SYSVIEW.c ****                  0x03 (Second 7 data bits 03, no continuation)
ARM GAS  C:\Users\20398\AppData\Local\Temp\cchI1MdI.s 			page 3


  90:systemview/SEGGER_SYSVIEW.c **** 
  91:systemview/SEGGER_SYSVIEW.c ****         Data: 0xFFFFFFFF
  92:systemview/SEGGER_SYSVIEW.c ****         Encoded: 0xFF 0xFF 0xFF 0xFF 0x0F
  93:systemview/SEGGER_SYSVIEW.c **** 
  94:systemview/SEGGER_SYSVIEW.c ****         Data: 0xA2 (162),   0x03 (3), 0x7000
  95:systemview/SEGGER_SYSVIEW.c ****         Encoded: 0xA2 0x01  0x03      0x80 0xE0 0x01
  96:systemview/SEGGER_SYSVIEW.c **** 
  97:systemview/SEGGER_SYSVIEW.c ****     Byte arrays and strings:
  98:systemview/SEGGER_SYSVIEW.c ****       Byte arrays and strings are encoded as <NumBytes> followed by the raw data.
  99:systemview/SEGGER_SYSVIEW.c ****       NumBytes is encoded as a basic type with a theoretical maximum of 4G.
 100:systemview/SEGGER_SYSVIEW.c **** 
 101:systemview/SEGGER_SYSVIEW.c ****       Example encoding:
 102:systemview/SEGGER_SYSVIEW.c ****         Data: "Hello World\0" (0x48 0x65 0x6C 0x6C 0x6F 0x20 0x57 0x6F 0x72 0x6C 0x64 0x00)
 103:systemview/SEGGER_SYSVIEW.c ****         Encoded: 0x0B 0x48 0x65 0x6C 0x6C 0x6F 0x20 0x57 0x6F 0x72 0x6C 0x64
 104:systemview/SEGGER_SYSVIEW.c **** 
 105:systemview/SEGGER_SYSVIEW.c ****   Examples packets:
 106:systemview/SEGGER_SYSVIEW.c ****   01 F4 03 80 80 10 // Overflow packet. Data is a single U32.
 107:systemview/SEGGER_SYSVIEW.c ****                        This packet means: 500 packets lost, Timestamp is 0x40000
 108:systemview/SEGGER_SYSVIEW.c **** 
 109:systemview/SEGGER_SYSVIEW.c ****   02 0F 50          // ISR(15) Enter. Timestamp 80 (0x50)
 110:systemview/SEGGER_SYSVIEW.c **** 
 111:systemview/SEGGER_SYSVIEW.c ****   03 20             // ISR Exit. Timestamp 32 (0x20) (Shortest possible packet.)
 112:systemview/SEGGER_SYSVIEW.c **** 
 113:systemview/SEGGER_SYSVIEW.c ****   Sample code for user defined Packets:
 114:systemview/SEGGER_SYSVIEW.c ****     #define MY_ID   0x400                // Any value between 0x400 and 0x7FF
 115:systemview/SEGGER_SYSVIEW.c ****     void SendMyPacket(unsigned Para0, unsigned Para1, const char* s) {
 116:systemview/SEGGER_SYSVIEW.c ****       U8  aPacket[SEGGER_SYSVIEW_INFO_SIZE + 2 * SEGGER_SYSVIEW_QUANTA_U32 + MAX_STR_LEN + 1];
 117:systemview/SEGGER_SYSVIEW.c ****       U8* pPayload;
 118:systemview/SEGGER_SYSVIEW.c ****       //
 119:systemview/SEGGER_SYSVIEW.c ****       pPayload = SEGGER_SYSVIEW_PPREPARE_PACKET(aPacket);               // Prepare the packet for S
 120:systemview/SEGGER_SYSVIEW.c ****       pPayload = SEGGER_SYSVIEW_EncodeU32(pPayload, Para0);             // Add the first parameter 
 121:systemview/SEGGER_SYSVIEW.c ****       pPayload = SEGGER_SYSVIEW_EncodeU32(pPayload, Para1);             // Add the second parameter
 122:systemview/SEGGER_SYSVIEW.c ****       pPayload = SEGGER_SYSVIEW_EncodeString(pPayload, s, MAX_STR_LEN); // Add the string to the pa
 123:systemview/SEGGER_SYSVIEW.c ****       //
 124:systemview/SEGGER_SYSVIEW.c ****       SEGGER_SYSVIEW_SendPacket(&aPacket[0], pPayload, MY_ID);          // Send the packet with Eve
 125:systemview/SEGGER_SYSVIEW.c ****     }
 126:systemview/SEGGER_SYSVIEW.c **** 
 127:systemview/SEGGER_SYSVIEW.c ****     #define MY_ID_1 0x401
 128:systemview/SEGGER_SYSVIEW.c ****     void SendOnePara(unsigned Para0) {
 129:systemview/SEGGER_SYSVIEW.c ****       SEGGER_SYSVIEW_RecordU32(MY_ID_1, Para0);
 130:systemview/SEGGER_SYSVIEW.c ****     }
 131:systemview/SEGGER_SYSVIEW.c **** 
 132:systemview/SEGGER_SYSVIEW.c **** */
 133:systemview/SEGGER_SYSVIEW.c **** 
 134:systemview/SEGGER_SYSVIEW.c **** /*********************************************************************
 135:systemview/SEGGER_SYSVIEW.c **** *
 136:systemview/SEGGER_SYSVIEW.c **** *       #include section
 137:systemview/SEGGER_SYSVIEW.c **** *
 138:systemview/SEGGER_SYSVIEW.c **** **********************************************************************
 139:systemview/SEGGER_SYSVIEW.c **** */
 140:systemview/SEGGER_SYSVIEW.c **** 
 141:systemview/SEGGER_SYSVIEW.c **** #define SEGGER_SYSVIEW_C  // For EXTERN statements in SEGGER_SYSVIEW.h
 142:systemview/SEGGER_SYSVIEW.c **** 
 143:systemview/SEGGER_SYSVIEW.c **** #include <string.h>
 144:systemview/SEGGER_SYSVIEW.c **** #include <stdlib.h>
 145:systemview/SEGGER_SYSVIEW.c **** #include <stdarg.h>
 146:systemview/SEGGER_SYSVIEW.c **** #include "SEGGER_SYSVIEW_Int.h"
ARM GAS  C:\Users\20398\AppData\Local\Temp\cchI1MdI.s 			page 4


 147:systemview/SEGGER_SYSVIEW.c **** #include "SEGGER_RTT.h"
 148:systemview/SEGGER_SYSVIEW.c **** 
 149:systemview/SEGGER_SYSVIEW.c **** /*********************************************************************
 150:systemview/SEGGER_SYSVIEW.c **** *
 151:systemview/SEGGER_SYSVIEW.c **** *       Defines, fixed
 152:systemview/SEGGER_SYSVIEW.c **** *
 153:systemview/SEGGER_SYSVIEW.c **** **********************************************************************
 154:systemview/SEGGER_SYSVIEW.c **** */
 155:systemview/SEGGER_SYSVIEW.c **** #if SEGGER_SYSVIEW_ID_SHIFT
 156:systemview/SEGGER_SYSVIEW.c ****   #define SHRINK_ID(Id)   (((Id) - _SYSVIEW_Globals.RAMBaseAddress) >> SEGGER_SYSVIEW_ID_SHIFT)
 157:systemview/SEGGER_SYSVIEW.c **** #else
 158:systemview/SEGGER_SYSVIEW.c ****   #define SHRINK_ID(Id)   ((Id) - _SYSVIEW_Globals.RAMBaseAddress)
 159:systemview/SEGGER_SYSVIEW.c **** #endif
 160:systemview/SEGGER_SYSVIEW.c **** 
 161:systemview/SEGGER_SYSVIEW.c **** #if SEGGER_SYSVIEW_RTT_CHANNEL > 0
 162:systemview/SEGGER_SYSVIEW.c ****   #define CHANNEL_ID_UP   SEGGER_SYSVIEW_RTT_CHANNEL
 163:systemview/SEGGER_SYSVIEW.c ****   #define CHANNEL_ID_DOWN SEGGER_SYSVIEW_RTT_CHANNEL
 164:systemview/SEGGER_SYSVIEW.c **** #else
 165:systemview/SEGGER_SYSVIEW.c ****   #define CHANNEL_ID_UP   _SYSVIEW_Globals.UpChannel
 166:systemview/SEGGER_SYSVIEW.c ****   #define CHANNEL_ID_DOWN _SYSVIEW_Globals.DownChannel
 167:systemview/SEGGER_SYSVIEW.c **** #endif
 168:systemview/SEGGER_SYSVIEW.c **** 
 169:systemview/SEGGER_SYSVIEW.c **** #if SEGGER_SYSVIEW_CPU_CACHE_LINE_SIZE
 170:systemview/SEGGER_SYSVIEW.c ****   #if (SEGGER_SYSVIEW_RTT_BUFFER_SIZE % SEGGER_SYSVIEW_CPU_CACHE_LINE_SIZE)
 171:systemview/SEGGER_SYSVIEW.c ****     #error "SEGGER_SYSVIEW_RTT_BUFFER_SIZE must be a multiple of SEGGER_SYSVIEW_CPU_CACHE_LINE_SIZE
 172:systemview/SEGGER_SYSVIEW.c ****   #endif
 173:systemview/SEGGER_SYSVIEW.c **** #endif
 174:systemview/SEGGER_SYSVIEW.c **** 
 175:systemview/SEGGER_SYSVIEW.c **** /*********************************************************************
 176:systemview/SEGGER_SYSVIEW.c **** *
 177:systemview/SEGGER_SYSVIEW.c **** *       Defines, configurable
 178:systemview/SEGGER_SYSVIEW.c **** *
 179:systemview/SEGGER_SYSVIEW.c **** **********************************************************************
 180:systemview/SEGGER_SYSVIEW.c **** */
 181:systemview/SEGGER_SYSVIEW.c **** // Timestamps may be less than full 32-bits, in which case we need to zero
 182:systemview/SEGGER_SYSVIEW.c **** // the unused bits to properly handle overflows.
 183:systemview/SEGGER_SYSVIEW.c **** // Note that this is a quite common scenario, as a 32-bit time such as
 184:systemview/SEGGER_SYSVIEW.c **** // SysTick might be scaled down to reduce bandwith
 185:systemview/SEGGER_SYSVIEW.c **** // or a 16-bit hardware time might be used.
 186:systemview/SEGGER_SYSVIEW.c **** #if SEGGER_SYSVIEW_TIMESTAMP_BITS < 32  // Eliminate unused bits in case hardware timestamps are le
 187:systemview/SEGGER_SYSVIEW.c ****   #define MAKE_DELTA_32BIT(Delta) Delta <<= 32 - SEGGER_SYSVIEW_TIMESTAMP_BITS; \
 188:systemview/SEGGER_SYSVIEW.c ****                                   Delta >>= 32 - SEGGER_SYSVIEW_TIMESTAMP_BITS;
 189:systemview/SEGGER_SYSVIEW.c **** #else
 190:systemview/SEGGER_SYSVIEW.c ****   #define MAKE_DELTA_32BIT(Delta)
 191:systemview/SEGGER_SYSVIEW.c **** #endif
 192:systemview/SEGGER_SYSVIEW.c **** 
 193:systemview/SEGGER_SYSVIEW.c **** #if SEGGER_SYSVIEW_SUPPORT_LONG_ID
 194:systemview/SEGGER_SYSVIEW.c ****   #define _MAX_ID_BYTES       5u
 195:systemview/SEGGER_SYSVIEW.c **** #else
 196:systemview/SEGGER_SYSVIEW.c ****   #define _MAX_ID_BYTES       2u
 197:systemview/SEGGER_SYSVIEW.c **** #endif
 198:systemview/SEGGER_SYSVIEW.c **** 
 199:systemview/SEGGER_SYSVIEW.c **** #if SEGGER_SYSVIEW_SUPPORT_LONG_DATA
 200:systemview/SEGGER_SYSVIEW.c ****   #define _MAX_DATA_BYTES     5u
 201:systemview/SEGGER_SYSVIEW.c **** #else
 202:systemview/SEGGER_SYSVIEW.c ****   #define _MAX_DATA_BYTES     2u
 203:systemview/SEGGER_SYSVIEW.c **** #endif
ARM GAS  C:\Users\20398\AppData\Local\Temp\cchI1MdI.s 			page 5


 204:systemview/SEGGER_SYSVIEW.c **** 
 205:systemview/SEGGER_SYSVIEW.c **** /*********************************************************************
 206:systemview/SEGGER_SYSVIEW.c **** *
 207:systemview/SEGGER_SYSVIEW.c **** *       Defines, fixed
 208:systemview/SEGGER_SYSVIEW.c **** *
 209:systemview/SEGGER_SYSVIEW.c **** **********************************************************************
 210:systemview/SEGGER_SYSVIEW.c **** */
 211:systemview/SEGGER_SYSVIEW.c **** #define ENABLE_STATE_OFF        0
 212:systemview/SEGGER_SYSVIEW.c **** #define ENABLE_STATE_ON         1
 213:systemview/SEGGER_SYSVIEW.c **** #define ENABLE_STATE_DROPPING   2
 214:systemview/SEGGER_SYSVIEW.c **** 
 215:systemview/SEGGER_SYSVIEW.c **** #define FORMAT_FLAG_LEFT_JUSTIFY   (1u << 0)
 216:systemview/SEGGER_SYSVIEW.c **** #define FORMAT_FLAG_PAD_ZERO       (1u << 1)
 217:systemview/SEGGER_SYSVIEW.c **** #define FORMAT_FLAG_PRINT_SIGN     (1u << 2)
 218:systemview/SEGGER_SYSVIEW.c **** #define FORMAT_FLAG_ALTERNATE      (1u << 3)
 219:systemview/SEGGER_SYSVIEW.c **** 
 220:systemview/SEGGER_SYSVIEW.c **** #define MODULE_EVENT_OFFSET        (512)
 221:systemview/SEGGER_SYSVIEW.c **** 
 222:systemview/SEGGER_SYSVIEW.c **** /*********************************************************************
 223:systemview/SEGGER_SYSVIEW.c **** *
 224:systemview/SEGGER_SYSVIEW.c **** *       Types, local
 225:systemview/SEGGER_SYSVIEW.c **** *
 226:systemview/SEGGER_SYSVIEW.c **** **********************************************************************
 227:systemview/SEGGER_SYSVIEW.c **** */
 228:systemview/SEGGER_SYSVIEW.c **** typedef struct {
 229:systemview/SEGGER_SYSVIEW.c ****   U8*       pBuffer;
 230:systemview/SEGGER_SYSVIEW.c ****   U8*       pPayload;
 231:systemview/SEGGER_SYSVIEW.c ****   U8*       pPayloadStart;
 232:systemview/SEGGER_SYSVIEW.c ****   U32       Options;
 233:systemview/SEGGER_SYSVIEW.c ****   unsigned  Cnt;
 234:systemview/SEGGER_SYSVIEW.c **** } SEGGER_SYSVIEW_PRINTF_DESC;
 235:systemview/SEGGER_SYSVIEW.c **** 
 236:systemview/SEGGER_SYSVIEW.c **** typedef struct {
 237:systemview/SEGGER_SYSVIEW.c ****         U8                      EnableState;   // 0: Disabled, 1: Enabled, (2: Dropping)
 238:systemview/SEGGER_SYSVIEW.c ****         U8                      UpChannel;
 239:systemview/SEGGER_SYSVIEW.c ****         U8                      RecursionCnt;
 240:systemview/SEGGER_SYSVIEW.c ****         U32                     SysFreq;
 241:systemview/SEGGER_SYSVIEW.c ****         U32                     CPUFreq;
 242:systemview/SEGGER_SYSVIEW.c ****         U32                     LastTxTimeStamp;
 243:systemview/SEGGER_SYSVIEW.c ****         U32                     RAMBaseAddress;
 244:systemview/SEGGER_SYSVIEW.c **** #if (SEGGER_SYSVIEW_POST_MORTEM_MODE == 1)
 245:systemview/SEGGER_SYSVIEW.c ****         U32                     PacketCount;
 246:systemview/SEGGER_SYSVIEW.c **** #else
 247:systemview/SEGGER_SYSVIEW.c ****         U32                     DropCount;
 248:systemview/SEGGER_SYSVIEW.c ****         U8                      DownChannel;
 249:systemview/SEGGER_SYSVIEW.c **** #endif
 250:systemview/SEGGER_SYSVIEW.c ****         U32                     DisabledEvents;
 251:systemview/SEGGER_SYSVIEW.c ****   const SEGGER_SYSVIEW_OS_API*  pOSAPI;
 252:systemview/SEGGER_SYSVIEW.c ****         SEGGER_SYSVIEW_SEND_SYS_DESC_FUNC*   pfSendSysDesc;
 253:systemview/SEGGER_SYSVIEW.c **** } SEGGER_SYSVIEW_GLOBALS;
 254:systemview/SEGGER_SYSVIEW.c **** 
 255:systemview/SEGGER_SYSVIEW.c **** /*********************************************************************
 256:systemview/SEGGER_SYSVIEW.c **** *
 257:systemview/SEGGER_SYSVIEW.c **** *       Function prototypes, required
 258:systemview/SEGGER_SYSVIEW.c **** *
 259:systemview/SEGGER_SYSVIEW.c **** **********************************************************************
 260:systemview/SEGGER_SYSVIEW.c **** */
ARM GAS  C:\Users\20398\AppData\Local\Temp\cchI1MdI.s 			page 6


 261:systemview/SEGGER_SYSVIEW.c **** static void _SendPacket(U8* pStartPacket, U8* pEndPacket, unsigned int EventId);
 262:systemview/SEGGER_SYSVIEW.c **** 
 263:systemview/SEGGER_SYSVIEW.c **** /*********************************************************************
 264:systemview/SEGGER_SYSVIEW.c **** *
 265:systemview/SEGGER_SYSVIEW.c **** *       Static data
 266:systemview/SEGGER_SYSVIEW.c **** *
 267:systemview/SEGGER_SYSVIEW.c **** **********************************************************************
 268:systemview/SEGGER_SYSVIEW.c **** */
 269:systemview/SEGGER_SYSVIEW.c **** static const U8 _abSync[10] = { 0x00, 0x00, 0x00, 0x00, 0x00, 0x00, 0x00, 0x00, 0x00, 0x00};
 270:systemview/SEGGER_SYSVIEW.c **** 
 271:systemview/SEGGER_SYSVIEW.c **** #if SEGGER_SYSVIEW_CPU_CACHE_LINE_SIZE
 272:systemview/SEGGER_SYSVIEW.c ****   #ifdef SEGGER_SYSVIEW_SECTION
 273:systemview/SEGGER_SYSVIEW.c ****     //
 274:systemview/SEGGER_SYSVIEW.c ****     // Alignment + special section required
 275:systemview/SEGGER_SYSVIEW.c ****     //
 276:systemview/SEGGER_SYSVIEW.c ****     #if (defined __GNUC__)
 277:systemview/SEGGER_SYSVIEW.c ****       __attribute__ ((section (SEGGER_SYSVIEW_SECTION), aligned (SEGGER_SYSVIEW_CPU_CACHE_LINE_SIZE
 278:systemview/SEGGER_SYSVIEW.c ****       #if (SEGGER_SYSVIEW_POST_MORTEM_MODE != 1)
 279:systemview/SEGGER_SYSVIEW.c ****         __attribute__ ((section (SEGGER_SYSVIEW_SECTION), aligned (SEGGER_SYSVIEW_CPU_CACHE_LINE_SI
 280:systemview/SEGGER_SYSVIEW.c ****       #endif
 281:systemview/SEGGER_SYSVIEW.c ****     #elif (defined __ICCARM__) || (defined __ICCRX__)
 282:systemview/SEGGER_SYSVIEW.c ****       #pragma location=SEGGER_SYSVIEW_SECTION
 283:systemview/SEGGER_SYSVIEW.c ****       #pragma data_alignment=SEGGER_RTT_CPU_CACHE_LINE_SIZE
 284:systemview/SEGGER_SYSVIEW.c ****       static char _UpBuffer  [SEGGER_SYSVIEW_RTT_BUFFER_SIZE];
 285:systemview/SEGGER_SYSVIEW.c ****       #if (SEGGER_SYSVIEW_POST_MORTEM_MODE != 1)
 286:systemview/SEGGER_SYSVIEW.c ****         #pragma location=SEGGER_SYSVIEW_SECTION
 287:systemview/SEGGER_SYSVIEW.c ****         #pragma data_alignment=SEGGER_RTT_CPU_CACHE_LINE_SIZE
 288:systemview/SEGGER_SYSVIEW.c ****         static char _DownBuffer[8];  // Small, fixed-size buffer, for back-channel comms
 289:systemview/SEGGER_SYSVIEW.c ****       #endif
 290:systemview/SEGGER_SYSVIEW.c ****     #elif (defined __CC_ARM)
 291:systemview/SEGGER_SYSVIEW.c ****       __attribute__ ((section (SEGGER_SYSVIEW_SECTION), aligned (SEGGER_SYSVIEW_CPU_CACHE_LINE_SIZE
 292:systemview/SEGGER_SYSVIEW.c ****       #if (SEGGER_SYSVIEW_POST_MORTEM_MODE != 1)
 293:systemview/SEGGER_SYSVIEW.c ****         __attribute__ ((section (SEGGER_SYSVIEW_SECTION), aligned (SEGGER_SYSVIEW_CPU_CACHE_LINE_SI
 294:systemview/SEGGER_SYSVIEW.c ****       #endif
 295:systemview/SEGGER_SYSVIEW.c ****     #else
 296:systemview/SEGGER_SYSVIEW.c ****       #error "Do not know how to place SystemView buffers in specific section"
 297:systemview/SEGGER_SYSVIEW.c ****     #endif
 298:systemview/SEGGER_SYSVIEW.c ****   #else
 299:systemview/SEGGER_SYSVIEW.c ****     //
 300:systemview/SEGGER_SYSVIEW.c ****     // Only alignment required
 301:systemview/SEGGER_SYSVIEW.c ****     //
 302:systemview/SEGGER_SYSVIEW.c ****     #if (defined __GNUC__)
 303:systemview/SEGGER_SYSVIEW.c ****       __attribute__ ((aligned (SEGGER_SYSVIEW_CPU_CACHE_LINE_SIZE))) static char _UpBuffer  [SEGGER
 304:systemview/SEGGER_SYSVIEW.c ****       #if (SEGGER_SYSVIEW_POST_MORTEM_MODE != 1)
 305:systemview/SEGGER_SYSVIEW.c ****         __attribute__ ((aligned (SEGGER_SYSVIEW_CPU_CACHE_LINE_SIZE))) static char _DownBuffer[8]; 
 306:systemview/SEGGER_SYSVIEW.c ****       #endif
 307:systemview/SEGGER_SYSVIEW.c ****     #elif (defined __ICCARM__) || (defined __ICCRX__)
 308:systemview/SEGGER_SYSVIEW.c ****       #pragma data_alignment=SEGGER_RTT_CPU_CACHE_LINE_SIZE
 309:systemview/SEGGER_SYSVIEW.c ****       static char _UpBuffer  [SEGGER_SYSVIEW_RTT_BUFFER_SIZE];
 310:systemview/SEGGER_SYSVIEW.c ****       #if (SEGGER_SYSVIEW_POST_MORTEM_MODE != 1)
 311:systemview/SEGGER_SYSVIEW.c ****         #pragma data_alignment=SEGGER_RTT_CPU_CACHE_LINE_SIZE
 312:systemview/SEGGER_SYSVIEW.c ****         static char _DownBuffer[8];  // Small, fixed-size buffer, for back-channel comms
 313:systemview/SEGGER_SYSVIEW.c ****       #endif
 314:systemview/SEGGER_SYSVIEW.c ****     #elif (defined __CC_ARM)
 315:systemview/SEGGER_SYSVIEW.c ****       __attribute__ ((aligned (SEGGER_SYSVIEW_CPU_CACHE_LINE_SIZE), zero_init)) static char _UpBuff
 316:systemview/SEGGER_SYSVIEW.c ****       #if (SEGGER_SYSVIEW_POST_MORTEM_MODE != 1)
 317:systemview/SEGGER_SYSVIEW.c ****         __attribute__ ((aligned (SEGGER_SYSVIEW_CPU_CACHE_LINE_SIZE), zero_init)) static char _Down
ARM GAS  C:\Users\20398\AppData\Local\Temp\cchI1MdI.s 			page 7


 318:systemview/SEGGER_SYSVIEW.c ****       #endif
 319:systemview/SEGGER_SYSVIEW.c ****     #else
 320:systemview/SEGGER_SYSVIEW.c ****       #error "Do not know how to align SystemView buffers to cache line size"
 321:systemview/SEGGER_SYSVIEW.c ****     #endif
 322:systemview/SEGGER_SYSVIEW.c ****   #endif
 323:systemview/SEGGER_SYSVIEW.c **** #else
 324:systemview/SEGGER_SYSVIEW.c ****   #ifdef SEGGER_SYSVIEW_SECTION
 325:systemview/SEGGER_SYSVIEW.c ****     //
 326:systemview/SEGGER_SYSVIEW.c ****     // Only special section required
 327:systemview/SEGGER_SYSVIEW.c ****     //
 328:systemview/SEGGER_SYSVIEW.c ****     #if (defined __GNUC__)
 329:systemview/SEGGER_SYSVIEW.c ****       __attribute__ ((section (SEGGER_SYSVIEW_SECTION))) static char _UpBuffer  [SEGGER_SYSVIEW_RTT
 330:systemview/SEGGER_SYSVIEW.c ****       #if (SEGGER_SYSVIEW_POST_MORTEM_MODE != 1)
 331:systemview/SEGGER_SYSVIEW.c ****         __attribute__ ((section (SEGGER_SYSVIEW_SECTION))) static char _DownBuffer[8];  // Small, f
 332:systemview/SEGGER_SYSVIEW.c ****       #endif
 333:systemview/SEGGER_SYSVIEW.c ****     #elif (defined __ICCARM__) || (defined __ICCRX__)
 334:systemview/SEGGER_SYSVIEW.c ****       #pragma location=SEGGER_SYSVIEW_SECTION
 335:systemview/SEGGER_SYSVIEW.c ****       static char _UpBuffer  [SEGGER_SYSVIEW_RTT_BUFFER_SIZE];
 336:systemview/SEGGER_SYSVIEW.c ****       #if (SEGGER_SYSVIEW_POST_MORTEM_MODE != 1)
 337:systemview/SEGGER_SYSVIEW.c ****         #pragma location=SEGGER_SYSVIEW_SECTION
 338:systemview/SEGGER_SYSVIEW.c ****         static char _DownBuffer[8];  // Small, fixed-size buffer, for back-channel comms
 339:systemview/SEGGER_SYSVIEW.c ****       #endif
 340:systemview/SEGGER_SYSVIEW.c ****     #elif (defined __CC_ARM)
 341:systemview/SEGGER_SYSVIEW.c ****       __attribute__ ((section (SEGGER_SYSVIEW_SECTION), zero_init)) static char _UpBuffer  [SEGGER_
 342:systemview/SEGGER_SYSVIEW.c ****       #if (SEGGER_SYSVIEW_POST_MORTEM_MODE != 1)
 343:systemview/SEGGER_SYSVIEW.c ****         __attribute__ ((section (SEGGER_SYSVIEW_SECTION), zero_init)) static char _DownBuffer[8];  
 344:systemview/SEGGER_SYSVIEW.c ****       #endif
 345:systemview/SEGGER_SYSVIEW.c ****     #else
 346:systemview/SEGGER_SYSVIEW.c ****       #error "Do not know how to place SystemView buffers in specific section"
 347:systemview/SEGGER_SYSVIEW.c ****     #endif
 348:systemview/SEGGER_SYSVIEW.c ****   #else
 349:systemview/SEGGER_SYSVIEW.c ****     //
 350:systemview/SEGGER_SYSVIEW.c ****     // Neither special section nor alignment required
 351:systemview/SEGGER_SYSVIEW.c ****     //
 352:systemview/SEGGER_SYSVIEW.c ****     static char _UpBuffer  [SEGGER_SYSVIEW_RTT_BUFFER_SIZE];
 353:systemview/SEGGER_SYSVIEW.c ****     #if (SEGGER_SYSVIEW_POST_MORTEM_MODE != 1)
 354:systemview/SEGGER_SYSVIEW.c ****       static char _DownBuffer[8];  // Small, fixed-size buffer, for back-channel comms
 355:systemview/SEGGER_SYSVIEW.c ****     #endif
 356:systemview/SEGGER_SYSVIEW.c ****   #endif
 357:systemview/SEGGER_SYSVIEW.c **** #endif
 358:systemview/SEGGER_SYSVIEW.c **** 
 359:systemview/SEGGER_SYSVIEW.c **** static SEGGER_SYSVIEW_GLOBALS _SYSVIEW_Globals;
 360:systemview/SEGGER_SYSVIEW.c **** 
 361:systemview/SEGGER_SYSVIEW.c **** static SEGGER_SYSVIEW_MODULE* _pFirstModule;
 362:systemview/SEGGER_SYSVIEW.c **** static U8                     _NumModules;
 363:systemview/SEGGER_SYSVIEW.c **** 
 364:systemview/SEGGER_SYSVIEW.c **** /*********************************************************************
 365:systemview/SEGGER_SYSVIEW.c **** *
 366:systemview/SEGGER_SYSVIEW.c **** *       Static code
 367:systemview/SEGGER_SYSVIEW.c **** *
 368:systemview/SEGGER_SYSVIEW.c **** **********************************************************************
 369:systemview/SEGGER_SYSVIEW.c **** */
 370:systemview/SEGGER_SYSVIEW.c **** 
 371:systemview/SEGGER_SYSVIEW.c **** #define ENCODE_U32(pDest, Value) {                                                  \
 372:systemview/SEGGER_SYSVIEW.c ****                                    U8* pSysviewPointer;                             \
 373:systemview/SEGGER_SYSVIEW.c ****                                    U32 SysViewData;                                 \
 374:systemview/SEGGER_SYSVIEW.c ****                                    pSysviewPointer = pDest;                         \
ARM GAS  C:\Users\20398\AppData\Local\Temp\cchI1MdI.s 			page 8


 375:systemview/SEGGER_SYSVIEW.c ****                                    SysViewData = (U32)Value;                        \
 376:systemview/SEGGER_SYSVIEW.c ****                                    while(SysViewData > 0x7F) {                      \
 377:systemview/SEGGER_SYSVIEW.c ****                                      *pSysviewPointer++ = (U8)(SysViewData | 0x80); \
 378:systemview/SEGGER_SYSVIEW.c ****                                      SysViewData >>= 7;                             \
 379:systemview/SEGGER_SYSVIEW.c ****                                    };                                               \
 380:systemview/SEGGER_SYSVIEW.c ****                                    *pSysviewPointer++ = (U8)SysViewData;            \
 381:systemview/SEGGER_SYSVIEW.c ****                                    pDest = pSysviewPointer;                         \
 382:systemview/SEGGER_SYSVIEW.c ****                                  };
 383:systemview/SEGGER_SYSVIEW.c **** 
 384:systemview/SEGGER_SYSVIEW.c **** #if (SEGGER_SYSVIEW_USE_STATIC_BUFFER == 1)
 385:systemview/SEGGER_SYSVIEW.c **** static U8 _aPacket[SEGGER_SYSVIEW_MAX_PACKET_SIZE];
 386:systemview/SEGGER_SYSVIEW.c **** 
 387:systemview/SEGGER_SYSVIEW.c **** #define RECORD_START(PacketSize)  SEGGER_SYSVIEW_LOCK();                            \
 388:systemview/SEGGER_SYSVIEW.c ****                                   pPayloadStart = _PreparePacket(_aPacket);
 389:systemview/SEGGER_SYSVIEW.c **** 
 390:systemview/SEGGER_SYSVIEW.c **** #define RECORD_END()              SEGGER_SYSVIEW_UNLOCK()
 391:systemview/SEGGER_SYSVIEW.c **** 
 392:systemview/SEGGER_SYSVIEW.c **** #else
 393:systemview/SEGGER_SYSVIEW.c **** 
 394:systemview/SEGGER_SYSVIEW.c **** #define RECORD_START(PacketSize)  U8 aPacket[(PacketSize)];                         \
 395:systemview/SEGGER_SYSVIEW.c ****                                   pPayloadStart = _PreparePacket(aPacket);          \
 396:systemview/SEGGER_SYSVIEW.c **** 
 397:systemview/SEGGER_SYSVIEW.c **** #define RECORD_END()
 398:systemview/SEGGER_SYSVIEW.c **** 
 399:systemview/SEGGER_SYSVIEW.c **** #endif
 400:systemview/SEGGER_SYSVIEW.c **** 
 401:systemview/SEGGER_SYSVIEW.c **** /*********************************************************************
 402:systemview/SEGGER_SYSVIEW.c **** *
 403:systemview/SEGGER_SYSVIEW.c **** *       _EncodeData()
 404:systemview/SEGGER_SYSVIEW.c **** *
 405:systemview/SEGGER_SYSVIEW.c **** *  Function description
 406:systemview/SEGGER_SYSVIEW.c **** *    Encode a byte buffer in variable-length format.
 407:systemview/SEGGER_SYSVIEW.c **** *
 408:systemview/SEGGER_SYSVIEW.c **** *  Parameters
 409:systemview/SEGGER_SYSVIEW.c **** *    pPayload - Pointer to where string will be encoded.
 410:systemview/SEGGER_SYSVIEW.c **** *    pSrc     - Pointer to data buffer to be encoded.
 411:systemview/SEGGER_SYSVIEW.c **** *    NumBytes - Number of bytes in the buffer to be encoded.
 412:systemview/SEGGER_SYSVIEW.c **** *
 413:systemview/SEGGER_SYSVIEW.c **** *  Return value
 414:systemview/SEGGER_SYSVIEW.c **** *    Pointer to the byte following the value, i.e. the first free
 415:systemview/SEGGER_SYSVIEW.c **** *    byte in the payload and the next position to store payload
 416:systemview/SEGGER_SYSVIEW.c **** *    content.
 417:systemview/SEGGER_SYSVIEW.c **** *
 418:systemview/SEGGER_SYSVIEW.c **** *  Additional information
 419:systemview/SEGGER_SYSVIEW.c **** *    The data is encoded as a count byte followed by the contents
 420:systemview/SEGGER_SYSVIEW.c **** *    of the data buffer.
 421:systemview/SEGGER_SYSVIEW.c **** *    Make sure NumBytes + 1 bytes are free for the payload.
 422:systemview/SEGGER_SYSVIEW.c **** */
 423:systemview/SEGGER_SYSVIEW.c **** static U8* _EncodeData(U8* pPayload, const char* pSrc, unsigned int NumBytes) {
  27              		.loc 1 423 79 view -0
  28              		.cfi_startproc
  29              		@ args = 0, pretend = 0, frame = 0
  30              		@ frame_needed = 0, uses_anonymous_args = 0
  31              		@ link register save eliminated.
  32              		.loc 1 423 79 is_stmt 0 view .LVU1
  33 0000 0346     		mov	r3, r0
 424:systemview/SEGGER_SYSVIEW.c ****   unsigned int  n;
ARM GAS  C:\Users\20398\AppData\Local\Temp\cchI1MdI.s 			page 9


  34              		.loc 1 424 3 is_stmt 1 view .LVU2
 425:systemview/SEGGER_SYSVIEW.c ****   const U8*     p;
  35              		.loc 1 425 3 view .LVU3
 426:systemview/SEGGER_SYSVIEW.c ****   //
 427:systemview/SEGGER_SYSVIEW.c ****   n = 0;
  36              		.loc 1 427 3 view .LVU4
  37              	.LVL1:
 428:systemview/SEGGER_SYSVIEW.c ****   p = (const U8*)pSrc;
  38              		.loc 1 428 3 view .LVU5
 429:systemview/SEGGER_SYSVIEW.c ****   //
 430:systemview/SEGGER_SYSVIEW.c ****   // Write Len
 431:systemview/SEGGER_SYSVIEW.c ****   //
 432:systemview/SEGGER_SYSVIEW.c ****   if (NumBytes < 255)  {
  39              		.loc 1 432 3 view .LVU6
  40              		.loc 1 432 6 is_stmt 0 view .LVU7
  41 0002 FE2A     		cmp	r2, #254
  42 0004 03D8     		bhi	.L2
 433:systemview/SEGGER_SYSVIEW.c ****     *pPayload++ = (U8)NumBytes;
  43              		.loc 1 433 5 is_stmt 1 view .LVU8
  44              	.LVL2:
  45              		.loc 1 433 17 is_stmt 0 view .LVU9
  46 0006 00F8012B 		strb	r2, [r0], #1
  47              	.LVL3:
  48              	.L3:
 423:systemview/SEGGER_SYSVIEW.c ****   unsigned int  n;
  49              		.loc 1 423 79 view .LVU10
  50 000a 0023     		movs	r3, #0
  51 000c 0BE0     		b	.L4
  52              	.L2:
 434:systemview/SEGGER_SYSVIEW.c ****   } else {
 435:systemview/SEGGER_SYSVIEW.c ****     *pPayload++ = 255;
  53              		.loc 1 435 5 is_stmt 1 view .LVU11
  54              	.LVL4:
  55              		.loc 1 435 17 is_stmt 0 view .LVU12
  56 000e FF20     		movs	r0, #255
  57              	.LVL5:
  58              		.loc 1 435 17 view .LVU13
  59 0010 1870     		strb	r0, [r3]
 436:systemview/SEGGER_SYSVIEW.c ****     *pPayload++ = ((NumBytes >> 8) & 255);
  60              		.loc 1 436 5 is_stmt 1 view .LVU14
  61              		.loc 1 436 30 is_stmt 0 view .LVU15
  62 0012 100A     		lsrs	r0, r2, #8
  63              	.LVL6:
  64              		.loc 1 436 17 view .LVU16
  65 0014 5870     		strb	r0, [r3, #1]
 437:systemview/SEGGER_SYSVIEW.c ****     *pPayload++ = (NumBytes & 255);
  66              		.loc 1 437 5 is_stmt 1 view .LVU17
  67              		.loc 1 437 14 is_stmt 0 view .LVU18
  68 0016 D81C     		adds	r0, r3, #3
  69              	.LVL7:
  70              		.loc 1 437 17 view .LVU19
  71 0018 9A70     		strb	r2, [r3, #2]
  72 001a F6E7     		b	.L3
  73              	.LVL8:
  74              	.L5:
 438:systemview/SEGGER_SYSVIEW.c ****   }
 439:systemview/SEGGER_SYSVIEW.c ****   while (n < NumBytes) {
ARM GAS  C:\Users\20398\AppData\Local\Temp\cchI1MdI.s 			page 10


 440:systemview/SEGGER_SYSVIEW.c ****     *pPayload++ = *p++;
  75              		.loc 1 440 5 is_stmt 1 view .LVU20
  76              		.loc 1 440 19 is_stmt 0 view .LVU21
  77 001c 11F801CB 		ldrb	ip, [r1], #1	@ zero_extendqisi2
  78              	.LVL9:
  79              		.loc 1 440 17 view .LVU22
  80 0020 00F801CB 		strb	ip, [r0], #1
  81              	.LVL10:
 441:systemview/SEGGER_SYSVIEW.c ****     n++;
  82              		.loc 1 441 5 is_stmt 1 view .LVU23
  83              		.loc 1 441 6 is_stmt 0 view .LVU24
  84 0024 0133     		adds	r3, r3, #1
  85              	.LVL11:
  86              	.L4:
 439:systemview/SEGGER_SYSVIEW.c ****     *pPayload++ = *p++;
  87              		.loc 1 439 9 is_stmt 1 view .LVU25
  88 0026 9342     		cmp	r3, r2
  89 0028 F8D3     		bcc	.L5
 442:systemview/SEGGER_SYSVIEW.c ****   }
 443:systemview/SEGGER_SYSVIEW.c ****   return pPayload;
  90              		.loc 1 443 3 view .LVU26
 444:systemview/SEGGER_SYSVIEW.c **** }
  91              		.loc 1 444 1 is_stmt 0 view .LVU27
  92 002a 7047     		bx	lr
  93              		.cfi_endproc
  94              	.LFE0:
  96              		.section	.text._EncodeFloat,"ax",%progbits
  97              		.align	1
  98              		.syntax unified
  99              		.thumb
 100              		.thumb_func
 102              	_EncodeFloat:
 103              	.LVL12:
 104              	.LFB1:
 445:systemview/SEGGER_SYSVIEW.c **** 
 446:systemview/SEGGER_SYSVIEW.c **** /*********************************************************************
 447:systemview/SEGGER_SYSVIEW.c **** *
 448:systemview/SEGGER_SYSVIEW.c **** *       _EncodeFloat()
 449:systemview/SEGGER_SYSVIEW.c **** *
 450:systemview/SEGGER_SYSVIEW.c **** *  Function description
 451:systemview/SEGGER_SYSVIEW.c **** *    Encode a float value in variable-length format.
 452:systemview/SEGGER_SYSVIEW.c **** *
 453:systemview/SEGGER_SYSVIEW.c **** *  Parameters
 454:systemview/SEGGER_SYSVIEW.c **** *    pPayload - Pointer to where value will be encoded.
 455:systemview/SEGGER_SYSVIEW.c **** *    Value    - Value to be encoded.
 456:systemview/SEGGER_SYSVIEW.c **** *
 457:systemview/SEGGER_SYSVIEW.c **** *  Return value
 458:systemview/SEGGER_SYSVIEW.c **** *    Pointer to the byte following the value, i.e. the first free
 459:systemview/SEGGER_SYSVIEW.c **** *    byte in the payload and the next position to store payload
 460:systemview/SEGGER_SYSVIEW.c **** *    content.
 461:systemview/SEGGER_SYSVIEW.c **** */
 462:systemview/SEGGER_SYSVIEW.c **** static U8* _EncodeFloat(U8* pPayload, float Value) {
 105              		.loc 1 462 52 is_stmt 1 view -0
 106              		.cfi_startproc
 107              		@ args = 0, pretend = 0, frame = 8
 108              		@ frame_needed = 0, uses_anonymous_args = 0
 109              		@ link register save eliminated.
ARM GAS  C:\Users\20398\AppData\Local\Temp\cchI1MdI.s 			page 11


 110              		.loc 1 462 52 is_stmt 0 view .LVU29
 111 0000 82B0     		sub	sp, sp, #8
 112              	.LCFI0:
 113              		.cfi_def_cfa_offset 8
 463:systemview/SEGGER_SYSVIEW.c ****   float  Val;                                
 114              		.loc 1 463 3 is_stmt 1 view .LVU30
 464:systemview/SEGGER_SYSVIEW.c ****   U8*    pSysviewPointer;                             
 115              		.loc 1 464 3 view .LVU31
 465:systemview/SEGGER_SYSVIEW.c ****   U32*   SysViewData;
 116              		.loc 1 465 3 view .LVU32
 466:systemview/SEGGER_SYSVIEW.c **** 
 467:systemview/SEGGER_SYSVIEW.c ****   Val = Value;                                 
 117              		.loc 1 467 3 view .LVU33
 118              		.loc 1 467 7 is_stmt 0 view .LVU34
 119 0002 0191     		str	r1, [sp, #4]	@ float
 468:systemview/SEGGER_SYSVIEW.c ****   pSysviewPointer = pPayload;                        
 120              		.loc 1 468 3 is_stmt 1 view .LVU35
 121              	.LVL13:
 469:systemview/SEGGER_SYSVIEW.c ****   SysViewData = (U32*)&Val;                             
 122              		.loc 1 469 3 view .LVU36
 470:systemview/SEGGER_SYSVIEW.c ****   while((*SysViewData) > 0x7F) {          
 123              		.loc 1 470 3 view .LVU37
 124              		.loc 1 470 8 is_stmt 0 view .LVU38
 125 0004 06E0     		b	.L7
 126              	.LVL14:
 127              	.L8:
 471:systemview/SEGGER_SYSVIEW.c ****     *pSysviewPointer++ = (U8)((*SysViewData) | 0x80); 
 128              		.loc 1 471 5 is_stmt 1 view .LVU39
 129              		.loc 1 471 26 is_stmt 0 view .LVU40
 130 0006 63F07F03 		orn	r3, r3, #127
 131              		.loc 1 471 24 view .LVU41
 132 000a 00F8013B 		strb	r3, [r0], #1
 133              	.LVL15:
 472:systemview/SEGGER_SYSVIEW.c ****     (*SysViewData) >>= 7;                            
 134              		.loc 1 472 5 is_stmt 1 view .LVU42
 135              		.loc 1 472 20 is_stmt 0 view .LVU43
 136 000e 019B     		ldr	r3, [sp, #4]
 137 0010 DB09     		lsrs	r3, r3, #7
 138 0012 0193     		str	r3, [sp, #4]
 139              	.L7:
 470:systemview/SEGGER_SYSVIEW.c ****   while((*SysViewData) > 0x7F) {          
 140              		.loc 1 470 8 is_stmt 1 view .LVU44
 470:systemview/SEGGER_SYSVIEW.c ****   while((*SysViewData) > 0x7F) {          
 141              		.loc 1 470 10 is_stmt 0 view .LVU45
 142 0014 019B     		ldr	r3, [sp, #4]
 470:systemview/SEGGER_SYSVIEW.c ****   while((*SysViewData) > 0x7F) {          
 143              		.loc 1 470 8 view .LVU46
 144 0016 7F2B     		cmp	r3, #127
 145 0018 F5D8     		bhi	.L8
 473:systemview/SEGGER_SYSVIEW.c ****   }                                               
 474:systemview/SEGGER_SYSVIEW.c ****   *pSysviewPointer++ = (U8)(*SysViewData);            
 146              		.loc 1 474 3 is_stmt 1 view .LVU47
 147              	.LVL16:
 148              		.loc 1 474 22 is_stmt 0 view .LVU48
 149 001a 00F8013B 		strb	r3, [r0], #1
 150              	.LVL17:
 475:systemview/SEGGER_SYSVIEW.c ****   pPayload = pSysviewPointer;
ARM GAS  C:\Users\20398\AppData\Local\Temp\cchI1MdI.s 			page 12


 151              		.loc 1 475 3 is_stmt 1 view .LVU49
 476:systemview/SEGGER_SYSVIEW.c **** 
 477:systemview/SEGGER_SYSVIEW.c ****   return pPayload;
 152              		.loc 1 477 3 view .LVU50
 478:systemview/SEGGER_SYSVIEW.c **** }
 153              		.loc 1 478 1 is_stmt 0 view .LVU51
 154 001e 02B0     		add	sp, sp, #8
 155              	.LCFI1:
 156              		.cfi_def_cfa_offset 0
 157              	.LVL18:
 158              		.loc 1 478 1 view .LVU52
 159              		@ sp needed
 160 0020 7047     		bx	lr
 161              		.cfi_endproc
 162              	.LFE1:
 164              		.section	.text._EncodeStr,"ax",%progbits
 165              		.align	1
 166              		.syntax unified
 167              		.thumb
 168              		.thumb_func
 170              	_EncodeStr:
 171              	.LVL19:
 172              	.LFB2:
 479:systemview/SEGGER_SYSVIEW.c **** 
 480:systemview/SEGGER_SYSVIEW.c **** /*********************************************************************
 481:systemview/SEGGER_SYSVIEW.c **** *
 482:systemview/SEGGER_SYSVIEW.c **** *       _EncodeStr()
 483:systemview/SEGGER_SYSVIEW.c **** *
 484:systemview/SEGGER_SYSVIEW.c **** *  Function description
 485:systemview/SEGGER_SYSVIEW.c **** *    Encode a string in variable-length format.
 486:systemview/SEGGER_SYSVIEW.c **** *
 487:systemview/SEGGER_SYSVIEW.c **** *  Parameters
 488:systemview/SEGGER_SYSVIEW.c **** *    pPayload - Pointer to where string will be encoded.
 489:systemview/SEGGER_SYSVIEW.c **** *    pText    - String to encode.
 490:systemview/SEGGER_SYSVIEW.c **** *    Limit    - Maximum number of characters to encode from string.
 491:systemview/SEGGER_SYSVIEW.c **** *
 492:systemview/SEGGER_SYSVIEW.c **** *  Return value
 493:systemview/SEGGER_SYSVIEW.c **** *    Pointer to the byte following the value, i.e. the first free
 494:systemview/SEGGER_SYSVIEW.c **** *    byte in the payload and the next position to store payload
 495:systemview/SEGGER_SYSVIEW.c **** *    content.
 496:systemview/SEGGER_SYSVIEW.c **** *
 497:systemview/SEGGER_SYSVIEW.c **** *  Additional information
 498:systemview/SEGGER_SYSVIEW.c **** *    The string is encoded as a count byte followed by the contents
 499:systemview/SEGGER_SYSVIEW.c **** *    of the string.
 500:systemview/SEGGER_SYSVIEW.c **** *    No more than 1 + Limit bytes will be encoded to the payload.
 501:systemview/SEGGER_SYSVIEW.c **** */
 502:systemview/SEGGER_SYSVIEW.c **** static U8 *_EncodeStr(U8 *pPayload, const char *pText, unsigned int Limit) {
 173              		.loc 1 502 76 is_stmt 1 view -0
 174              		.cfi_startproc
 175              		@ args = 0, pretend = 0, frame = 0
 176              		@ frame_needed = 0, uses_anonymous_args = 0
 177              		.loc 1 502 76 is_stmt 0 view .LVU54
 178 0000 8446     		mov	ip, r0
 503:systemview/SEGGER_SYSVIEW.c ****   U8* pLen;
 179              		.loc 1 503 3 is_stmt 1 view .LVU55
 504:systemview/SEGGER_SYSVIEW.c ****   const char* sStart;
 180              		.loc 1 504 3 view .LVU56
ARM GAS  C:\Users\20398\AppData\Local\Temp\cchI1MdI.s 			page 13


 505:systemview/SEGGER_SYSVIEW.c **** 
 506:systemview/SEGGER_SYSVIEW.c ****   if (pText == NULL) {
 181              		.loc 1 506 3 view .LVU57
 182              		.loc 1 506 6 is_stmt 0 view .LVU58
 183 0002 39B1     		cbz	r1, .L21
 502:systemview/SEGGER_SYSVIEW.c ****   U8* pLen;
 184              		.loc 1 502 76 view .LVU59
 185 0004 00B5     		push	{lr}
 186              	.LCFI2:
 187              		.cfi_def_cfa_offset 4
 188              		.cfi_offset 14, -4
 189 0006 8E46     		mov	lr, r1
 507:systemview/SEGGER_SYSVIEW.c ****     *pPayload++ = (U8)0;
 508:systemview/SEGGER_SYSVIEW.c ****   } else {
 509:systemview/SEGGER_SYSVIEW.c ****     sStart = pText; // Remember start of string.
 190              		.loc 1 509 5 is_stmt 1 view .LVU60
 191              	.LVL20:
 510:systemview/SEGGER_SYSVIEW.c ****     //
 511:systemview/SEGGER_SYSVIEW.c ****     // Save space to store count byte(s).
 512:systemview/SEGGER_SYSVIEW.c ****     //
 513:systemview/SEGGER_SYSVIEW.c ****     pLen = pPayload++;
 192              		.loc 1 513 5 view .LVU61
 193              		.loc 1 513 20 is_stmt 0 view .LVU62
 194 0008 0130     		adds	r0, r0, #1
 195              	.LVL21:
 514:systemview/SEGGER_SYSVIEW.c **** #if (SEGGER_SYSVIEW_MAX_STRING_LEN >= 255)  // Length always encodes in 3 bytes
 515:systemview/SEGGER_SYSVIEW.c ****     pPayload += 2;
 516:systemview/SEGGER_SYSVIEW.c **** #endif
 517:systemview/SEGGER_SYSVIEW.c ****     //
 518:systemview/SEGGER_SYSVIEW.c ****     // Limit string to maximum length and copy into payload buffer.
 519:systemview/SEGGER_SYSVIEW.c ****     //
 520:systemview/SEGGER_SYSVIEW.c ****     if (Limit > SEGGER_SYSVIEW_MAX_STRING_LEN) {
 196              		.loc 1 520 5 is_stmt 1 view .LVU63
 197              		.loc 1 520 8 is_stmt 0 view .LVU64
 198 000a 802A     		cmp	r2, #128
 199 000c 00D9     		bls	.L13
 521:systemview/SEGGER_SYSVIEW.c ****       Limit = SEGGER_SYSVIEW_MAX_STRING_LEN;
 200              		.loc 1 521 13 view .LVU65
 201 000e 8022     		movs	r2, #128
 202              	.LVL22:
 203              	.L13:
 204              		.loc 1 521 13 view .LVU66
 205 0010 7346     		mov	r3, lr
 206 0012 07E0     		b	.L14
 207              	.LVL23:
 208              	.L21:
 209              	.LCFI3:
 210              		.cfi_def_cfa_offset 0
 211              		.cfi_restore 14
 507:systemview/SEGGER_SYSVIEW.c ****   } else {
 212              		.loc 1 507 5 is_stmt 1 view .LVU67
 507:systemview/SEGGER_SYSVIEW.c ****   } else {
 213              		.loc 1 507 17 is_stmt 0 view .LVU68
 214 0014 0023     		movs	r3, #0
 215 0016 00F8013B 		strb	r3, [r0], #1
 216              	.LVL24:
 522:systemview/SEGGER_SYSVIEW.c ****     }
ARM GAS  C:\Users\20398\AppData\Local\Temp\cchI1MdI.s 			page 14


 523:systemview/SEGGER_SYSVIEW.c ****     while ((Limit-- > 0) && (*pText != '\0')) {
 524:systemview/SEGGER_SYSVIEW.c ****       *pPayload++ = *pText++;
 525:systemview/SEGGER_SYSVIEW.c ****     }
 526:systemview/SEGGER_SYSVIEW.c ****     //
 527:systemview/SEGGER_SYSVIEW.c ****     // Save string length to buffer.
 528:systemview/SEGGER_SYSVIEW.c ****     //
 529:systemview/SEGGER_SYSVIEW.c **** #if (SEGGER_SYSVIEW_MAX_STRING_LEN >= 255)  // Length always encodes in 3 bytes
 530:systemview/SEGGER_SYSVIEW.c ****     Limit = (unsigned int)(pText - sStart);
 531:systemview/SEGGER_SYSVIEW.c ****     *pLen++ = (U8)255;
 532:systemview/SEGGER_SYSVIEW.c ****     *pLen++ = (U8)((Limit >> 8) & 255);
 533:systemview/SEGGER_SYSVIEW.c ****     *pLen++ = (U8)(Limit & 255);
 534:systemview/SEGGER_SYSVIEW.c **** #else   // Length always encodes in 1 byte
 535:systemview/SEGGER_SYSVIEW.c ****     *pLen = (U8)(pText - sStart);
 536:systemview/SEGGER_SYSVIEW.c **** #endif
 537:systemview/SEGGER_SYSVIEW.c ****   }
 538:systemview/SEGGER_SYSVIEW.c ****   //
 539:systemview/SEGGER_SYSVIEW.c ****   return pPayload;
 540:systemview/SEGGER_SYSVIEW.c **** }
 217              		.loc 1 540 1 view .LVU69
 218 001a 7047     		bx	lr
 219              	.LVL25:
 220              	.L16:
 221              	.LCFI4:
 222              		.cfi_def_cfa_offset 4
 223              		.cfi_offset 14, -4
 524:systemview/SEGGER_SYSVIEW.c ****     }
 224              		.loc 1 524 7 is_stmt 1 view .LVU70
 524:systemview/SEGGER_SYSVIEW.c ****     }
 225              		.loc 1 524 27 is_stmt 0 view .LVU71
 226 001c 0133     		adds	r3, r3, #1
 227              	.LVL26:
 524:systemview/SEGGER_SYSVIEW.c ****     }
 228              		.loc 1 524 19 view .LVU72
 229 001e 00F8012B 		strb	r2, [r0], #1
 230              	.LVL27:
 523:systemview/SEGGER_SYSVIEW.c ****       *pPayload++ = *pText++;
 231              		.loc 1 523 18 view .LVU73
 232 0022 0A46     		mov	r2, r1
 233              	.LVL28:
 234              	.L14:
 523:systemview/SEGGER_SYSVIEW.c ****       *pPayload++ = *pText++;
 235              		.loc 1 523 11 is_stmt 1 view .LVU74
 523:systemview/SEGGER_SYSVIEW.c ****       *pPayload++ = *pText++;
 236              		.loc 1 523 18 is_stmt 0 view .LVU75
 237 0024 511E     		subs	r1, r2, #1
 238              	.LVL29:
 523:systemview/SEGGER_SYSVIEW.c ****       *pPayload++ = *pText++;
 239              		.loc 1 523 11 view .LVU76
 240 0026 12B1     		cbz	r2, .L15
 523:systemview/SEGGER_SYSVIEW.c ****       *pPayload++ = *pText++;
 241              		.loc 1 523 30 discriminator 1 view .LVU77
 242 0028 1A78     		ldrb	r2, [r3]	@ zero_extendqisi2
 523:systemview/SEGGER_SYSVIEW.c ****       *pPayload++ = *pText++;
 243              		.loc 1 523 26 discriminator 1 view .LVU78
 244 002a 002A     		cmp	r2, #0
 245 002c F6D1     		bne	.L16
 246              	.L15:
ARM GAS  C:\Users\20398\AppData\Local\Temp\cchI1MdI.s 			page 15


 535:systemview/SEGGER_SYSVIEW.c **** #endif
 247              		.loc 1 535 5 is_stmt 1 view .LVU79
 535:systemview/SEGGER_SYSVIEW.c **** #endif
 248              		.loc 1 535 24 is_stmt 0 view .LVU80
 249 002e A3EB0E03 		sub	r3, r3, lr
 250              	.LVL30:
 535:systemview/SEGGER_SYSVIEW.c **** #endif
 251              		.loc 1 535 11 view .LVU81
 252 0032 8CF80030 		strb	r3, [ip]
 539:systemview/SEGGER_SYSVIEW.c **** }
 253              		.loc 1 539 3 is_stmt 1 view .LVU82
 254              		.loc 1 540 1 is_stmt 0 view .LVU83
 255 0036 5DF804FB 		ldr	pc, [sp], #4
 256              		.cfi_endproc
 257              	.LFE2:
 259              		.section	.text._PreparePacket,"ax",%progbits
 260              		.align	1
 261              		.syntax unified
 262              		.thumb
 263              		.thumb_func
 265              	_PreparePacket:
 266              	.LVL31:
 267              	.LFB3:
 541:systemview/SEGGER_SYSVIEW.c **** 
 542:systemview/SEGGER_SYSVIEW.c **** /*********************************************************************
 543:systemview/SEGGER_SYSVIEW.c **** *
 544:systemview/SEGGER_SYSVIEW.c **** *       _PreparePacket()
 545:systemview/SEGGER_SYSVIEW.c **** *
 546:systemview/SEGGER_SYSVIEW.c **** *  Function description
 547:systemview/SEGGER_SYSVIEW.c **** *    Prepare a SystemView event packet header.
 548:systemview/SEGGER_SYSVIEW.c **** *
 549:systemview/SEGGER_SYSVIEW.c **** *  Parameters
 550:systemview/SEGGER_SYSVIEW.c **** *    pPacket - Pointer to start of packet to initialize.
 551:systemview/SEGGER_SYSVIEW.c **** *
 552:systemview/SEGGER_SYSVIEW.c **** *  Return value
 553:systemview/SEGGER_SYSVIEW.c **** *    Pointer to first byte of packet payload.
 554:systemview/SEGGER_SYSVIEW.c **** *
 555:systemview/SEGGER_SYSVIEW.c **** *  Additional information
 556:systemview/SEGGER_SYSVIEW.c **** *    The payload length and evnetId are not initialized.
 557:systemview/SEGGER_SYSVIEW.c **** *    PreparePacket only reserves space for them and they are
 558:systemview/SEGGER_SYSVIEW.c **** *    computed and filled in by the sending function.
 559:systemview/SEGGER_SYSVIEW.c **** */
 560:systemview/SEGGER_SYSVIEW.c **** static U8* _PreparePacket(U8* pPacket) {
 268              		.loc 1 560 40 is_stmt 1 view -0
 269              		.cfi_startproc
 270              		@ args = 0, pretend = 0, frame = 0
 271              		@ frame_needed = 0, uses_anonymous_args = 0
 272              		@ link register save eliminated.
 561:systemview/SEGGER_SYSVIEW.c ****   return pPacket + _MAX_ID_BYTES + _MAX_DATA_BYTES;
 273              		.loc 1 561 3 view .LVU85
 562:systemview/SEGGER_SYSVIEW.c **** }
 274              		.loc 1 562 1 is_stmt 0 view .LVU86
 275 0000 0730     		adds	r0, r0, #7
 276              	.LVL32:
 277              		.loc 1 562 1 view .LVU87
 278 0002 7047     		bx	lr
 279              		.cfi_endproc
ARM GAS  C:\Users\20398\AppData\Local\Temp\cchI1MdI.s 			page 16


 280              	.LFE3:
 282              		.section	.text._TrySendOverflowPacket,"ax",%progbits
 283              		.align	1
 284              		.syntax unified
 285              		.thumb
 286              		.thumb_func
 288              	_TrySendOverflowPacket:
 289              	.LFB5:
 563:systemview/SEGGER_SYSVIEW.c **** 
 564:systemview/SEGGER_SYSVIEW.c **** /*********************************************************************
 565:systemview/SEGGER_SYSVIEW.c **** *
 566:systemview/SEGGER_SYSVIEW.c **** *       _HandleIncomingPacket()
 567:systemview/SEGGER_SYSVIEW.c **** *
 568:systemview/SEGGER_SYSVIEW.c **** *  Function description
 569:systemview/SEGGER_SYSVIEW.c **** *    Read an incoming command from the down channel and process it.
 570:systemview/SEGGER_SYSVIEW.c **** *
 571:systemview/SEGGER_SYSVIEW.c **** *  Additional information
 572:systemview/SEGGER_SYSVIEW.c **** *    This function is called each time after sending a packet.
 573:systemview/SEGGER_SYSVIEW.c **** *    Processing incoming packets is done asynchronous. SystemView might
 574:systemview/SEGGER_SYSVIEW.c **** *    already have sent event packets after the host has sent a command.
 575:systemview/SEGGER_SYSVIEW.c **** */
 576:systemview/SEGGER_SYSVIEW.c **** #if (SEGGER_SYSVIEW_POST_MORTEM_MODE != 1)
 577:systemview/SEGGER_SYSVIEW.c **** static void _HandleIncomingPacket(void) {
 578:systemview/SEGGER_SYSVIEW.c ****   U8  Cmd;
 579:systemview/SEGGER_SYSVIEW.c ****   unsigned int Status;
 580:systemview/SEGGER_SYSVIEW.c ****   //
 581:systemview/SEGGER_SYSVIEW.c ****   Status = SEGGER_RTT_ReadNoLock(CHANNEL_ID_DOWN, &Cmd, 1);
 582:systemview/SEGGER_SYSVIEW.c ****   if (Status > 0) {
 583:systemview/SEGGER_SYSVIEW.c ****     switch (Cmd) {
 584:systemview/SEGGER_SYSVIEW.c ****     case SEGGER_SYSVIEW_COMMAND_ID_START:
 585:systemview/SEGGER_SYSVIEW.c ****       SEGGER_SYSVIEW_Start();
 586:systemview/SEGGER_SYSVIEW.c ****       break;
 587:systemview/SEGGER_SYSVIEW.c ****     case SEGGER_SYSVIEW_COMMAND_ID_STOP:
 588:systemview/SEGGER_SYSVIEW.c ****       SEGGER_SYSVIEW_Stop();
 589:systemview/SEGGER_SYSVIEW.c ****       break;
 590:systemview/SEGGER_SYSVIEW.c ****     case SEGGER_SYSVIEW_COMMAND_ID_GET_SYSTIME:
 591:systemview/SEGGER_SYSVIEW.c ****       SEGGER_SYSVIEW_RecordSystime();
 592:systemview/SEGGER_SYSVIEW.c ****       break;
 593:systemview/SEGGER_SYSVIEW.c ****     case SEGGER_SYSVIEW_COMMAND_ID_GET_TASKLIST:
 594:systemview/SEGGER_SYSVIEW.c ****       SEGGER_SYSVIEW_SendTaskList();
 595:systemview/SEGGER_SYSVIEW.c ****       break;
 596:systemview/SEGGER_SYSVIEW.c ****     case SEGGER_SYSVIEW_COMMAND_ID_GET_SYSDESC:
 597:systemview/SEGGER_SYSVIEW.c ****       SEGGER_SYSVIEW_GetSysDesc();
 598:systemview/SEGGER_SYSVIEW.c ****       break;
 599:systemview/SEGGER_SYSVIEW.c ****     case SEGGER_SYSVIEW_COMMAND_ID_GET_NUMMODULES:
 600:systemview/SEGGER_SYSVIEW.c ****       SEGGER_SYSVIEW_SendNumModules();
 601:systemview/SEGGER_SYSVIEW.c ****       break;
 602:systemview/SEGGER_SYSVIEW.c ****     case SEGGER_SYSVIEW_COMMAND_ID_GET_MODULEDESC:
 603:systemview/SEGGER_SYSVIEW.c ****       SEGGER_SYSVIEW_SendModuleDescription();
 604:systemview/SEGGER_SYSVIEW.c ****       break;
 605:systemview/SEGGER_SYSVIEW.c ****     case SEGGER_SYSVIEW_COMMAND_ID_GET_MODULE:
 606:systemview/SEGGER_SYSVIEW.c ****       Status = SEGGER_RTT_ReadNoLock(CHANNEL_ID_DOWN, &Cmd, 1);
 607:systemview/SEGGER_SYSVIEW.c ****       if (Status > 0) {
 608:systemview/SEGGER_SYSVIEW.c ****         SEGGER_SYSVIEW_SendModule(Cmd);
 609:systemview/SEGGER_SYSVIEW.c ****       }
 610:systemview/SEGGER_SYSVIEW.c ****       break;
 611:systemview/SEGGER_SYSVIEW.c ****     case SEGGER_SYSVIEW_COMMAND_ID_HEARTBEAT:
ARM GAS  C:\Users\20398\AppData\Local\Temp\cchI1MdI.s 			page 17


 612:systemview/SEGGER_SYSVIEW.c ****       break;
 613:systemview/SEGGER_SYSVIEW.c ****     default:
 614:systemview/SEGGER_SYSVIEW.c ****       if (Cmd >= 128) { // Unknown extended command. Dummy read its parameter.
 615:systemview/SEGGER_SYSVIEW.c ****         SEGGER_RTT_ReadNoLock(CHANNEL_ID_DOWN, &Cmd, 1);
 616:systemview/SEGGER_SYSVIEW.c ****       }
 617:systemview/SEGGER_SYSVIEW.c ****       break;
 618:systemview/SEGGER_SYSVIEW.c ****     }
 619:systemview/SEGGER_SYSVIEW.c ****   }
 620:systemview/SEGGER_SYSVIEW.c **** }
 621:systemview/SEGGER_SYSVIEW.c **** #endif // (SEGGER_SYSVIEW_POST_MORTEM_MODE != 1)
 622:systemview/SEGGER_SYSVIEW.c **** 
 623:systemview/SEGGER_SYSVIEW.c **** /*********************************************************************
 624:systemview/SEGGER_SYSVIEW.c **** *
 625:systemview/SEGGER_SYSVIEW.c **** *       _TrySendOverflowPacket()
 626:systemview/SEGGER_SYSVIEW.c **** *
 627:systemview/SEGGER_SYSVIEW.c **** *  Function description
 628:systemview/SEGGER_SYSVIEW.c **** *    Try to transmit an SystemView Overflow packet containing the
 629:systemview/SEGGER_SYSVIEW.c **** *    number of dropped packets.
 630:systemview/SEGGER_SYSVIEW.c **** *
 631:systemview/SEGGER_SYSVIEW.c **** *  Additional information
 632:systemview/SEGGER_SYSVIEW.c **** *    Format as follows:
 633:systemview/SEGGER_SYSVIEW.c **** *      01 <DropCnt><TimeStamp>  Max. packet len is 1 + 5 + 5 = 11
 634:systemview/SEGGER_SYSVIEW.c **** *
 635:systemview/SEGGER_SYSVIEW.c **** *    Example packets sent
 636:systemview/SEGGER_SYSVIEW.c **** *      01 20 40
 637:systemview/SEGGER_SYSVIEW.c **** *
 638:systemview/SEGGER_SYSVIEW.c **** *  Return value
 639:systemview/SEGGER_SYSVIEW.c **** *    !=0:  Success, Message sent (stored in RTT-Buffer)
 640:systemview/SEGGER_SYSVIEW.c **** *    ==0:  Buffer full, Message *NOT* stored
 641:systemview/SEGGER_SYSVIEW.c **** *
 642:systemview/SEGGER_SYSVIEW.c **** */
 643:systemview/SEGGER_SYSVIEW.c **** #if (SEGGER_SYSVIEW_POST_MORTEM_MODE != 1)
 644:systemview/SEGGER_SYSVIEW.c **** static int _TrySendOverflowPacket(void) {
 290              		.loc 1 644 41 is_stmt 1 view -0
 291              		.cfi_startproc
 292              		@ args = 0, pretend = 0, frame = 16
 293              		@ frame_needed = 0, uses_anonymous_args = 0
 294 0000 10B5     		push	{r4, lr}
 295              	.LCFI5:
 296              		.cfi_def_cfa_offset 8
 297              		.cfi_offset 4, -8
 298              		.cfi_offset 14, -4
 299 0002 84B0     		sub	sp, sp, #16
 300              	.LCFI6:
 301              		.cfi_def_cfa_offset 24
 645:systemview/SEGGER_SYSVIEW.c ****   U32 TimeStamp;
 302              		.loc 1 645 3 view .LVU89
 646:systemview/SEGGER_SYSVIEW.c ****   I32 Delta;
 303              		.loc 1 646 3 view .LVU90
 647:systemview/SEGGER_SYSVIEW.c ****   int Status;
 304              		.loc 1 647 3 view .LVU91
 648:systemview/SEGGER_SYSVIEW.c ****   U8  aPacket[11];
 305              		.loc 1 648 3 view .LVU92
 649:systemview/SEGGER_SYSVIEW.c ****   U8* pPayload;
 306              		.loc 1 649 3 view .LVU93
 650:systemview/SEGGER_SYSVIEW.c **** 
 651:systemview/SEGGER_SYSVIEW.c ****   aPacket[0] = SYSVIEW_EVTID_OVERFLOW;      // 1
ARM GAS  C:\Users\20398\AppData\Local\Temp\cchI1MdI.s 			page 18


 307              		.loc 1 651 3 view .LVU94
 308              		.loc 1 651 14 is_stmt 0 view .LVU95
 309 0004 0123     		movs	r3, #1
 310 0006 8DF80430 		strb	r3, [sp, #4]
 652:systemview/SEGGER_SYSVIEW.c ****   pPayload   = &aPacket[1];
 311              		.loc 1 652 3 is_stmt 1 view .LVU96
 312              	.LVL33:
 313              	.LBB2:
 653:systemview/SEGGER_SYSVIEW.c ****   ENCODE_U32(pPayload, _SYSVIEW_Globals.DropCount);
 314              		.loc 1 653 3 view .LVU97
 315              		.loc 1 653 3 view .LVU98
 316              		.loc 1 653 3 view .LVU99
 317              		.loc 1 653 3 view .LVU100
 318 000a 184B     		ldr	r3, .L31
 319 000c 5B69     		ldr	r3, [r3, #20]
 320              	.LVL34:
 321              		.loc 1 653 3 view .LVU101
 322 000e 0DF10502 		add	r2, sp, #5
 323              	.LVL35:
 324              		.loc 1 653 3 is_stmt 0 view .LVU102
 325 0012 04E0     		b	.L24
 326              	.LVL36:
 327              	.L25:
 328              		.loc 1 653 3 is_stmt 1 discriminator 3 view .LVU103
 329              		.loc 1 653 3 is_stmt 0 discriminator 3 view .LVU104
 330 0014 63F07F01 		orn	r1, r3, #127
 331 0018 02F8011B 		strb	r1, [r2], #1
 332              	.LVL37:
 333              		.loc 1 653 3 is_stmt 1 discriminator 3 view .LVU105
 334 001c DB09     		lsrs	r3, r3, #7
 335              	.LVL38:
 336              	.L24:
 337              		.loc 1 653 3 discriminator 1 view .LVU106
 338 001e 7F2B     		cmp	r3, #127
 339 0020 F8D8     		bhi	.L25
 340              		.loc 1 653 3 discriminator 4 view .LVU107
 341              		.loc 1 653 3 discriminator 4 view .LVU108
 342              	.LVL39:
 343              		.loc 1 653 3 is_stmt 0 discriminator 4 view .LVU109
 344 0022 02F8013B 		strb	r3, [r2], #1
 345              	.LVL40:
 346              		.loc 1 653 3 is_stmt 1 discriminator 4 view .LVU110
 347              		.loc 1 653 3 is_stmt 0 discriminator 4 view .LVU111
 348              	.LBE2:
 349              		.loc 1 653 3 is_stmt 1 discriminator 4 view .LVU112
 350              		.loc 1 653 51 discriminator 4 view .LVU113
 654:systemview/SEGGER_SYSVIEW.c ****   //
 655:systemview/SEGGER_SYSVIEW.c ****   // Compute time stamp delta and append it to packet.
 656:systemview/SEGGER_SYSVIEW.c ****   //
 657:systemview/SEGGER_SYSVIEW.c ****   TimeStamp  = SEGGER_SYSVIEW_GET_TIMESTAMP();
 351              		.loc 1 657 3 discriminator 4 view .LVU114
 352              		.loc 1 657 14 is_stmt 0 discriminator 4 view .LVU115
 353 0026 124B     		ldr	r3, .L31+4
 354              	.LVL41:
 355              		.loc 1 657 14 discriminator 4 view .LVU116
 356 0028 5C68     		ldr	r4, [r3, #4]
 357              	.LVL42:
ARM GAS  C:\Users\20398\AppData\Local\Temp\cchI1MdI.s 			page 19


 658:systemview/SEGGER_SYSVIEW.c ****   Delta = (I32)(TimeStamp - _SYSVIEW_Globals.LastTxTimeStamp);
 358              		.loc 1 658 3 is_stmt 1 discriminator 4 view .LVU117
 359              		.loc 1 658 45 is_stmt 0 discriminator 4 view .LVU118
 360 002a 104B     		ldr	r3, .L31
 361 002c DB68     		ldr	r3, [r3, #12]
 362              		.loc 1 658 27 discriminator 4 view .LVU119
 363 002e E31A     		subs	r3, r4, r3
 364              	.LVL43:
 659:systemview/SEGGER_SYSVIEW.c ****   MAKE_DELTA_32BIT(Delta);
 365              		.loc 1 659 26 is_stmt 1 discriminator 4 view .LVU120
 366              	.LBB3:
 660:systemview/SEGGER_SYSVIEW.c ****   ENCODE_U32(pPayload, Delta);
 367              		.loc 1 660 3 discriminator 4 view .LVU121
 368              		.loc 1 660 3 discriminator 4 view .LVU122
 369              		.loc 1 660 3 discriminator 4 view .LVU123
 370              		.loc 1 660 3 discriminator 4 view .LVU124
 371              		.loc 1 660 3 discriminator 4 view .LVU125
 372 0030 04E0     		b	.L26
 373              	.LVL44:
 374              	.L27:
 375              		.loc 1 660 3 discriminator 3 view .LVU126
 376              		.loc 1 660 3 is_stmt 0 discriminator 3 view .LVU127
 377 0032 63F07F01 		orn	r1, r3, #127
 378 0036 02F8011B 		strb	r1, [r2], #1
 379              	.LVL45:
 380              		.loc 1 660 3 is_stmt 1 discriminator 3 view .LVU128
 381 003a DB09     		lsrs	r3, r3, #7
 382              	.LVL46:
 383              	.L26:
 384              		.loc 1 660 3 discriminator 1 view .LVU129
 385 003c 7F2B     		cmp	r3, #127
 386 003e F8D8     		bhi	.L27
 387              		.loc 1 660 3 discriminator 4 view .LVU130
 388              		.loc 1 660 3 discriminator 4 view .LVU131
 389              	.LVL47:
 390              		.loc 1 660 3 is_stmt 0 discriminator 4 view .LVU132
 391 0040 02F8013B 		strb	r3, [r2], #1
 392              	.LVL48:
 393              		.loc 1 660 3 is_stmt 1 discriminator 4 view .LVU133
 394              		.loc 1 660 3 is_stmt 0 discriminator 4 view .LVU134
 395              	.LBE3:
 396              		.loc 1 660 3 is_stmt 1 discriminator 4 view .LVU135
 397              		.loc 1 660 30 discriminator 4 view .LVU136
 661:systemview/SEGGER_SYSVIEW.c ****   //
 662:systemview/SEGGER_SYSVIEW.c ****   // Try to store packet in RTT buffer and update time stamp when this was successful
 663:systemview/SEGGER_SYSVIEW.c ****   //
 664:systemview/SEGGER_SYSVIEW.c ****   Status = (int)SEGGER_RTT_WriteSkipNoLock(CHANNEL_ID_UP, aPacket, (unsigned int)(pPayload - aPacke
 398              		.loc 1 664 3 discriminator 4 view .LVU137
 399              		.loc 1 664 92 is_stmt 0 discriminator 4 view .LVU138
 400 0044 01A9     		add	r1, sp, #4
 401              		.loc 1 664 17 discriminator 4 view .LVU139
 402 0046 521A     		subs	r2, r2, r1
 403              	.LVL49:
 404              		.loc 1 664 17 discriminator 4 view .LVU140
 405 0048 084B     		ldr	r3, .L31
 406              	.LVL50:
 407              		.loc 1 664 17 discriminator 4 view .LVU141
ARM GAS  C:\Users\20398\AppData\Local\Temp\cchI1MdI.s 			page 20


 408 004a 5878     		ldrb	r0, [r3, #1]	@ zero_extendqisi2
 409 004c FFF7FEFF 		bl	SEGGER_RTT_ASM_WriteSkipNoLock
 410              	.LVL51:
 665:systemview/SEGGER_SYSVIEW.c ****   SEGGER_SYSVIEW_ON_EVENT_RECORDED(pPayload - aPacket);
 411              		.loc 1 665 55 is_stmt 1 discriminator 4 view .LVU142
 666:systemview/SEGGER_SYSVIEW.c ****   if (Status) {
 412              		.loc 1 666 3 discriminator 4 view .LVU143
 413              		.loc 1 666 6 is_stmt 0 discriminator 4 view .LVU144
 414 0050 30B1     		cbz	r0, .L28
 667:systemview/SEGGER_SYSVIEW.c ****     _SYSVIEW_Globals.LastTxTimeStamp = TimeStamp;
 415              		.loc 1 667 5 is_stmt 1 view .LVU145
 416              		.loc 1 667 38 is_stmt 0 view .LVU146
 417 0052 064B     		ldr	r3, .L31
 418 0054 DC60     		str	r4, [r3, #12]
 668:systemview/SEGGER_SYSVIEW.c ****     _SYSVIEW_Globals.EnableState--; // EnableState has been 2, will be 1. Always.
 419              		.loc 1 668 5 is_stmt 1 view .LVU147
 420              		.loc 1 668 21 is_stmt 0 view .LVU148
 421 0056 1A78     		ldrb	r2, [r3]	@ zero_extendqisi2
 422              		.loc 1 668 33 view .LVU149
 423 0058 013A     		subs	r2, r2, #1
 424 005a 1A70     		strb	r2, [r3]
 425              	.L23:
 669:systemview/SEGGER_SYSVIEW.c ****   } else {
 670:systemview/SEGGER_SYSVIEW.c ****     _SYSVIEW_Globals.DropCount++;
 671:systemview/SEGGER_SYSVIEW.c ****   }
 672:systemview/SEGGER_SYSVIEW.c ****   //
 673:systemview/SEGGER_SYSVIEW.c ****   return Status;
 674:systemview/SEGGER_SYSVIEW.c **** }
 426              		.loc 1 674 1 view .LVU150
 427 005c 04B0     		add	sp, sp, #16
 428              	.LCFI7:
 429              		.cfi_remember_state
 430              		.cfi_def_cfa_offset 8
 431              		@ sp needed
 432 005e 10BD     		pop	{r4, pc}
 433              	.LVL52:
 434              	.L28:
 435              	.LCFI8:
 436              		.cfi_restore_state
 670:systemview/SEGGER_SYSVIEW.c ****   }
 437              		.loc 1 670 5 is_stmt 1 view .LVU151
 670:systemview/SEGGER_SYSVIEW.c ****   }
 438              		.loc 1 670 21 is_stmt 0 view .LVU152
 439 0060 024A     		ldr	r2, .L31
 440 0062 5369     		ldr	r3, [r2, #20]
 670:systemview/SEGGER_SYSVIEW.c ****   }
 441              		.loc 1 670 31 view .LVU153
 442 0064 0133     		adds	r3, r3, #1
 443 0066 5361     		str	r3, [r2, #20]
 673:systemview/SEGGER_SYSVIEW.c **** }
 444              		.loc 1 673 3 is_stmt 1 view .LVU154
 673:systemview/SEGGER_SYSVIEW.c **** }
 445              		.loc 1 673 10 is_stmt 0 view .LVU155
 446 0068 F8E7     		b	.L23
 447              	.L32:
 448 006a 00BF     		.align	2
 449              	.L31:
ARM GAS  C:\Users\20398\AppData\Local\Temp\cchI1MdI.s 			page 21


 450 006c 00000000 		.word	.LANCHOR0
 451 0070 001000E0 		.word	-536866816
 452              		.cfi_endproc
 453              	.LFE5:
 455              		.section	.rodata.SEGGER_SYSVIEW_Init.str1.4,"aMS",%progbits,1
 456              		.align	2
 457              	.LC0:
 458 0000 53797356 		.ascii	"SysView\000"
 458      69657700 
 459              		.section	.text.SEGGER_SYSVIEW_Init,"ax",%progbits
 460              		.align	1
 461              		.global	SEGGER_SYSVIEW_Init
 462              		.syntax unified
 463              		.thumb
 464              		.thumb_func
 466              	SEGGER_SYSVIEW_Init:
 467              	.LVL53:
 468              	.LFB12:
 675:systemview/SEGGER_SYSVIEW.c **** #endif  // (SEGGER_SYSVIEW_POST_MORTEM_MODE != 1)
 676:systemview/SEGGER_SYSVIEW.c **** 
 677:systemview/SEGGER_SYSVIEW.c **** /*********************************************************************
 678:systemview/SEGGER_SYSVIEW.c **** *
 679:systemview/SEGGER_SYSVIEW.c **** *       _SendSyncInfo()
 680:systemview/SEGGER_SYSVIEW.c **** *
 681:systemview/SEGGER_SYSVIEW.c **** *  Function description
 682:systemview/SEGGER_SYSVIEW.c **** *    Send SystemView sync packet and system information in
 683:systemview/SEGGER_SYSVIEW.c **** *    post mortem mode.
 684:systemview/SEGGER_SYSVIEW.c **** *
 685:systemview/SEGGER_SYSVIEW.c **** *  Additional information
 686:systemview/SEGGER_SYSVIEW.c **** *    Sync is 10 * 0x00 without timestamp
 687:systemview/SEGGER_SYSVIEW.c **** */
 688:systemview/SEGGER_SYSVIEW.c **** #if (SEGGER_SYSVIEW_POST_MORTEM_MODE == 1)
 689:systemview/SEGGER_SYSVIEW.c **** static void _SendSyncInfo(void) {
 690:systemview/SEGGER_SYSVIEW.c ****   //
 691:systemview/SEGGER_SYSVIEW.c ****   // Add sync packet ( 10 * 0x00)
 692:systemview/SEGGER_SYSVIEW.c ****   // Send system description
 693:systemview/SEGGER_SYSVIEW.c ****   // Send system time
 694:systemview/SEGGER_SYSVIEW.c ****   // Send task list
 695:systemview/SEGGER_SYSVIEW.c ****   // Send module description
 696:systemview/SEGGER_SYSVIEW.c ****   // Send module information
 697:systemview/SEGGER_SYSVIEW.c ****   //
 698:systemview/SEGGER_SYSVIEW.c ****   SEGGER_RTT_WriteWithOverwriteNoLock(CHANNEL_ID_UP, _abSync, 10);
 699:systemview/SEGGER_SYSVIEW.c ****   SEGGER_SYSVIEW_ON_EVENT_RECORDED(10);
 700:systemview/SEGGER_SYSVIEW.c ****   SEGGER_SYSVIEW_RecordVoid(SYSVIEW_EVTID_TRACE_START);
 701:systemview/SEGGER_SYSVIEW.c ****   {
 702:systemview/SEGGER_SYSVIEW.c ****     U8* pPayload;
 703:systemview/SEGGER_SYSVIEW.c ****     U8* pPayloadStart;
 704:systemview/SEGGER_SYSVIEW.c ****     RECORD_START(SEGGER_SYSVIEW_INFO_SIZE + 4 * SEGGER_SYSVIEW_QUANTA_U32);
 705:systemview/SEGGER_SYSVIEW.c ****     //
 706:systemview/SEGGER_SYSVIEW.c ****     pPayload = pPayloadStart;
 707:systemview/SEGGER_SYSVIEW.c ****     ENCODE_U32(pPayload, _SYSVIEW_Globals.SysFreq);
 708:systemview/SEGGER_SYSVIEW.c ****     ENCODE_U32(pPayload, _SYSVIEW_Globals.CPUFreq);
 709:systemview/SEGGER_SYSVIEW.c ****     ENCODE_U32(pPayload, _SYSVIEW_Globals.RAMBaseAddress);
 710:systemview/SEGGER_SYSVIEW.c ****     ENCODE_U32(pPayload, SEGGER_SYSVIEW_ID_SHIFT);
 711:systemview/SEGGER_SYSVIEW.c ****     _SendPacket(pPayloadStart, pPayload, SYSVIEW_EVTID_INIT);
 712:systemview/SEGGER_SYSVIEW.c ****     RECORD_END();
 713:systemview/SEGGER_SYSVIEW.c ****   }
ARM GAS  C:\Users\20398\AppData\Local\Temp\cchI1MdI.s 			page 22


 714:systemview/SEGGER_SYSVIEW.c ****   if (_SYSVIEW_Globals.pfSendSysDesc) {
 715:systemview/SEGGER_SYSVIEW.c ****     _SYSVIEW_Globals.pfSendSysDesc();
 716:systemview/SEGGER_SYSVIEW.c ****   }
 717:systemview/SEGGER_SYSVIEW.c ****   SEGGER_SYSVIEW_RecordSystime();
 718:systemview/SEGGER_SYSVIEW.c ****   SEGGER_SYSVIEW_SendTaskList();
 719:systemview/SEGGER_SYSVIEW.c ****   if (_NumModules > 0) {
 720:systemview/SEGGER_SYSVIEW.c ****     int n;
 721:systemview/SEGGER_SYSVIEW.c ****     SEGGER_SYSVIEW_SendNumModules();
 722:systemview/SEGGER_SYSVIEW.c ****     for (n = 0; n < _NumModules; n++) {
 723:systemview/SEGGER_SYSVIEW.c ****       SEGGER_SYSVIEW_SendModule(n);
 724:systemview/SEGGER_SYSVIEW.c ****     }
 725:systemview/SEGGER_SYSVIEW.c ****   }
 726:systemview/SEGGER_SYSVIEW.c **** }
 727:systemview/SEGGER_SYSVIEW.c **** #endif  // (SEGGER_SYSVIEW_POST_MORTEM_MODE == 1)
 728:systemview/SEGGER_SYSVIEW.c **** 
 729:systemview/SEGGER_SYSVIEW.c **** /*********************************************************************
 730:systemview/SEGGER_SYSVIEW.c **** *
 731:systemview/SEGGER_SYSVIEW.c **** *       _SendPacket()
 732:systemview/SEGGER_SYSVIEW.c **** *
 733:systemview/SEGGER_SYSVIEW.c **** *  Function description
 734:systemview/SEGGER_SYSVIEW.c **** *    Send a SystemView packet over RTT. RTT channel and mode are
 735:systemview/SEGGER_SYSVIEW.c **** *    configured by macros when the SystemView component is initialized.
 736:systemview/SEGGER_SYSVIEW.c **** *    This function takes care of maintaining the packet drop count
 737:systemview/SEGGER_SYSVIEW.c **** *    and sending overflow packets when necessary.
 738:systemview/SEGGER_SYSVIEW.c **** *    The packet must be passed without Id and Length because this
 739:systemview/SEGGER_SYSVIEW.c **** *    function prepends it to the packet before transmission.
 740:systemview/SEGGER_SYSVIEW.c **** *
 741:systemview/SEGGER_SYSVIEW.c **** *  Parameters
 742:systemview/SEGGER_SYSVIEW.c **** *    pStartPacket - Pointer to start of packet payload.
 743:systemview/SEGGER_SYSVIEW.c **** *                   There must be at least 4 bytes free to prepend Id and Length.
 744:systemview/SEGGER_SYSVIEW.c **** *    pEndPacket   - Pointer to end of packet payload.
 745:systemview/SEGGER_SYSVIEW.c **** *    EventId      - Id of the event to send.
 746:systemview/SEGGER_SYSVIEW.c **** *
 747:systemview/SEGGER_SYSVIEW.c **** */
 748:systemview/SEGGER_SYSVIEW.c **** static void _SendPacket(U8* pStartPacket, U8* pEndPacket, unsigned int EventId) {
 749:systemview/SEGGER_SYSVIEW.c ****   unsigned int  NumBytes;
 750:systemview/SEGGER_SYSVIEW.c ****   U32           TimeStamp;
 751:systemview/SEGGER_SYSVIEW.c ****   U32           Delta;
 752:systemview/SEGGER_SYSVIEW.c **** #if (SEGGER_SYSVIEW_POST_MORTEM_MODE != 1)
 753:systemview/SEGGER_SYSVIEW.c ****   unsigned int  Status;
 754:systemview/SEGGER_SYSVIEW.c **** #endif
 755:systemview/SEGGER_SYSVIEW.c **** 
 756:systemview/SEGGER_SYSVIEW.c **** #if (SEGGER_SYSVIEW_USE_STATIC_BUFFER == 0)
 757:systemview/SEGGER_SYSVIEW.c ****   SEGGER_SYSVIEW_LOCK();
 758:systemview/SEGGER_SYSVIEW.c **** #endif
 759:systemview/SEGGER_SYSVIEW.c **** 
 760:systemview/SEGGER_SYSVIEW.c **** #if (SEGGER_SYSVIEW_POST_MORTEM_MODE == 1)
 761:systemview/SEGGER_SYSVIEW.c ****   if (_SYSVIEW_Globals.EnableState == 0) {
 762:systemview/SEGGER_SYSVIEW.c ****     goto SendDone;
 763:systemview/SEGGER_SYSVIEW.c ****   }
 764:systemview/SEGGER_SYSVIEW.c **** #else
 765:systemview/SEGGER_SYSVIEW.c ****   if (_SYSVIEW_Globals.EnableState == 1) {  // Enabled, no dropped packets remaining
 766:systemview/SEGGER_SYSVIEW.c ****     goto Send;
 767:systemview/SEGGER_SYSVIEW.c ****   }
 768:systemview/SEGGER_SYSVIEW.c ****   if (_SYSVIEW_Globals.EnableState == 0) {
 769:systemview/SEGGER_SYSVIEW.c ****     goto SendDone;
 770:systemview/SEGGER_SYSVIEW.c ****   }
ARM GAS  C:\Users\20398\AppData\Local\Temp\cchI1MdI.s 			page 23


 771:systemview/SEGGER_SYSVIEW.c ****   //
 772:systemview/SEGGER_SYSVIEW.c ****   // Handle buffer full situations:
 773:systemview/SEGGER_SYSVIEW.c ****   // Have packets been dropped before because buffer was full?
 774:systemview/SEGGER_SYSVIEW.c ****   // In this case try to send and overflow packet.
 775:systemview/SEGGER_SYSVIEW.c ****   //
 776:systemview/SEGGER_SYSVIEW.c ****   if (_SYSVIEW_Globals.EnableState == 2) {
 777:systemview/SEGGER_SYSVIEW.c ****     _TrySendOverflowPacket();
 778:systemview/SEGGER_SYSVIEW.c ****     if (_SYSVIEW_Globals.EnableState != 1) {
 779:systemview/SEGGER_SYSVIEW.c ****       goto SendDone;
 780:systemview/SEGGER_SYSVIEW.c ****     }
 781:systemview/SEGGER_SYSVIEW.c ****   }
 782:systemview/SEGGER_SYSVIEW.c **** Send:
 783:systemview/SEGGER_SYSVIEW.c **** #endif
 784:systemview/SEGGER_SYSVIEW.c ****   //
 785:systemview/SEGGER_SYSVIEW.c ****   // Check if event is disabled from being recorded.
 786:systemview/SEGGER_SYSVIEW.c ****   //
 787:systemview/SEGGER_SYSVIEW.c ****   if (EventId < 32) {
 788:systemview/SEGGER_SYSVIEW.c ****     if (_SYSVIEW_Globals.DisabledEvents & ((U32)1u << EventId)) {
 789:systemview/SEGGER_SYSVIEW.c ****       goto SendDone;
 790:systemview/SEGGER_SYSVIEW.c ****     }
 791:systemview/SEGGER_SYSVIEW.c ****   }
 792:systemview/SEGGER_SYSVIEW.c ****   //
 793:systemview/SEGGER_SYSVIEW.c ****   // Prepare actual packet.
 794:systemview/SEGGER_SYSVIEW.c ****   // If it is a known packet, prepend eventId only,
 795:systemview/SEGGER_SYSVIEW.c ****   // otherwise prepend packet length and eventId.
 796:systemview/SEGGER_SYSVIEW.c ****   //
 797:systemview/SEGGER_SYSVIEW.c ****   if (EventId < 24) {
 798:systemview/SEGGER_SYSVIEW.c ****     *--pStartPacket = (U8)EventId;
 799:systemview/SEGGER_SYSVIEW.c ****   } else {
 800:systemview/SEGGER_SYSVIEW.c ****     //
 801:systemview/SEGGER_SYSVIEW.c ****     // Get data length and prepend it.
 802:systemview/SEGGER_SYSVIEW.c ****     //
 803:systemview/SEGGER_SYSVIEW.c ****     NumBytes = (unsigned int)(pEndPacket - pStartPacket);
 804:systemview/SEGGER_SYSVIEW.c **** #if SEGGER_SYSVIEW_SUPPORT_LONG_DATA
 805:systemview/SEGGER_SYSVIEW.c ****     if (NumBytes < 127) {
 806:systemview/SEGGER_SYSVIEW.c ****       *--pStartPacket = EventId;
 807:systemview/SEGGER_SYSVIEW.c ****     } else {
 808:systemview/SEGGER_SYSVIEW.c ****       //
 809:systemview/SEGGER_SYSVIEW.c ****       // Backwards U32 encode EventId.
 810:systemview/SEGGER_SYSVIEW.c ****       //
 811:systemview/SEGGER_SYSVIEW.c ****       if (NumBytes < (1ul << 14)) { // Encodes in 2 bytes
 812:systemview/SEGGER_SYSVIEW.c ****         *--pStartPacket = (U8)(NumBytes >>  7);
 813:systemview/SEGGER_SYSVIEW.c ****         *--pStartPacket = (U8)(NumBytes | 0x80);
 814:systemview/SEGGER_SYSVIEW.c ****       } else if (NumBytes < (1ul << 21)) {    // Encodes in 3 bytes
 815:systemview/SEGGER_SYSVIEW.c ****         *--pStartPacket = (U8)(NumBytes >> 14);
 816:systemview/SEGGER_SYSVIEW.c ****         *--pStartPacket = (U8)((NumBytes >>  7) | 0x80);
 817:systemview/SEGGER_SYSVIEW.c ****         *--pStartPacket = (U8)(NumBytes | 0x80);
 818:systemview/SEGGER_SYSVIEW.c ****       } else if (NumBytes < (1ul << 28)) {    // Encodes in 4 bytes
 819:systemview/SEGGER_SYSVIEW.c ****         *--pStartPacket = (U8)(NumBytes >> 21);
 820:systemview/SEGGER_SYSVIEW.c ****         *--pStartPacket = (U8)((NumBytes >> 14) | 0x80);
 821:systemview/SEGGER_SYSVIEW.c ****         *--pStartPacket = (U8)((NumBytes >>  7) | 0x80);
 822:systemview/SEGGER_SYSVIEW.c ****         *--pStartPacket = (U8)(NumBytes | 0x80);
 823:systemview/SEGGER_SYSVIEW.c ****       } else {                              // Encodes in 5 bytes
 824:systemview/SEGGER_SYSVIEW.c ****         *--pStartPacket = (U8)(NumBytes >> 28);
 825:systemview/SEGGER_SYSVIEW.c ****         *--pStartPacket = (U8)((NumBytes >> 21) | 0x80);
 826:systemview/SEGGER_SYSVIEW.c ****         *--pStartPacket = (U8)((NumBytes >> 14) | 0x80);
 827:systemview/SEGGER_SYSVIEW.c ****         *--pStartPacket = (U8)((NumBytes >>  7) | 0x80);
ARM GAS  C:\Users\20398\AppData\Local\Temp\cchI1MdI.s 			page 24


 828:systemview/SEGGER_SYSVIEW.c ****         *--pStartPacket = (U8)(NumBytes | 0x80);
 829:systemview/SEGGER_SYSVIEW.c ****       }
 830:systemview/SEGGER_SYSVIEW.c ****     }
 831:systemview/SEGGER_SYSVIEW.c **** #else
 832:systemview/SEGGER_SYSVIEW.c ****     if (NumBytes > 127) {
 833:systemview/SEGGER_SYSVIEW.c ****       *--pStartPacket = (U8)(NumBytes >> 7);
 834:systemview/SEGGER_SYSVIEW.c ****       *--pStartPacket = (U8)(NumBytes | 0x80);
 835:systemview/SEGGER_SYSVIEW.c ****     } else {
 836:systemview/SEGGER_SYSVIEW.c ****       *--pStartPacket = (U8)NumBytes;
 837:systemview/SEGGER_SYSVIEW.c ****     }
 838:systemview/SEGGER_SYSVIEW.c **** #endif
 839:systemview/SEGGER_SYSVIEW.c ****     //
 840:systemview/SEGGER_SYSVIEW.c ****     // Prepend EventId.
 841:systemview/SEGGER_SYSVIEW.c ****     //
 842:systemview/SEGGER_SYSVIEW.c **** #if SEGGER_SYSVIEW_SUPPORT_LONG_ID
 843:systemview/SEGGER_SYSVIEW.c ****     if (EventId < 127) {
 844:systemview/SEGGER_SYSVIEW.c ****       *--pStartPacket = (U8)EventId;
 845:systemview/SEGGER_SYSVIEW.c ****     } else {
 846:systemview/SEGGER_SYSVIEW.c ****       //
 847:systemview/SEGGER_SYSVIEW.c ****       // Backwards U32 encode EventId.
 848:systemview/SEGGER_SYSVIEW.c ****       //
 849:systemview/SEGGER_SYSVIEW.c ****       if (EventId < (1u << 14)) { // Encodes in 2 bytes
 850:systemview/SEGGER_SYSVIEW.c ****         *--pStartPacket = (U8)(EventId >>  7);
 851:systemview/SEGGER_SYSVIEW.c ****         *--pStartPacket = (U8)(EventId | 0x80);
 852:systemview/SEGGER_SYSVIEW.c ****       } else if (EventId < (1ul << 21)) {    // Encodes in 3 bytes
 853:systemview/SEGGER_SYSVIEW.c ****         *--pStartPacket = (U8)(EventId >> 14);
 854:systemview/SEGGER_SYSVIEW.c ****         *--pStartPacket = (U8)((EventId >>  7) | 0x80);
 855:systemview/SEGGER_SYSVIEW.c ****         *--pStartPacket = (U8)(EventId | 0x80);
 856:systemview/SEGGER_SYSVIEW.c ****       } else if (EventId < (1ul << 28)) {    // Encodes in 4 bytes
 857:systemview/SEGGER_SYSVIEW.c ****         *--pStartPacket = (U8)(EventId >> 21);
 858:systemview/SEGGER_SYSVIEW.c ****         *--pStartPacket = (U8)((EventId >> 14) | 0x80);
 859:systemview/SEGGER_SYSVIEW.c ****         *--pStartPacket = (U8)((EventId >>  7) | 0x80);
 860:systemview/SEGGER_SYSVIEW.c ****         *--pStartPacket = (U8)(EventId | 0x80);
 861:systemview/SEGGER_SYSVIEW.c ****       } else {                              // Encodes in 5 bytes
 862:systemview/SEGGER_SYSVIEW.c ****         *--pStartPacket = (U8)(EventId >> 28);
 863:systemview/SEGGER_SYSVIEW.c ****         *--pStartPacket = (U8)((EventId >> 21) | 0x80);
 864:systemview/SEGGER_SYSVIEW.c ****         *--pStartPacket = (U8)((EventId >> 14) | 0x80);
 865:systemview/SEGGER_SYSVIEW.c ****         *--pStartPacket = (U8)((EventId >>  7) | 0x80);
 866:systemview/SEGGER_SYSVIEW.c ****         *--pStartPacket = (U8)(EventId | 0x80);
 867:systemview/SEGGER_SYSVIEW.c ****       }
 868:systemview/SEGGER_SYSVIEW.c ****     }
 869:systemview/SEGGER_SYSVIEW.c **** #else
 870:systemview/SEGGER_SYSVIEW.c ****     if (EventId > 127) {
 871:systemview/SEGGER_SYSVIEW.c ****       *--pStartPacket = (U8)(EventId >> 7);
 872:systemview/SEGGER_SYSVIEW.c ****       *--pStartPacket = (U8)(EventId | 0x80);
 873:systemview/SEGGER_SYSVIEW.c ****     } else {
 874:systemview/SEGGER_SYSVIEW.c ****       *--pStartPacket = (U8)EventId;
 875:systemview/SEGGER_SYSVIEW.c ****     }
 876:systemview/SEGGER_SYSVIEW.c **** #endif
 877:systemview/SEGGER_SYSVIEW.c ****   }
 878:systemview/SEGGER_SYSVIEW.c ****   //
 879:systemview/SEGGER_SYSVIEW.c ****   // Compute time stamp delta and append it to packet.
 880:systemview/SEGGER_SYSVIEW.c ****   //
 881:systemview/SEGGER_SYSVIEW.c ****   TimeStamp  = SEGGER_SYSVIEW_GET_TIMESTAMP();
 882:systemview/SEGGER_SYSVIEW.c ****   Delta = TimeStamp - _SYSVIEW_Globals.LastTxTimeStamp;
 883:systemview/SEGGER_SYSVIEW.c ****   MAKE_DELTA_32BIT(Delta);
 884:systemview/SEGGER_SYSVIEW.c ****   ENCODE_U32(pEndPacket, Delta);
ARM GAS  C:\Users\20398\AppData\Local\Temp\cchI1MdI.s 			page 25


 885:systemview/SEGGER_SYSVIEW.c **** #if (SEGGER_SYSVIEW_POST_MORTEM_MODE == 1)
 886:systemview/SEGGER_SYSVIEW.c ****   //
 887:systemview/SEGGER_SYSVIEW.c ****   // Store packet in RTT buffer by overwriting old data and update time stamp
 888:systemview/SEGGER_SYSVIEW.c ****   //
 889:systemview/SEGGER_SYSVIEW.c ****   SEGGER_RTT_WriteWithOverwriteNoLock(CHANNEL_ID_UP, pStartPacket, pEndPacket - pStartPacket);
 890:systemview/SEGGER_SYSVIEW.c ****   SEGGER_SYSVIEW_ON_EVENT_RECORDED(pEndPacket - pStartPacket);
 891:systemview/SEGGER_SYSVIEW.c ****   _SYSVIEW_Globals.LastTxTimeStamp = TimeStamp;
 892:systemview/SEGGER_SYSVIEW.c **** #else
 893:systemview/SEGGER_SYSVIEW.c ****   //
 894:systemview/SEGGER_SYSVIEW.c ****   // Try to store packet in RTT buffer and update time stamp when this was successful
 895:systemview/SEGGER_SYSVIEW.c ****   //
 896:systemview/SEGGER_SYSVIEW.c ****   Status = SEGGER_RTT_WriteSkipNoLock(CHANNEL_ID_UP, pStartPacket, (unsigned int)(pEndPacket - pSta
 897:systemview/SEGGER_SYSVIEW.c ****   SEGGER_SYSVIEW_ON_EVENT_RECORDED(pEndPacket - pStartPacket);
 898:systemview/SEGGER_SYSVIEW.c ****   if (Status) {
 899:systemview/SEGGER_SYSVIEW.c ****     _SYSVIEW_Globals.LastTxTimeStamp = TimeStamp;
 900:systemview/SEGGER_SYSVIEW.c ****   } else {
 901:systemview/SEGGER_SYSVIEW.c ****     _SYSVIEW_Globals.EnableState++; // EnableState has been 1, will be 2. Always.
 902:systemview/SEGGER_SYSVIEW.c ****   }
 903:systemview/SEGGER_SYSVIEW.c **** #endif
 904:systemview/SEGGER_SYSVIEW.c **** 
 905:systemview/SEGGER_SYSVIEW.c **** #if (SEGGER_SYSVIEW_POST_MORTEM_MODE == 1)
 906:systemview/SEGGER_SYSVIEW.c ****   //
 907:systemview/SEGGER_SYSVIEW.c ****   // Add sync and system information periodically if we are in post mortem mode
 908:systemview/SEGGER_SYSVIEW.c ****   //
 909:systemview/SEGGER_SYSVIEW.c ****   if (_SYSVIEW_Globals.RecursionCnt == 0) {   // Avoid uncontrolled nesting. This way, this routine
 910:systemview/SEGGER_SYSVIEW.c ****     _SYSVIEW_Globals.RecursionCnt = 1;
 911:systemview/SEGGER_SYSVIEW.c ****     if (_SYSVIEW_Globals.PacketCount++ & (1 << SEGGER_SYSVIEW_SYNC_PERIOD_SHIFT)) {
 912:systemview/SEGGER_SYSVIEW.c ****       _SendSyncInfo();
 913:systemview/SEGGER_SYSVIEW.c ****       _SYSVIEW_Globals.PacketCount = 0;
 914:systemview/SEGGER_SYSVIEW.c ****     }
 915:systemview/SEGGER_SYSVIEW.c ****     _SYSVIEW_Globals.RecursionCnt = 0;
 916:systemview/SEGGER_SYSVIEW.c ****   }
 917:systemview/SEGGER_SYSVIEW.c **** SendDone:
 918:systemview/SEGGER_SYSVIEW.c ****   ; // Avoid "label at end of compound statement" error when using static buffer
 919:systemview/SEGGER_SYSVIEW.c **** #else
 920:systemview/SEGGER_SYSVIEW.c **** SendDone:
 921:systemview/SEGGER_SYSVIEW.c ****   //
 922:systemview/SEGGER_SYSVIEW.c ****   // Check if host is sending data which needs to be processed.
 923:systemview/SEGGER_SYSVIEW.c ****   // Note that since this code is called for every packet, it is very time critical, so we do
 924:systemview/SEGGER_SYSVIEW.c ****   // only what is really needed here, which is checking if there is any data
 925:systemview/SEGGER_SYSVIEW.c ****   //
 926:systemview/SEGGER_SYSVIEW.c ****   if (SEGGER_RTT_HASDATA(CHANNEL_ID_DOWN)) {
 927:systemview/SEGGER_SYSVIEW.c ****     if (_SYSVIEW_Globals.RecursionCnt == 0) {   // Avoid uncontrolled nesting. This way, this routi
 928:systemview/SEGGER_SYSVIEW.c ****       _SYSVIEW_Globals.RecursionCnt = 1;
 929:systemview/SEGGER_SYSVIEW.c ****       _HandleIncomingPacket();
 930:systemview/SEGGER_SYSVIEW.c ****       _SYSVIEW_Globals.RecursionCnt = 0;
 931:systemview/SEGGER_SYSVIEW.c ****     }
 932:systemview/SEGGER_SYSVIEW.c ****   }
 933:systemview/SEGGER_SYSVIEW.c **** #endif
 934:systemview/SEGGER_SYSVIEW.c ****   //
 935:systemview/SEGGER_SYSVIEW.c **** #if (SEGGER_SYSVIEW_USE_STATIC_BUFFER == 0)
 936:systemview/SEGGER_SYSVIEW.c ****   SEGGER_SYSVIEW_UNLOCK();  // We are done. Unlock and return
 937:systemview/SEGGER_SYSVIEW.c **** #endif
 938:systemview/SEGGER_SYSVIEW.c **** }
 939:systemview/SEGGER_SYSVIEW.c **** 
 940:systemview/SEGGER_SYSVIEW.c **** #ifndef SEGGER_SYSVIEW_EXCLUDE_PRINTF // Define in project to avoid warnings about variable paramet
 941:systemview/SEGGER_SYSVIEW.c **** /*********************************************************************
ARM GAS  C:\Users\20398\AppData\Local\Temp\cchI1MdI.s 			page 26


 942:systemview/SEGGER_SYSVIEW.c **** *
 943:systemview/SEGGER_SYSVIEW.c **** *       _VPrintHost()
 944:systemview/SEGGER_SYSVIEW.c **** *
 945:systemview/SEGGER_SYSVIEW.c **** *  Function description
 946:systemview/SEGGER_SYSVIEW.c **** *    Send a format string and its parameters to the host.
 947:systemview/SEGGER_SYSVIEW.c **** *
 948:systemview/SEGGER_SYSVIEW.c **** *  Parameters
 949:systemview/SEGGER_SYSVIEW.c **** *    s            Pointer to format string.
 950:systemview/SEGGER_SYSVIEW.c **** *    Options      Options to be sent to the host.
 951:systemview/SEGGER_SYSVIEW.c **** *    pParamList   Pointer to the list of arguments for the format string.
 952:systemview/SEGGER_SYSVIEW.c **** */
 953:systemview/SEGGER_SYSVIEW.c **** static int _VPrintHost(const char* s, U32 Options, va_list* pParamList) {
 954:systemview/SEGGER_SYSVIEW.c ****   U32         aParas[SEGGER_SYSVIEW_MAX_ARGUMENTS];
 955:systemview/SEGGER_SYSVIEW.c ****   U32*        pParas;
 956:systemview/SEGGER_SYSVIEW.c ****   U32         NumArguments;
 957:systemview/SEGGER_SYSVIEW.c ****   const char* p;
 958:systemview/SEGGER_SYSVIEW.c ****   char        c;
 959:systemview/SEGGER_SYSVIEW.c ****   U8*         pPayload;
 960:systemview/SEGGER_SYSVIEW.c ****   U8*         pPayloadStart;
 961:systemview/SEGGER_SYSVIEW.c **** #if SEGGER_SYSVIEW_PRINTF_IMPLICIT_FORMAT
 962:systemview/SEGGER_SYSVIEW.c ****   U8 HasNonScalar;
 963:systemview/SEGGER_SYSVIEW.c **** 
 964:systemview/SEGGER_SYSVIEW.c ****   HasNonScalar = 0;
 965:systemview/SEGGER_SYSVIEW.c **** #endif
 966:systemview/SEGGER_SYSVIEW.c ****   //
 967:systemview/SEGGER_SYSVIEW.c ****   // Count number of arguments by counting '%' characters in string.
 968:systemview/SEGGER_SYSVIEW.c ****   // If enabled, check for non-scalar modifier flags to format string on the target.
 969:systemview/SEGGER_SYSVIEW.c ****   //
 970:systemview/SEGGER_SYSVIEW.c ****   p = s;
 971:systemview/SEGGER_SYSVIEW.c ****   NumArguments = 0;
 972:systemview/SEGGER_SYSVIEW.c ****   for (;;) {
 973:systemview/SEGGER_SYSVIEW.c ****     c = *p++;
 974:systemview/SEGGER_SYSVIEW.c ****     if (c == 0) {
 975:systemview/SEGGER_SYSVIEW.c ****       break;
 976:systemview/SEGGER_SYSVIEW.c ****     }
 977:systemview/SEGGER_SYSVIEW.c ****     if (c == '%') {
 978:systemview/SEGGER_SYSVIEW.c ****       c = *p;
 979:systemview/SEGGER_SYSVIEW.c **** #if SEGGER_SYSVIEW_PRINTF_IMPLICIT_FORMAT == 0
 980:systemview/SEGGER_SYSVIEW.c ****       aParas[NumArguments++] = (U32)(va_arg(*pParamList, int));
 981:systemview/SEGGER_SYSVIEW.c ****       if (NumArguments == SEGGER_SYSVIEW_MAX_ARGUMENTS) {
 982:systemview/SEGGER_SYSVIEW.c ****         break;
 983:systemview/SEGGER_SYSVIEW.c ****       }
 984:systemview/SEGGER_SYSVIEW.c **** #else
 985:systemview/SEGGER_SYSVIEW.c ****       if (c == 's') {
 986:systemview/SEGGER_SYSVIEW.c ****         HasNonScalar = 1;
 987:systemview/SEGGER_SYSVIEW.c ****         break;
 988:systemview/SEGGER_SYSVIEW.c ****       } else {
 989:systemview/SEGGER_SYSVIEW.c ****         aParas[NumArguments++] = (U32)(va_arg(*pParamList, int));
 990:systemview/SEGGER_SYSVIEW.c ****         if (NumArguments == SEGGER_SYSVIEW_MAX_ARGUMENTS) {
 991:systemview/SEGGER_SYSVIEW.c ****           break;
 992:systemview/SEGGER_SYSVIEW.c ****         }
 993:systemview/SEGGER_SYSVIEW.c ****       }
 994:systemview/SEGGER_SYSVIEW.c **** #endif
 995:systemview/SEGGER_SYSVIEW.c ****     }
 996:systemview/SEGGER_SYSVIEW.c ****   }
 997:systemview/SEGGER_SYSVIEW.c **** 
 998:systemview/SEGGER_SYSVIEW.c **** #if SEGGER_SYSVIEW_PRINTF_IMPLICIT_FORMAT
ARM GAS  C:\Users\20398\AppData\Local\Temp\cchI1MdI.s 			page 27


 999:systemview/SEGGER_SYSVIEW.c ****   if (HasNonScalar) {
1000:systemview/SEGGER_SYSVIEW.c ****     return -1;
1001:systemview/SEGGER_SYSVIEW.c ****   }
1002:systemview/SEGGER_SYSVIEW.c **** #endif
1003:systemview/SEGGER_SYSVIEW.c ****   //
1004:systemview/SEGGER_SYSVIEW.c ****   // Send string and parameters to host
1005:systemview/SEGGER_SYSVIEW.c ****   //
1006:systemview/SEGGER_SYSVIEW.c ****   {
1007:systemview/SEGGER_SYSVIEW.c ****     RECORD_START(SEGGER_SYSVIEW_INFO_SIZE + SEGGER_SYSVIEW_MAX_STRING_LEN + 2 * SEGGER_SYSVIEW_QUAN
1008:systemview/SEGGER_SYSVIEW.c ****     pPayload = _EncodeStr(pPayloadStart, s, SEGGER_SYSVIEW_MAX_STRING_LEN);
1009:systemview/SEGGER_SYSVIEW.c ****     ENCODE_U32(pPayload, Options);
1010:systemview/SEGGER_SYSVIEW.c ****     ENCODE_U32(pPayload, NumArguments);
1011:systemview/SEGGER_SYSVIEW.c ****     pParas = aParas;
1012:systemview/SEGGER_SYSVIEW.c ****     while (NumArguments--) {
1013:systemview/SEGGER_SYSVIEW.c ****       ENCODE_U32(pPayload, (*pParas));
1014:systemview/SEGGER_SYSVIEW.c ****       pParas++;
1015:systemview/SEGGER_SYSVIEW.c ****     }
1016:systemview/SEGGER_SYSVIEW.c ****     _SendPacket(pPayloadStart, pPayload, SYSVIEW_EVTID_PRINT_FORMATTED);
1017:systemview/SEGGER_SYSVIEW.c ****     RECORD_END();
1018:systemview/SEGGER_SYSVIEW.c ****   }
1019:systemview/SEGGER_SYSVIEW.c ****   return 0;
1020:systemview/SEGGER_SYSVIEW.c **** }
1021:systemview/SEGGER_SYSVIEW.c **** 
1022:systemview/SEGGER_SYSVIEW.c **** /*********************************************************************
1023:systemview/SEGGER_SYSVIEW.c **** *
1024:systemview/SEGGER_SYSVIEW.c **** *       _StoreChar()
1025:systemview/SEGGER_SYSVIEW.c **** *
1026:systemview/SEGGER_SYSVIEW.c **** *  Function description
1027:systemview/SEGGER_SYSVIEW.c **** *    Stores a character in the printf-buffer and sends the buffer when
1028:systemview/SEGGER_SYSVIEW.c **** *     it is filled.
1029:systemview/SEGGER_SYSVIEW.c **** *
1030:systemview/SEGGER_SYSVIEW.c **** *  Parameters
1031:systemview/SEGGER_SYSVIEW.c **** *    p            Pointer to the buffer description.
1032:systemview/SEGGER_SYSVIEW.c **** *    c            Character to be printed.
1033:systemview/SEGGER_SYSVIEW.c **** */
1034:systemview/SEGGER_SYSVIEW.c **** static void _StoreChar(SEGGER_SYSVIEW_PRINTF_DESC * p, char c) {
1035:systemview/SEGGER_SYSVIEW.c ****   unsigned int  Cnt;
1036:systemview/SEGGER_SYSVIEW.c ****   U8*           pPayload;
1037:systemview/SEGGER_SYSVIEW.c ****   U32           Options;
1038:systemview/SEGGER_SYSVIEW.c **** 
1039:systemview/SEGGER_SYSVIEW.c ****   Cnt = p->Cnt;
1040:systemview/SEGGER_SYSVIEW.c ****   if ((Cnt + 1u) <= SEGGER_SYSVIEW_MAX_STRING_LEN) {
1041:systemview/SEGGER_SYSVIEW.c ****     *(p->pPayload++) = (U8)c;
1042:systemview/SEGGER_SYSVIEW.c ****     p->Cnt = Cnt + 1u;
1043:systemview/SEGGER_SYSVIEW.c ****   }
1044:systemview/SEGGER_SYSVIEW.c ****   //
1045:systemview/SEGGER_SYSVIEW.c ****   // Write part of string, when the buffer is full
1046:systemview/SEGGER_SYSVIEW.c ****   //
1047:systemview/SEGGER_SYSVIEW.c ****   if (p->Cnt == SEGGER_SYSVIEW_MAX_STRING_LEN) {
1048:systemview/SEGGER_SYSVIEW.c ****     *(p->pPayloadStart) = (U8)p->Cnt;
1049:systemview/SEGGER_SYSVIEW.c ****     pPayload = p->pPayload;
1050:systemview/SEGGER_SYSVIEW.c ****     Options = p->Options;
1051:systemview/SEGGER_SYSVIEW.c ****     ENCODE_U32(pPayload, Options);
1052:systemview/SEGGER_SYSVIEW.c ****     ENCODE_U32(pPayload, 0);
1053:systemview/SEGGER_SYSVIEW.c ****     _SendPacket(p->pPayloadStart, pPayload, SYSVIEW_EVTID_PRINT_FORMATTED);
1054:systemview/SEGGER_SYSVIEW.c ****     p->pPayloadStart = _PreparePacket(p->pBuffer);
1055:systemview/SEGGER_SYSVIEW.c ****     p->pPayload = p->pPayloadStart + 1u;
ARM GAS  C:\Users\20398\AppData\Local\Temp\cchI1MdI.s 			page 28


1056:systemview/SEGGER_SYSVIEW.c ****     p->Cnt = 0u;
1057:systemview/SEGGER_SYSVIEW.c ****   }
1058:systemview/SEGGER_SYSVIEW.c **** }
1059:systemview/SEGGER_SYSVIEW.c **** 
1060:systemview/SEGGER_SYSVIEW.c **** /*********************************************************************
1061:systemview/SEGGER_SYSVIEW.c **** *
1062:systemview/SEGGER_SYSVIEW.c **** *       _PrintUnsigned()
1063:systemview/SEGGER_SYSVIEW.c **** *
1064:systemview/SEGGER_SYSVIEW.c **** *  Function description
1065:systemview/SEGGER_SYSVIEW.c **** *    Print an unsigned integer with the given formatting into the
1066:systemview/SEGGER_SYSVIEW.c **** *     formatted string.
1067:systemview/SEGGER_SYSVIEW.c **** *
1068:systemview/SEGGER_SYSVIEW.c **** *  Parameters
1069:systemview/SEGGER_SYSVIEW.c **** *    pBufferDesc  Pointer to the buffer description.
1070:systemview/SEGGER_SYSVIEW.c **** *    v            Value to be printed.
1071:systemview/SEGGER_SYSVIEW.c **** *    Base         Base of the value.
1072:systemview/SEGGER_SYSVIEW.c **** *    NumDigits    Number of digits to be printed.
1073:systemview/SEGGER_SYSVIEW.c **** *    FieldWidth   Width of the printed field.
1074:systemview/SEGGER_SYSVIEW.c **** *    FormatFlags  Flags for formatting the value.
1075:systemview/SEGGER_SYSVIEW.c **** */
1076:systemview/SEGGER_SYSVIEW.c **** static void _PrintUnsigned(SEGGER_SYSVIEW_PRINTF_DESC * pBufferDesc, unsigned int v, unsigned int B
1077:systemview/SEGGER_SYSVIEW.c ****   static const char _aV2C[16] = {'0', '1', '2', '3', '4', '5', '6', '7', '8', '9', 'A', 'B', 'C', '
1078:systemview/SEGGER_SYSVIEW.c ****   unsigned int      Div;
1079:systemview/SEGGER_SYSVIEW.c ****   unsigned int      Digit;
1080:systemview/SEGGER_SYSVIEW.c ****   unsigned int      Number;
1081:systemview/SEGGER_SYSVIEW.c ****   unsigned int      Width;
1082:systemview/SEGGER_SYSVIEW.c ****   char              c;
1083:systemview/SEGGER_SYSVIEW.c **** 
1084:systemview/SEGGER_SYSVIEW.c ****   Number = v;
1085:systemview/SEGGER_SYSVIEW.c ****   Digit = 1u;
1086:systemview/SEGGER_SYSVIEW.c ****   //
1087:systemview/SEGGER_SYSVIEW.c ****   // Get actual field width
1088:systemview/SEGGER_SYSVIEW.c ****   //
1089:systemview/SEGGER_SYSVIEW.c ****   Width = 1u;
1090:systemview/SEGGER_SYSVIEW.c ****   while (Number >= Base) {
1091:systemview/SEGGER_SYSVIEW.c ****     Number = (Number / Base);
1092:systemview/SEGGER_SYSVIEW.c ****     Width++;
1093:systemview/SEGGER_SYSVIEW.c ****   }
1094:systemview/SEGGER_SYSVIEW.c ****   if (NumDigits > Width) {
1095:systemview/SEGGER_SYSVIEW.c ****     Width = NumDigits;
1096:systemview/SEGGER_SYSVIEW.c ****   }
1097:systemview/SEGGER_SYSVIEW.c ****   //
1098:systemview/SEGGER_SYSVIEW.c ****   // Print leading chars if necessary
1099:systemview/SEGGER_SYSVIEW.c ****   //
1100:systemview/SEGGER_SYSVIEW.c ****   if ((FormatFlags & FORMAT_FLAG_LEFT_JUSTIFY) == 0u) {
1101:systemview/SEGGER_SYSVIEW.c ****     if (FieldWidth != 0u) {
1102:systemview/SEGGER_SYSVIEW.c ****       if (((FormatFlags & FORMAT_FLAG_PAD_ZERO) == FORMAT_FLAG_PAD_ZERO) && (NumDigits == 0u)) {
1103:systemview/SEGGER_SYSVIEW.c ****         c = '0';
1104:systemview/SEGGER_SYSVIEW.c ****       } else {
1105:systemview/SEGGER_SYSVIEW.c ****         c = ' ';
1106:systemview/SEGGER_SYSVIEW.c ****       }
1107:systemview/SEGGER_SYSVIEW.c ****       while ((FieldWidth != 0u) && (Width < FieldWidth)) {
1108:systemview/SEGGER_SYSVIEW.c ****         FieldWidth--;
1109:systemview/SEGGER_SYSVIEW.c ****         _StoreChar(pBufferDesc, c);
1110:systemview/SEGGER_SYSVIEW.c ****       }
1111:systemview/SEGGER_SYSVIEW.c ****     }
1112:systemview/SEGGER_SYSVIEW.c ****   }
ARM GAS  C:\Users\20398\AppData\Local\Temp\cchI1MdI.s 			page 29


1113:systemview/SEGGER_SYSVIEW.c ****   //
1114:systemview/SEGGER_SYSVIEW.c ****   // Compute Digit.
1115:systemview/SEGGER_SYSVIEW.c ****   // Loop until Digit has the value of the highest digit required.
1116:systemview/SEGGER_SYSVIEW.c ****   // Example: If the output is 345 (Base 10), loop 2 times until Digit is 100.
1117:systemview/SEGGER_SYSVIEW.c ****   //
1118:systemview/SEGGER_SYSVIEW.c ****   while (1) {
1119:systemview/SEGGER_SYSVIEW.c ****     if (NumDigits > 1u) {       // User specified a min number of digits to print? => Make sure we 
1120:systemview/SEGGER_SYSVIEW.c ****       NumDigits--;
1121:systemview/SEGGER_SYSVIEW.c ****     } else {
1122:systemview/SEGGER_SYSVIEW.c ****       Div = v / Digit;
1123:systemview/SEGGER_SYSVIEW.c ****       if (Div < Base) {        // Is our divider big enough to extract the highest digit from value
1124:systemview/SEGGER_SYSVIEW.c ****         break;
1125:systemview/SEGGER_SYSVIEW.c ****       }
1126:systemview/SEGGER_SYSVIEW.c ****     }
1127:systemview/SEGGER_SYSVIEW.c ****     Digit *= Base;
1128:systemview/SEGGER_SYSVIEW.c ****   }
1129:systemview/SEGGER_SYSVIEW.c ****   //
1130:systemview/SEGGER_SYSVIEW.c ****   // Output digits
1131:systemview/SEGGER_SYSVIEW.c ****   //
1132:systemview/SEGGER_SYSVIEW.c ****   do {
1133:systemview/SEGGER_SYSVIEW.c ****     Div = v / Digit;
1134:systemview/SEGGER_SYSVIEW.c ****     v -= Div * Digit;
1135:systemview/SEGGER_SYSVIEW.c ****     _StoreChar(pBufferDesc, _aV2C[Div]);
1136:systemview/SEGGER_SYSVIEW.c ****     Digit /= Base;
1137:systemview/SEGGER_SYSVIEW.c ****   } while (Digit);
1138:systemview/SEGGER_SYSVIEW.c ****   //
1139:systemview/SEGGER_SYSVIEW.c ****   // Print trailing spaces if necessary
1140:systemview/SEGGER_SYSVIEW.c ****   //
1141:systemview/SEGGER_SYSVIEW.c ****   if ((FormatFlags & FORMAT_FLAG_LEFT_JUSTIFY) == FORMAT_FLAG_LEFT_JUSTIFY) {
1142:systemview/SEGGER_SYSVIEW.c ****     if (FieldWidth != 0u) {
1143:systemview/SEGGER_SYSVIEW.c ****       while ((FieldWidth != 0u) && (Width < FieldWidth)) {
1144:systemview/SEGGER_SYSVIEW.c ****         FieldWidth--;
1145:systemview/SEGGER_SYSVIEW.c ****         _StoreChar(pBufferDesc, ' ');
1146:systemview/SEGGER_SYSVIEW.c ****       }
1147:systemview/SEGGER_SYSVIEW.c ****     }
1148:systemview/SEGGER_SYSVIEW.c ****   }
1149:systemview/SEGGER_SYSVIEW.c **** }
1150:systemview/SEGGER_SYSVIEW.c **** 
1151:systemview/SEGGER_SYSVIEW.c **** /*********************************************************************
1152:systemview/SEGGER_SYSVIEW.c **** *
1153:systemview/SEGGER_SYSVIEW.c **** *       _PrintInt()
1154:systemview/SEGGER_SYSVIEW.c **** *
1155:systemview/SEGGER_SYSVIEW.c **** *  Function description
1156:systemview/SEGGER_SYSVIEW.c **** *    Print a signed integer with the given formatting into the
1157:systemview/SEGGER_SYSVIEW.c **** *     formatted string.
1158:systemview/SEGGER_SYSVIEW.c **** *
1159:systemview/SEGGER_SYSVIEW.c **** *  Parameters
1160:systemview/SEGGER_SYSVIEW.c **** *    pBufferDesc  Pointer to the buffer description.
1161:systemview/SEGGER_SYSVIEW.c **** *    v            Value to be printed.
1162:systemview/SEGGER_SYSVIEW.c **** *    Base         Base of the value.
1163:systemview/SEGGER_SYSVIEW.c **** *    NumDigits    Number of digits to be printed.
1164:systemview/SEGGER_SYSVIEW.c **** *    FieldWidth   Width of the printed field.
1165:systemview/SEGGER_SYSVIEW.c **** *    FormatFlags  Flags for formatting the value.
1166:systemview/SEGGER_SYSVIEW.c **** */
1167:systemview/SEGGER_SYSVIEW.c **** static void _PrintInt(SEGGER_SYSVIEW_PRINTF_DESC * pBufferDesc, int v, unsigned int Base, unsigned 
1168:systemview/SEGGER_SYSVIEW.c ****   unsigned int  Width;
1169:systemview/SEGGER_SYSVIEW.c ****   int           Number;
ARM GAS  C:\Users\20398\AppData\Local\Temp\cchI1MdI.s 			page 30


1170:systemview/SEGGER_SYSVIEW.c **** 
1171:systemview/SEGGER_SYSVIEW.c ****   Number = (v < 0) ? -v : v;
1172:systemview/SEGGER_SYSVIEW.c **** 
1173:systemview/SEGGER_SYSVIEW.c ****   //
1174:systemview/SEGGER_SYSVIEW.c ****   // Get actual field width
1175:systemview/SEGGER_SYSVIEW.c ****   //
1176:systemview/SEGGER_SYSVIEW.c ****   Width = 1u;
1177:systemview/SEGGER_SYSVIEW.c ****   while (Number >= (int)Base) {
1178:systemview/SEGGER_SYSVIEW.c ****     Number = (Number / (int)Base);
1179:systemview/SEGGER_SYSVIEW.c ****     Width++;
1180:systemview/SEGGER_SYSVIEW.c ****   }
1181:systemview/SEGGER_SYSVIEW.c ****   if (NumDigits > Width) {
1182:systemview/SEGGER_SYSVIEW.c ****     Width = NumDigits;
1183:systemview/SEGGER_SYSVIEW.c ****   }
1184:systemview/SEGGER_SYSVIEW.c ****   if ((FieldWidth > 0u) && ((v < 0) || ((FormatFlags & FORMAT_FLAG_PRINT_SIGN) == FORMAT_FLAG_PRINT
1185:systemview/SEGGER_SYSVIEW.c ****     FieldWidth--;
1186:systemview/SEGGER_SYSVIEW.c ****   }
1187:systemview/SEGGER_SYSVIEW.c **** 
1188:systemview/SEGGER_SYSVIEW.c ****   //
1189:systemview/SEGGER_SYSVIEW.c ****   // Print leading spaces if necessary
1190:systemview/SEGGER_SYSVIEW.c ****   //
1191:systemview/SEGGER_SYSVIEW.c ****   if ((((FormatFlags & FORMAT_FLAG_PAD_ZERO) == 0u) || (NumDigits != 0u)) && ((FormatFlags & FORMAT
1192:systemview/SEGGER_SYSVIEW.c ****     if (FieldWidth != 0u) {
1193:systemview/SEGGER_SYSVIEW.c ****       while ((FieldWidth != 0u) && (Width < FieldWidth)) {
1194:systemview/SEGGER_SYSVIEW.c ****         FieldWidth--;
1195:systemview/SEGGER_SYSVIEW.c ****         _StoreChar(pBufferDesc, ' ');
1196:systemview/SEGGER_SYSVIEW.c ****       }
1197:systemview/SEGGER_SYSVIEW.c ****     }
1198:systemview/SEGGER_SYSVIEW.c ****   }
1199:systemview/SEGGER_SYSVIEW.c ****   //
1200:systemview/SEGGER_SYSVIEW.c ****   // Print sign if necessary
1201:systemview/SEGGER_SYSVIEW.c ****   //
1202:systemview/SEGGER_SYSVIEW.c ****   if (v < 0) {
1203:systemview/SEGGER_SYSVIEW.c ****     v = -v;
1204:systemview/SEGGER_SYSVIEW.c ****     _StoreChar(pBufferDesc, '-');
1205:systemview/SEGGER_SYSVIEW.c ****   } else if ((FormatFlags & FORMAT_FLAG_PRINT_SIGN) == FORMAT_FLAG_PRINT_SIGN) {
1206:systemview/SEGGER_SYSVIEW.c ****     _StoreChar(pBufferDesc, '+');
1207:systemview/SEGGER_SYSVIEW.c ****   } else {
1208:systemview/SEGGER_SYSVIEW.c **** 
1209:systemview/SEGGER_SYSVIEW.c ****   }
1210:systemview/SEGGER_SYSVIEW.c ****   //
1211:systemview/SEGGER_SYSVIEW.c ****   // Print leading zeros if necessary
1212:systemview/SEGGER_SYSVIEW.c ****   //
1213:systemview/SEGGER_SYSVIEW.c ****   if (((FormatFlags & FORMAT_FLAG_PAD_ZERO) == FORMAT_FLAG_PAD_ZERO) && ((FormatFlags & FORMAT_FLAG
1214:systemview/SEGGER_SYSVIEW.c ****     if (FieldWidth != 0u) {
1215:systemview/SEGGER_SYSVIEW.c ****       while ((FieldWidth != 0u) && (Width < FieldWidth)) {
1216:systemview/SEGGER_SYSVIEW.c ****         FieldWidth--;
1217:systemview/SEGGER_SYSVIEW.c ****         _StoreChar(pBufferDesc, '0');
1218:systemview/SEGGER_SYSVIEW.c ****       }
1219:systemview/SEGGER_SYSVIEW.c ****     }
1220:systemview/SEGGER_SYSVIEW.c ****   }
1221:systemview/SEGGER_SYSVIEW.c ****   //
1222:systemview/SEGGER_SYSVIEW.c ****   // Print number without sign
1223:systemview/SEGGER_SYSVIEW.c ****   //
1224:systemview/SEGGER_SYSVIEW.c ****   _PrintUnsigned(pBufferDesc, (unsigned int)v, Base, NumDigits, FieldWidth, FormatFlags);
1225:systemview/SEGGER_SYSVIEW.c **** }
1226:systemview/SEGGER_SYSVIEW.c **** 
ARM GAS  C:\Users\20398\AppData\Local\Temp\cchI1MdI.s 			page 31


1227:systemview/SEGGER_SYSVIEW.c **** /*********************************************************************
1228:systemview/SEGGER_SYSVIEW.c **** *
1229:systemview/SEGGER_SYSVIEW.c **** *       _VPrintTarget()
1230:systemview/SEGGER_SYSVIEW.c **** *
1231:systemview/SEGGER_SYSVIEW.c **** *  Function description
1232:systemview/SEGGER_SYSVIEW.c **** *    Stores a formatted string.
1233:systemview/SEGGER_SYSVIEW.c **** *    This data is read by the host.
1234:systemview/SEGGER_SYSVIEW.c **** *
1235:systemview/SEGGER_SYSVIEW.c **** *  Parameters
1236:systemview/SEGGER_SYSVIEW.c **** *    sFormat      Pointer to format string.
1237:systemview/SEGGER_SYSVIEW.c **** *    Options      Options to be sent to the host.
1238:systemview/SEGGER_SYSVIEW.c **** *    pParamList   Pointer to the list of arguments for the format string.
1239:systemview/SEGGER_SYSVIEW.c **** */
1240:systemview/SEGGER_SYSVIEW.c **** static void _VPrintTarget(const char* sFormat, U32 Options, va_list* pParamList) {
1241:systemview/SEGGER_SYSVIEW.c ****   SEGGER_SYSVIEW_PRINTF_DESC BufferDesc;
1242:systemview/SEGGER_SYSVIEW.c ****   char          c;
1243:systemview/SEGGER_SYSVIEW.c ****   int           v;
1244:systemview/SEGGER_SYSVIEW.c ****   unsigned int  NumDigits;
1245:systemview/SEGGER_SYSVIEW.c ****   unsigned int  FormatFlags;
1246:systemview/SEGGER_SYSVIEW.c ****   unsigned int  FieldWidth;
1247:systemview/SEGGER_SYSVIEW.c ****   U8*           pPayloadStart;
1248:systemview/SEGGER_SYSVIEW.c ****   const char*   s;
1249:systemview/SEGGER_SYSVIEW.c **** #if SEGGER_SYSVIEW_USE_STATIC_BUFFER == 0
1250:systemview/SEGGER_SYSVIEW.c ****   RECORD_START(SEGGER_SYSVIEW_INFO_SIZE + SEGGER_SYSVIEW_MAX_STRING_LEN + 1 + 2 * SEGGER_SYSVIEW_QU
1251:systemview/SEGGER_SYSVIEW.c ****   SEGGER_SYSVIEW_LOCK();
1252:systemview/SEGGER_SYSVIEW.c **** #else
1253:systemview/SEGGER_SYSVIEW.c ****   RECORD_START(SEGGER_SYSVIEW_INFO_SIZE + SEGGER_SYSVIEW_MAX_STRING_LEN + 1 + 2 * SEGGER_SYSVIEW_QU
1254:systemview/SEGGER_SYSVIEW.c **** #endif
1255:systemview/SEGGER_SYSVIEW.c **** 
1256:systemview/SEGGER_SYSVIEW.c **** #if SEGGER_SYSVIEW_USE_STATIC_BUFFER == 0
1257:systemview/SEGGER_SYSVIEW.c ****   BufferDesc.pBuffer        = aPacket;
1258:systemview/SEGGER_SYSVIEW.c **** #else
1259:systemview/SEGGER_SYSVIEW.c ****   BufferDesc.pBuffer        = _aPacket;
1260:systemview/SEGGER_SYSVIEW.c **** #endif
1261:systemview/SEGGER_SYSVIEW.c ****   BufferDesc.Cnt            = 0u;
1262:systemview/SEGGER_SYSVIEW.c ****   BufferDesc.pPayloadStart  = pPayloadStart;
1263:systemview/SEGGER_SYSVIEW.c ****   BufferDesc.pPayload       = BufferDesc.pPayloadStart + 1u;
1264:systemview/SEGGER_SYSVIEW.c ****   BufferDesc.Options        =  Options;
1265:systemview/SEGGER_SYSVIEW.c **** 
1266:systemview/SEGGER_SYSVIEW.c ****   do {
1267:systemview/SEGGER_SYSVIEW.c ****     c = *sFormat;
1268:systemview/SEGGER_SYSVIEW.c ****     sFormat++;
1269:systemview/SEGGER_SYSVIEW.c ****     if (c == 0u) {
1270:systemview/SEGGER_SYSVIEW.c ****       break;
1271:systemview/SEGGER_SYSVIEW.c ****     }
1272:systemview/SEGGER_SYSVIEW.c ****     if (c == '%') {
1273:systemview/SEGGER_SYSVIEW.c ****       //
1274:systemview/SEGGER_SYSVIEW.c ****       // Filter out flags
1275:systemview/SEGGER_SYSVIEW.c ****       //
1276:systemview/SEGGER_SYSVIEW.c ****       FormatFlags = 0u;
1277:systemview/SEGGER_SYSVIEW.c ****       v = 1;
1278:systemview/SEGGER_SYSVIEW.c ****       do {
1279:systemview/SEGGER_SYSVIEW.c ****         c = *sFormat;
1280:systemview/SEGGER_SYSVIEW.c ****         switch (c) {
1281:systemview/SEGGER_SYSVIEW.c ****         case '-': FormatFlags |= FORMAT_FLAG_LEFT_JUSTIFY; sFormat++; break;
1282:systemview/SEGGER_SYSVIEW.c ****         case '0': FormatFlags |= FORMAT_FLAG_PAD_ZERO;     sFormat++; break;
1283:systemview/SEGGER_SYSVIEW.c ****         case '+': FormatFlags |= FORMAT_FLAG_PRINT_SIGN;   sFormat++; break;
ARM GAS  C:\Users\20398\AppData\Local\Temp\cchI1MdI.s 			page 32


1284:systemview/SEGGER_SYSVIEW.c ****         case '#': FormatFlags |= FORMAT_FLAG_ALTERNATE;    sFormat++; break;
1285:systemview/SEGGER_SYSVIEW.c ****         default:  v = 0; break;
1286:systemview/SEGGER_SYSVIEW.c ****         }
1287:systemview/SEGGER_SYSVIEW.c ****       } while (v);
1288:systemview/SEGGER_SYSVIEW.c ****       //
1289:systemview/SEGGER_SYSVIEW.c ****       // filter out field with
1290:systemview/SEGGER_SYSVIEW.c ****       //
1291:systemview/SEGGER_SYSVIEW.c ****       FieldWidth = 0u;
1292:systemview/SEGGER_SYSVIEW.c ****       do {
1293:systemview/SEGGER_SYSVIEW.c ****         c = *sFormat;
1294:systemview/SEGGER_SYSVIEW.c ****         if ((c < '0') || (c > '9')) {
1295:systemview/SEGGER_SYSVIEW.c ****           break;
1296:systemview/SEGGER_SYSVIEW.c ****         }
1297:systemview/SEGGER_SYSVIEW.c ****         sFormat++;
1298:systemview/SEGGER_SYSVIEW.c ****         FieldWidth = (FieldWidth * 10u) + ((unsigned int)c - '0');
1299:systemview/SEGGER_SYSVIEW.c ****       } while (1);
1300:systemview/SEGGER_SYSVIEW.c **** 
1301:systemview/SEGGER_SYSVIEW.c ****       //
1302:systemview/SEGGER_SYSVIEW.c ****       // Filter out precision (number of digits to display)
1303:systemview/SEGGER_SYSVIEW.c ****       //
1304:systemview/SEGGER_SYSVIEW.c ****       NumDigits = 0u;
1305:systemview/SEGGER_SYSVIEW.c ****       c = *sFormat;
1306:systemview/SEGGER_SYSVIEW.c ****       if (c == '.') {
1307:systemview/SEGGER_SYSVIEW.c ****         sFormat++;
1308:systemview/SEGGER_SYSVIEW.c ****         do {
1309:systemview/SEGGER_SYSVIEW.c ****           c = *sFormat;
1310:systemview/SEGGER_SYSVIEW.c ****           if ((c < '0') || (c > '9')) {
1311:systemview/SEGGER_SYSVIEW.c ****             break;
1312:systemview/SEGGER_SYSVIEW.c ****           }
1313:systemview/SEGGER_SYSVIEW.c ****           sFormat++;
1314:systemview/SEGGER_SYSVIEW.c ****           NumDigits = NumDigits * 10u + ((unsigned int)c - '0');
1315:systemview/SEGGER_SYSVIEW.c ****         } while (1);
1316:systemview/SEGGER_SYSVIEW.c ****       }
1317:systemview/SEGGER_SYSVIEW.c ****       //
1318:systemview/SEGGER_SYSVIEW.c ****       // Filter out length modifier
1319:systemview/SEGGER_SYSVIEW.c ****       //
1320:systemview/SEGGER_SYSVIEW.c ****       c = *sFormat;
1321:systemview/SEGGER_SYSVIEW.c ****       do {
1322:systemview/SEGGER_SYSVIEW.c ****         if ((c == 'l') || (c == 'h')) {
1323:systemview/SEGGER_SYSVIEW.c ****           c = *sFormat;
1324:systemview/SEGGER_SYSVIEW.c ****           sFormat++;
1325:systemview/SEGGER_SYSVIEW.c ****         } else {
1326:systemview/SEGGER_SYSVIEW.c ****           break;
1327:systemview/SEGGER_SYSVIEW.c ****         }
1328:systemview/SEGGER_SYSVIEW.c ****       } while (1);
1329:systemview/SEGGER_SYSVIEW.c ****       //
1330:systemview/SEGGER_SYSVIEW.c ****       // Handle specifiers
1331:systemview/SEGGER_SYSVIEW.c ****       //
1332:systemview/SEGGER_SYSVIEW.c ****       switch (c) {
1333:systemview/SEGGER_SYSVIEW.c ****       case 'c': {
1334:systemview/SEGGER_SYSVIEW.c ****         char c0;
1335:systemview/SEGGER_SYSVIEW.c ****         v = va_arg(*pParamList, int);
1336:systemview/SEGGER_SYSVIEW.c ****         c0 = (char)v;
1337:systemview/SEGGER_SYSVIEW.c ****         _StoreChar(&BufferDesc, c0);
1338:systemview/SEGGER_SYSVIEW.c ****         break;
1339:systemview/SEGGER_SYSVIEW.c ****       }
1340:systemview/SEGGER_SYSVIEW.c ****       case 'd':
ARM GAS  C:\Users\20398\AppData\Local\Temp\cchI1MdI.s 			page 33


1341:systemview/SEGGER_SYSVIEW.c ****         v = va_arg(*pParamList, int);
1342:systemview/SEGGER_SYSVIEW.c ****         _PrintInt(&BufferDesc, v, 10u, NumDigits, FieldWidth, FormatFlags);
1343:systemview/SEGGER_SYSVIEW.c ****         break;
1344:systemview/SEGGER_SYSVIEW.c ****       case 'u':
1345:systemview/SEGGER_SYSVIEW.c ****         v = va_arg(*pParamList, int);
1346:systemview/SEGGER_SYSVIEW.c ****         _PrintUnsigned(&BufferDesc, (unsigned int)v, 10u, NumDigits, FieldWidth, FormatFlags);
1347:systemview/SEGGER_SYSVIEW.c ****         break;
1348:systemview/SEGGER_SYSVIEW.c ****       case 'x':
1349:systemview/SEGGER_SYSVIEW.c ****       case 'X':
1350:systemview/SEGGER_SYSVIEW.c ****         v = va_arg(*pParamList, int);
1351:systemview/SEGGER_SYSVIEW.c ****         _PrintUnsigned(&BufferDesc, (unsigned int)v, 16u, NumDigits, FieldWidth, FormatFlags);
1352:systemview/SEGGER_SYSVIEW.c ****         break;
1353:systemview/SEGGER_SYSVIEW.c ****       case 's':
1354:systemview/SEGGER_SYSVIEW.c ****         s = va_arg(*pParamList, const char*);
1355:systemview/SEGGER_SYSVIEW.c ****         if (s == NULL) {
1356:systemview/SEGGER_SYSVIEW.c ****           s = "(null)";
1357:systemview/SEGGER_SYSVIEW.c ****         }
1358:systemview/SEGGER_SYSVIEW.c ****         do {
1359:systemview/SEGGER_SYSVIEW.c ****           c = *s;
1360:systemview/SEGGER_SYSVIEW.c ****           s++;
1361:systemview/SEGGER_SYSVIEW.c ****           if (c == '\0') {
1362:systemview/SEGGER_SYSVIEW.c ****             break;
1363:systemview/SEGGER_SYSVIEW.c ****           }
1364:systemview/SEGGER_SYSVIEW.c ****          _StoreChar(&BufferDesc, c);
1365:systemview/SEGGER_SYSVIEW.c ****         } while (BufferDesc.Cnt < SEGGER_SYSVIEW_MAX_STRING_LEN);
1366:systemview/SEGGER_SYSVIEW.c ****         break;
1367:systemview/SEGGER_SYSVIEW.c ****       case 'p':
1368:systemview/SEGGER_SYSVIEW.c ****         v = va_arg(*pParamList, int);
1369:systemview/SEGGER_SYSVIEW.c ****         _PrintUnsigned(&BufferDesc, (unsigned int)v, 16u, 8u, 8u, 0u);
1370:systemview/SEGGER_SYSVIEW.c ****         break;
1371:systemview/SEGGER_SYSVIEW.c ****       case '%':
1372:systemview/SEGGER_SYSVIEW.c ****         _StoreChar(&BufferDesc, '%');
1373:systemview/SEGGER_SYSVIEW.c ****         break;
1374:systemview/SEGGER_SYSVIEW.c ****       default:
1375:systemview/SEGGER_SYSVIEW.c ****         break;
1376:systemview/SEGGER_SYSVIEW.c ****       }
1377:systemview/SEGGER_SYSVIEW.c ****       sFormat++;
1378:systemview/SEGGER_SYSVIEW.c ****     } else {
1379:systemview/SEGGER_SYSVIEW.c ****       _StoreChar(&BufferDesc, c);
1380:systemview/SEGGER_SYSVIEW.c ****     }
1381:systemview/SEGGER_SYSVIEW.c ****   } while (*sFormat);
1382:systemview/SEGGER_SYSVIEW.c **** 
1383:systemview/SEGGER_SYSVIEW.c ****   //
1384:systemview/SEGGER_SYSVIEW.c ****   // Write remaining data, if any
1385:systemview/SEGGER_SYSVIEW.c ****   //
1386:systemview/SEGGER_SYSVIEW.c ****   if (BufferDesc.Cnt != 0u) {
1387:systemview/SEGGER_SYSVIEW.c ****     *(BufferDesc.pPayloadStart) = (U8)BufferDesc.Cnt;
1388:systemview/SEGGER_SYSVIEW.c ****     ENCODE_U32(BufferDesc.pPayload, BufferDesc.Options);
1389:systemview/SEGGER_SYSVIEW.c ****     ENCODE_U32(BufferDesc.pPayload, 0);
1390:systemview/SEGGER_SYSVIEW.c ****     _SendPacket(BufferDesc.pPayloadStart, BufferDesc.pPayload, SYSVIEW_EVTID_PRINT_FORMATTED);
1391:systemview/SEGGER_SYSVIEW.c ****   }
1392:systemview/SEGGER_SYSVIEW.c **** #if SEGGER_SYSVIEW_USE_STATIC_BUFFER == 0
1393:systemview/SEGGER_SYSVIEW.c ****   SEGGER_SYSVIEW_UNLOCK();
1394:systemview/SEGGER_SYSVIEW.c ****   RECORD_END();
1395:systemview/SEGGER_SYSVIEW.c **** #else
1396:systemview/SEGGER_SYSVIEW.c ****   RECORD_END();
1397:systemview/SEGGER_SYSVIEW.c **** #endif
ARM GAS  C:\Users\20398\AppData\Local\Temp\cchI1MdI.s 			page 34


1398:systemview/SEGGER_SYSVIEW.c **** }
1399:systemview/SEGGER_SYSVIEW.c **** #endif // SEGGER_SYSVIEW_EXCLUDE_PRINTF
1400:systemview/SEGGER_SYSVIEW.c **** 
1401:systemview/SEGGER_SYSVIEW.c **** /*********************************************************************
1402:systemview/SEGGER_SYSVIEW.c **** *
1403:systemview/SEGGER_SYSVIEW.c **** *       Public code
1404:systemview/SEGGER_SYSVIEW.c **** *
1405:systemview/SEGGER_SYSVIEW.c **** **********************************************************************
1406:systemview/SEGGER_SYSVIEW.c **** */
1407:systemview/SEGGER_SYSVIEW.c **** 
1408:systemview/SEGGER_SYSVIEW.c **** /*********************************************************************
1409:systemview/SEGGER_SYSVIEW.c **** *
1410:systemview/SEGGER_SYSVIEW.c **** *       SEGGER_SYSVIEW_Init()
1411:systemview/SEGGER_SYSVIEW.c **** *
1412:systemview/SEGGER_SYSVIEW.c **** *  Function description
1413:systemview/SEGGER_SYSVIEW.c **** *    Initializes the SYSVIEW module.
1414:systemview/SEGGER_SYSVIEW.c **** *    Must be called before the SystemView Application connects to
1415:systemview/SEGGER_SYSVIEW.c **** *    the system.
1416:systemview/SEGGER_SYSVIEW.c **** *
1417:systemview/SEGGER_SYSVIEW.c **** *  Parameters
1418:systemview/SEGGER_SYSVIEW.c **** *    SysFreq        - Frequency of timestamp, usually CPU core clock frequency.
1419:systemview/SEGGER_SYSVIEW.c **** *    CPUFreq        - CPU core clock frequency.
1420:systemview/SEGGER_SYSVIEW.c **** *    pOSAPI         - Pointer to the API structure for OS-specific functions.
1421:systemview/SEGGER_SYSVIEW.c **** *    pfSendSysDesc  - Pointer to record system description callback function.
1422:systemview/SEGGER_SYSVIEW.c **** *
1423:systemview/SEGGER_SYSVIEW.c **** *  Additional information
1424:systemview/SEGGER_SYSVIEW.c **** *    This function initializes the RTT channel used to transport
1425:systemview/SEGGER_SYSVIEW.c **** *    SEGGER SystemView packets.
1426:systemview/SEGGER_SYSVIEW.c **** *    The channel is assigned the label "SysView" for client software
1427:systemview/SEGGER_SYSVIEW.c **** *    to identify the SystemView channel.
1428:systemview/SEGGER_SYSVIEW.c **** *
1429:systemview/SEGGER_SYSVIEW.c **** *    The channel is configured with the macro SEGGER_SYSVIEW_RTT_CHANNEL.
1430:systemview/SEGGER_SYSVIEW.c **** */
1431:systemview/SEGGER_SYSVIEW.c **** void SEGGER_SYSVIEW_Init(U32 SysFreq, U32 CPUFreq, const SEGGER_SYSVIEW_OS_API *pOSAPI, SEGGER_SYSV
 469              		.loc 1 1431 138 is_stmt 1 view -0
 470              		.cfi_startproc
 471              		@ args = 0, pretend = 0, frame = 0
 472              		@ frame_needed = 0, uses_anonymous_args = 0
 473              		.loc 1 1431 138 is_stmt 0 view .LVU157
 474 0000 2DE9F047 		push	{r4, r5, r6, r7, r8, r9, r10, lr}
 475              	.LCFI9:
 476              		.cfi_def_cfa_offset 32
 477              		.cfi_offset 4, -32
 478              		.cfi_offset 5, -28
 479              		.cfi_offset 6, -24
 480              		.cfi_offset 7, -20
 481              		.cfi_offset 8, -16
 482              		.cfi_offset 9, -12
 483              		.cfi_offset 10, -8
 484              		.cfi_offset 14, -4
 485 0004 82B0     		sub	sp, sp, #8
 486              	.LCFI10:
 487              		.cfi_def_cfa_offset 40
 488 0006 0746     		mov	r7, r0
 489 0008 0E46     		mov	r6, r1
 490 000a 9046     		mov	r8, r2
 491 000c 1D46     		mov	r5, r3
ARM GAS  C:\Users\20398\AppData\Local\Temp\cchI1MdI.s 			page 35


1432:systemview/SEGGER_SYSVIEW.c **** #ifdef SEGGER_RTT_SECTION
1433:systemview/SEGGER_SYSVIEW.c ****   //
1434:systemview/SEGGER_SYSVIEW.c ****   // Explicitly initialize the RTT Control Block if it is in its dedicated section.
1435:systemview/SEGGER_SYSVIEW.c ****   //
1436:systemview/SEGGER_SYSVIEW.c ****   SEGGER_RTT_Init();
1437:systemview/SEGGER_SYSVIEW.c **** #endif
1438:systemview/SEGGER_SYSVIEW.c **** #if (SEGGER_SYSVIEW_POST_MORTEM_MODE == 1)
1439:systemview/SEGGER_SYSVIEW.c **** #if SEGGER_SYSVIEW_RTT_CHANNEL > 0
1440:systemview/SEGGER_SYSVIEW.c ****   SEGGER_RTT_ConfigUpBuffer(SEGGER_SYSVIEW_RTT_CHANNEL, "SysView", &_UpBuffer[0],   sizeof(_UpBuffe
1441:systemview/SEGGER_SYSVIEW.c **** #else
1442:systemview/SEGGER_SYSVIEW.c ****   _SYSVIEW_Globals.UpChannel = (U8)SEGGER_RTT_AllocUpBuffer  ("SysView", &_UpBuffer[0],   sizeof(_U
1443:systemview/SEGGER_SYSVIEW.c **** #endif
1444:systemview/SEGGER_SYSVIEW.c ****   _SYSVIEW_Globals.RAMBaseAddress   = SEGGER_SYSVIEW_ID_BASE;
1445:systemview/SEGGER_SYSVIEW.c ****   _SYSVIEW_Globals.LastTxTimeStamp  = SEGGER_SYSVIEW_GET_TIMESTAMP();
1446:systemview/SEGGER_SYSVIEW.c ****   _SYSVIEW_Globals.pOSAPI           = pOSAPI;
1447:systemview/SEGGER_SYSVIEW.c ****   _SYSVIEW_Globals.SysFreq          = SysFreq;
1448:systemview/SEGGER_SYSVIEW.c ****   _SYSVIEW_Globals.CPUFreq          = CPUFreq;
1449:systemview/SEGGER_SYSVIEW.c ****   _SYSVIEW_Globals.pfSendSysDesc    = pfSendSysDesc;
1450:systemview/SEGGER_SYSVIEW.c ****   _SYSVIEW_Globals.EnableState      = 0;
1451:systemview/SEGGER_SYSVIEW.c ****   _SYSVIEW_Globals.PacketCount      = 0;
1452:systemview/SEGGER_SYSVIEW.c **** #else // (SEGGER_SYSVIEW_POST_MORTEM_MODE == 1)
1453:systemview/SEGGER_SYSVIEW.c **** #if SEGGER_SYSVIEW_RTT_CHANNEL > 0
1454:systemview/SEGGER_SYSVIEW.c ****   SEGGER_RTT_ConfigUpBuffer   (SEGGER_SYSVIEW_RTT_CHANNEL, "SysView", &_UpBuffer[0],   sizeof(_UpBu
1455:systemview/SEGGER_SYSVIEW.c ****   SEGGER_RTT_ConfigDownBuffer (SEGGER_SYSVIEW_RTT_CHANNEL, "SysView", &_DownBuffer[0], sizeof(_Down
1456:systemview/SEGGER_SYSVIEW.c **** #else
1457:systemview/SEGGER_SYSVIEW.c ****   _SYSVIEW_Globals.UpChannel = (U8)SEGGER_RTT_AllocUpBuffer  ("SysView", &_UpBuffer[0],   sizeof(_U
 492              		.loc 1 1457 3 is_stmt 1 view .LVU158
 493              		.loc 1 1457 36 is_stmt 0 view .LVU159
 494 000e DFF84890 		ldr	r9, .L35
 495 0012 0023     		movs	r3, #0
 496              	.LVL54:
 497              		.loc 1 1457 36 view .LVU160
 498 0014 4FF48062 		mov	r2, #1024
 499              	.LVL55:
 500              		.loc 1 1457 36 view .LVU161
 501 0018 1049     		ldr	r1, .L35+4
 502              	.LVL56:
 503              		.loc 1 1457 36 view .LVU162
 504 001a 4846     		mov	r0, r9
 505              	.LVL57:
 506              		.loc 1 1457 36 view .LVU163
 507 001c FFF7FEFF 		bl	SEGGER_RTT_AllocUpBuffer
 508              	.LVL58:
 509              		.loc 1 1457 32 view .LVU164
 510 0020 C0B2     		uxtb	r0, r0
 511              		.loc 1 1457 30 view .LVU165
 512 0022 0F4C     		ldr	r4, .L35+8
 513 0024 6070     		strb	r0, [r4, #1]
1458:systemview/SEGGER_SYSVIEW.c ****   _SYSVIEW_Globals.DownChannel = _SYSVIEW_Globals.UpChannel;
 514              		.loc 1 1458 3 is_stmt 1 view .LVU166
 515              		.loc 1 1458 32 is_stmt 0 view .LVU167
 516 0026 2076     		strb	r0, [r4, #24]
1459:systemview/SEGGER_SYSVIEW.c ****   SEGGER_RTT_ConfigDownBuffer (_SYSVIEW_Globals.DownChannel, "SysView", &_DownBuffer[0], sizeof(_Do
 517              		.loc 1 1459 3 is_stmt 1 view .LVU168
 518 0028 4FF0000A 		mov	r10, #0
 519 002c CDF800A0 		str	r10, [sp]
 520 0030 0823     		movs	r3, #8
ARM GAS  C:\Users\20398\AppData\Local\Temp\cchI1MdI.s 			page 36


 521 0032 0C4A     		ldr	r2, .L35+12
 522 0034 4946     		mov	r1, r9
 523 0036 FFF7FEFF 		bl	SEGGER_RTT_ConfigDownBuffer
 524              	.LVL59:
1460:systemview/SEGGER_SYSVIEW.c **** #endif
1461:systemview/SEGGER_SYSVIEW.c ****   _SYSVIEW_Globals.RAMBaseAddress   = SEGGER_SYSVIEW_ID_BASE;
 525              		.loc 1 1461 3 view .LVU169
 526              		.loc 1 1461 37 is_stmt 0 view .LVU170
 527 003a C4F810A0 		str	r10, [r4, #16]
1462:systemview/SEGGER_SYSVIEW.c ****   _SYSVIEW_Globals.LastTxTimeStamp  = SEGGER_SYSVIEW_GET_TIMESTAMP();
 528              		.loc 1 1462 3 is_stmt 1 view .LVU171
 529              		.loc 1 1462 39 is_stmt 0 view .LVU172
 530 003e 0A4B     		ldr	r3, .L35+16
 531 0040 5B68     		ldr	r3, [r3, #4]
 532              		.loc 1 1462 37 view .LVU173
 533 0042 E360     		str	r3, [r4, #12]
1463:systemview/SEGGER_SYSVIEW.c ****   _SYSVIEW_Globals.pOSAPI           = pOSAPI;
 534              		.loc 1 1463 3 is_stmt 1 view .LVU174
 535              		.loc 1 1463 37 is_stmt 0 view .LVU175
 536 0044 C4F82080 		str	r8, [r4, #32]
1464:systemview/SEGGER_SYSVIEW.c ****   _SYSVIEW_Globals.SysFreq          = SysFreq;
 537              		.loc 1 1464 3 is_stmt 1 view .LVU176
 538              		.loc 1 1464 37 is_stmt 0 view .LVU177
 539 0048 6760     		str	r7, [r4, #4]
1465:systemview/SEGGER_SYSVIEW.c ****   _SYSVIEW_Globals.CPUFreq          = CPUFreq;
 540              		.loc 1 1465 3 is_stmt 1 view .LVU178
 541              		.loc 1 1465 37 is_stmt 0 view .LVU179
 542 004a A660     		str	r6, [r4, #8]
1466:systemview/SEGGER_SYSVIEW.c ****   _SYSVIEW_Globals.pfSendSysDesc    = pfSendSysDesc;
 543              		.loc 1 1466 3 is_stmt 1 view .LVU180
 544              		.loc 1 1466 37 is_stmt 0 view .LVU181
 545 004c 6562     		str	r5, [r4, #36]
1467:systemview/SEGGER_SYSVIEW.c ****   _SYSVIEW_Globals.EnableState      = 0;
 546              		.loc 1 1467 3 is_stmt 1 view .LVU182
 547              		.loc 1 1467 37 is_stmt 0 view .LVU183
 548 004e 84F800A0 		strb	r10, [r4]
1468:systemview/SEGGER_SYSVIEW.c **** #endif  // (SEGGER_SYSVIEW_POST_MORTEM_MODE == 1)
1469:systemview/SEGGER_SYSVIEW.c **** }
 549              		.loc 1 1469 1 view .LVU184
 550 0052 02B0     		add	sp, sp, #8
 551              	.LCFI11:
 552              		.cfi_def_cfa_offset 32
 553              		@ sp needed
 554 0054 BDE8F087 		pop	{r4, r5, r6, r7, r8, r9, r10, pc}
 555              	.LVL60:
 556              	.L36:
 557              		.loc 1 1469 1 view .LVU185
 558              		.align	2
 559              	.L35:
 560 0058 00000000 		.word	.LC0
 561 005c 00000000 		.word	.LANCHOR1
 562 0060 00000000 		.word	.LANCHOR0
 563 0064 00000000 		.word	.LANCHOR2
 564 0068 001000E0 		.word	-536866816
 565              		.cfi_endproc
 566              	.LFE12:
 568              		.section	.text.SEGGER_SYSVIEW_SetRAMBase,"ax",%progbits
ARM GAS  C:\Users\20398\AppData\Local\Temp\cchI1MdI.s 			page 37


 569              		.align	1
 570              		.global	SEGGER_SYSVIEW_SetRAMBase
 571              		.syntax unified
 572              		.thumb
 573              		.thumb_func
 575              	SEGGER_SYSVIEW_SetRAMBase:
 576              	.LVL61:
 577              	.LFB13:
1470:systemview/SEGGER_SYSVIEW.c **** 
1471:systemview/SEGGER_SYSVIEW.c **** /*********************************************************************
1472:systemview/SEGGER_SYSVIEW.c **** *
1473:systemview/SEGGER_SYSVIEW.c **** *       SEGGER_SYSVIEW_SetRAMBase()
1474:systemview/SEGGER_SYSVIEW.c **** *
1475:systemview/SEGGER_SYSVIEW.c **** *  Function description
1476:systemview/SEGGER_SYSVIEW.c **** *    Sets the RAM base address, which is subtracted from IDs in order
1477:systemview/SEGGER_SYSVIEW.c **** *     to save bandwidth.
1478:systemview/SEGGER_SYSVIEW.c **** *
1479:systemview/SEGGER_SYSVIEW.c **** *  Parameters
1480:systemview/SEGGER_SYSVIEW.c **** *    RAMBaseAddress - Lowest RAM Address. (i.e. 0x20000000 on most Cortex-M)
1481:systemview/SEGGER_SYSVIEW.c **** */
1482:systemview/SEGGER_SYSVIEW.c **** void SEGGER_SYSVIEW_SetRAMBase(U32 RAMBaseAddress) {
 578              		.loc 1 1482 52 is_stmt 1 view -0
 579              		.cfi_startproc
 580              		@ args = 0, pretend = 0, frame = 0
 581              		@ frame_needed = 0, uses_anonymous_args = 0
 582              		@ link register save eliminated.
1483:systemview/SEGGER_SYSVIEW.c ****   _SYSVIEW_Globals.RAMBaseAddress = RAMBaseAddress;
 583              		.loc 1 1483 3 view .LVU187
 584              		.loc 1 1483 35 is_stmt 0 view .LVU188
 585 0000 014B     		ldr	r3, .L38
 586 0002 1861     		str	r0, [r3, #16]
1484:systemview/SEGGER_SYSVIEW.c **** }
 587              		.loc 1 1484 1 view .LVU189
 588 0004 7047     		bx	lr
 589              	.L39:
 590 0006 00BF     		.align	2
 591              	.L38:
 592 0008 00000000 		.word	.LANCHOR0
 593              		.cfi_endproc
 594              	.LFE13:
 596              		.section	.text.SEGGER_SYSVIEW_GetChannelID,"ax",%progbits
 597              		.align	1
 598              		.global	SEGGER_SYSVIEW_GetChannelID
 599              		.syntax unified
 600              		.thumb
 601              		.thumb_func
 603              	SEGGER_SYSVIEW_GetChannelID:
 604              	.LFB28:
1485:systemview/SEGGER_SYSVIEW.c **** 
1486:systemview/SEGGER_SYSVIEW.c **** /*********************************************************************
1487:systemview/SEGGER_SYSVIEW.c **** *
1488:systemview/SEGGER_SYSVIEW.c **** *       SEGGER_SYSVIEW_RecordVoid()
1489:systemview/SEGGER_SYSVIEW.c **** *
1490:systemview/SEGGER_SYSVIEW.c **** *  Function description
1491:systemview/SEGGER_SYSVIEW.c **** *    Formats and sends a SystemView packet with an empty payload.
1492:systemview/SEGGER_SYSVIEW.c **** *
1493:systemview/SEGGER_SYSVIEW.c **** *  Parameters
ARM GAS  C:\Users\20398\AppData\Local\Temp\cchI1MdI.s 			page 38


1494:systemview/SEGGER_SYSVIEW.c **** *    EventID - SystemView event ID.
1495:systemview/SEGGER_SYSVIEW.c **** */
1496:systemview/SEGGER_SYSVIEW.c **** void SEGGER_SYSVIEW_RecordVoid(unsigned int EventID) {
1497:systemview/SEGGER_SYSVIEW.c ****   U8* pPayloadStart;
1498:systemview/SEGGER_SYSVIEW.c ****   RECORD_START(SEGGER_SYSVIEW_INFO_SIZE);
1499:systemview/SEGGER_SYSVIEW.c ****   //
1500:systemview/SEGGER_SYSVIEW.c ****   _SendPacket(pPayloadStart, pPayloadStart, EventID);
1501:systemview/SEGGER_SYSVIEW.c ****   RECORD_END();
1502:systemview/SEGGER_SYSVIEW.c **** }
1503:systemview/SEGGER_SYSVIEW.c **** 
1504:systemview/SEGGER_SYSVIEW.c **** /*********************************************************************
1505:systemview/SEGGER_SYSVIEW.c **** *
1506:systemview/SEGGER_SYSVIEW.c **** *       SEGGER_SYSVIEW_RecordU32()
1507:systemview/SEGGER_SYSVIEW.c **** *
1508:systemview/SEGGER_SYSVIEW.c **** *  Function description
1509:systemview/SEGGER_SYSVIEW.c **** *    Formats and sends a SystemView packet containing a single U32
1510:systemview/SEGGER_SYSVIEW.c **** *    parameter payload.
1511:systemview/SEGGER_SYSVIEW.c **** *
1512:systemview/SEGGER_SYSVIEW.c **** *  Parameters
1513:systemview/SEGGER_SYSVIEW.c **** *    EventID - SystemView event ID.
1514:systemview/SEGGER_SYSVIEW.c **** *    Value   - The 32-bit parameter encoded to SystemView packet payload.
1515:systemview/SEGGER_SYSVIEW.c **** */
1516:systemview/SEGGER_SYSVIEW.c **** void SEGGER_SYSVIEW_RecordU32(unsigned int EventID, U32 Value) {
1517:systemview/SEGGER_SYSVIEW.c ****   U8* pPayload;
1518:systemview/SEGGER_SYSVIEW.c ****   U8* pPayloadStart;
1519:systemview/SEGGER_SYSVIEW.c ****   RECORD_START(SEGGER_SYSVIEW_INFO_SIZE + SEGGER_SYSVIEW_QUANTA_U32);
1520:systemview/SEGGER_SYSVIEW.c ****   //
1521:systemview/SEGGER_SYSVIEW.c ****   pPayload = pPayloadStart;
1522:systemview/SEGGER_SYSVIEW.c ****   ENCODE_U32(pPayload, Value);
1523:systemview/SEGGER_SYSVIEW.c ****   _SendPacket(pPayloadStart, pPayload, EventID);
1524:systemview/SEGGER_SYSVIEW.c ****   RECORD_END();
1525:systemview/SEGGER_SYSVIEW.c **** }
1526:systemview/SEGGER_SYSVIEW.c **** 
1527:systemview/SEGGER_SYSVIEW.c **** /*********************************************************************
1528:systemview/SEGGER_SYSVIEW.c **** *
1529:systemview/SEGGER_SYSVIEW.c **** *       SEGGER_SYSVIEW_RecordU32x2()
1530:systemview/SEGGER_SYSVIEW.c **** *
1531:systemview/SEGGER_SYSVIEW.c **** *  Function description
1532:systemview/SEGGER_SYSVIEW.c **** *    Formats and sends a SystemView packet containing 2 U32 parameter payload.
1533:systemview/SEGGER_SYSVIEW.c **** *
1534:systemview/SEGGER_SYSVIEW.c **** *  Parameters
1535:systemview/SEGGER_SYSVIEW.c **** *    EventID - SystemView event ID.
1536:systemview/SEGGER_SYSVIEW.c **** *    Para0   - The 32-bit parameter encoded to SystemView packet payload.
1537:systemview/SEGGER_SYSVIEW.c **** *    Para1   - The 32-bit parameter encoded to SystemView packet payload.
1538:systemview/SEGGER_SYSVIEW.c **** */
1539:systemview/SEGGER_SYSVIEW.c **** void SEGGER_SYSVIEW_RecordU32x2(unsigned int EventID, U32 Para0, U32 Para1) {
1540:systemview/SEGGER_SYSVIEW.c ****   U8* pPayload;
1541:systemview/SEGGER_SYSVIEW.c ****   U8* pPayloadStart;
1542:systemview/SEGGER_SYSVIEW.c ****   RECORD_START(SEGGER_SYSVIEW_INFO_SIZE + 2 * SEGGER_SYSVIEW_QUANTA_U32);
1543:systemview/SEGGER_SYSVIEW.c ****   //
1544:systemview/SEGGER_SYSVIEW.c ****   pPayload = pPayloadStart;
1545:systemview/SEGGER_SYSVIEW.c ****   ENCODE_U32(pPayload, Para0);
1546:systemview/SEGGER_SYSVIEW.c ****   ENCODE_U32(pPayload, Para1);
1547:systemview/SEGGER_SYSVIEW.c ****   _SendPacket(pPayloadStart, pPayload, EventID);
1548:systemview/SEGGER_SYSVIEW.c ****   RECORD_END();
1549:systemview/SEGGER_SYSVIEW.c **** }
1550:systemview/SEGGER_SYSVIEW.c **** 
ARM GAS  C:\Users\20398\AppData\Local\Temp\cchI1MdI.s 			page 39


1551:systemview/SEGGER_SYSVIEW.c **** /*********************************************************************
1552:systemview/SEGGER_SYSVIEW.c **** *
1553:systemview/SEGGER_SYSVIEW.c **** *       SEGGER_SYSVIEW_RecordU32x3()
1554:systemview/SEGGER_SYSVIEW.c **** *
1555:systemview/SEGGER_SYSVIEW.c **** *  Function description
1556:systemview/SEGGER_SYSVIEW.c **** *    Formats and sends a SystemView packet containing 3 U32 parameter payload.
1557:systemview/SEGGER_SYSVIEW.c **** *
1558:systemview/SEGGER_SYSVIEW.c **** *  Parameters
1559:systemview/SEGGER_SYSVIEW.c **** *    EventID - SystemView event ID.
1560:systemview/SEGGER_SYSVIEW.c **** *    Para0   - The 32-bit parameter encoded to SystemView packet payload.
1561:systemview/SEGGER_SYSVIEW.c **** *    Para1   - The 32-bit parameter encoded to SystemView packet payload.
1562:systemview/SEGGER_SYSVIEW.c **** *    Para2   - The 32-bit parameter encoded to SystemView packet payload.
1563:systemview/SEGGER_SYSVIEW.c **** */
1564:systemview/SEGGER_SYSVIEW.c **** void SEGGER_SYSVIEW_RecordU32x3(unsigned int EventID, U32 Para0, U32 Para1, U32 Para2) {
1565:systemview/SEGGER_SYSVIEW.c ****   U8* pPayload;
1566:systemview/SEGGER_SYSVIEW.c ****   U8* pPayloadStart;
1567:systemview/SEGGER_SYSVIEW.c ****   RECORD_START(SEGGER_SYSVIEW_INFO_SIZE + 3 * SEGGER_SYSVIEW_QUANTA_U32);
1568:systemview/SEGGER_SYSVIEW.c ****   //
1569:systemview/SEGGER_SYSVIEW.c ****   pPayload = pPayloadStart;
1570:systemview/SEGGER_SYSVIEW.c ****   ENCODE_U32(pPayload, Para0);
1571:systemview/SEGGER_SYSVIEW.c ****   ENCODE_U32(pPayload, Para1);
1572:systemview/SEGGER_SYSVIEW.c ****   ENCODE_U32(pPayload, Para2);
1573:systemview/SEGGER_SYSVIEW.c ****   _SendPacket(pPayloadStart, pPayload, EventID);
1574:systemview/SEGGER_SYSVIEW.c ****   RECORD_END();
1575:systemview/SEGGER_SYSVIEW.c **** }
1576:systemview/SEGGER_SYSVIEW.c **** 
1577:systemview/SEGGER_SYSVIEW.c **** /*********************************************************************
1578:systemview/SEGGER_SYSVIEW.c **** *
1579:systemview/SEGGER_SYSVIEW.c **** *       SEGGER_SYSVIEW_RecordU32x4()
1580:systemview/SEGGER_SYSVIEW.c **** *
1581:systemview/SEGGER_SYSVIEW.c **** *  Function description
1582:systemview/SEGGER_SYSVIEW.c **** *    Formats and sends a SystemView packet containing 4 U32 parameter payload.
1583:systemview/SEGGER_SYSVIEW.c **** *
1584:systemview/SEGGER_SYSVIEW.c **** *  Parameters
1585:systemview/SEGGER_SYSVIEW.c **** *    EventID - SystemView event ID.
1586:systemview/SEGGER_SYSVIEW.c **** *    Para0   - The 32-bit parameter encoded to SystemView packet payload.
1587:systemview/SEGGER_SYSVIEW.c **** *    Para1   - The 32-bit parameter encoded to SystemView packet payload.
1588:systemview/SEGGER_SYSVIEW.c **** *    Para2   - The 32-bit parameter encoded to SystemView packet payload.
1589:systemview/SEGGER_SYSVIEW.c **** *    Para3   - The 32-bit parameter encoded to SystemView packet payload.
1590:systemview/SEGGER_SYSVIEW.c **** */
1591:systemview/SEGGER_SYSVIEW.c **** void SEGGER_SYSVIEW_RecordU32x4(unsigned int EventID, U32 Para0, U32 Para1, U32 Para2, U32 Para3) {
1592:systemview/SEGGER_SYSVIEW.c ****   U8* pPayload;
1593:systemview/SEGGER_SYSVIEW.c ****   U8* pPayloadStart;
1594:systemview/SEGGER_SYSVIEW.c ****   RECORD_START(SEGGER_SYSVIEW_INFO_SIZE + 4 * SEGGER_SYSVIEW_QUANTA_U32);
1595:systemview/SEGGER_SYSVIEW.c ****   //
1596:systemview/SEGGER_SYSVIEW.c ****   pPayload = pPayloadStart;
1597:systemview/SEGGER_SYSVIEW.c ****   ENCODE_U32(pPayload, Para0);
1598:systemview/SEGGER_SYSVIEW.c ****   ENCODE_U32(pPayload, Para1);
1599:systemview/SEGGER_SYSVIEW.c ****   ENCODE_U32(pPayload, Para2);
1600:systemview/SEGGER_SYSVIEW.c ****   ENCODE_U32(pPayload, Para3);
1601:systemview/SEGGER_SYSVIEW.c ****   _SendPacket(pPayloadStart, pPayload, EventID);
1602:systemview/SEGGER_SYSVIEW.c ****   RECORD_END();
1603:systemview/SEGGER_SYSVIEW.c **** }
1604:systemview/SEGGER_SYSVIEW.c **** 
1605:systemview/SEGGER_SYSVIEW.c **** /*********************************************************************
1606:systemview/SEGGER_SYSVIEW.c **** *
1607:systemview/SEGGER_SYSVIEW.c **** *       SEGGER_SYSVIEW_RecordU32x5()
ARM GAS  C:\Users\20398\AppData\Local\Temp\cchI1MdI.s 			page 40


1608:systemview/SEGGER_SYSVIEW.c **** *
1609:systemview/SEGGER_SYSVIEW.c **** *  Function description
1610:systemview/SEGGER_SYSVIEW.c **** *    Formats and sends a SystemView packet containing 5 U32 parameter payload.
1611:systemview/SEGGER_SYSVIEW.c **** *
1612:systemview/SEGGER_SYSVIEW.c **** *  Parameters
1613:systemview/SEGGER_SYSVIEW.c **** *    EventID - SystemView event ID.
1614:systemview/SEGGER_SYSVIEW.c **** *    Para0   - The 32-bit parameter encoded to SystemView packet payload.
1615:systemview/SEGGER_SYSVIEW.c **** *    Para1   - The 32-bit parameter encoded to SystemView packet payload.
1616:systemview/SEGGER_SYSVIEW.c **** *    Para2   - The 32-bit parameter encoded to SystemView packet payload.
1617:systemview/SEGGER_SYSVIEW.c **** *    Para3   - The 32-bit parameter encoded to SystemView packet payload.
1618:systemview/SEGGER_SYSVIEW.c **** *    Para4   - The 32-bit parameter encoded to SystemView packet payload.
1619:systemview/SEGGER_SYSVIEW.c **** */
1620:systemview/SEGGER_SYSVIEW.c **** void SEGGER_SYSVIEW_RecordU32x5(unsigned int EventID, U32 Para0, U32 Para1, U32 Para2, U32 Para3, U
1621:systemview/SEGGER_SYSVIEW.c ****   U8* pPayload;
1622:systemview/SEGGER_SYSVIEW.c ****   U8* pPayloadStart;
1623:systemview/SEGGER_SYSVIEW.c ****   RECORD_START(SEGGER_SYSVIEW_INFO_SIZE + 5 * SEGGER_SYSVIEW_QUANTA_U32);
1624:systemview/SEGGER_SYSVIEW.c ****   //
1625:systemview/SEGGER_SYSVIEW.c ****   pPayload = pPayloadStart;
1626:systemview/SEGGER_SYSVIEW.c ****   ENCODE_U32(pPayload, Para0);
1627:systemview/SEGGER_SYSVIEW.c ****   ENCODE_U32(pPayload, Para1);
1628:systemview/SEGGER_SYSVIEW.c ****   ENCODE_U32(pPayload, Para2);
1629:systemview/SEGGER_SYSVIEW.c ****   ENCODE_U32(pPayload, Para3);
1630:systemview/SEGGER_SYSVIEW.c ****   ENCODE_U32(pPayload, Para4);
1631:systemview/SEGGER_SYSVIEW.c ****   _SendPacket(pPayloadStart, pPayload, EventID);
1632:systemview/SEGGER_SYSVIEW.c ****   RECORD_END();
1633:systemview/SEGGER_SYSVIEW.c **** }
1634:systemview/SEGGER_SYSVIEW.c **** 
1635:systemview/SEGGER_SYSVIEW.c **** /*********************************************************************
1636:systemview/SEGGER_SYSVIEW.c **** *
1637:systemview/SEGGER_SYSVIEW.c **** *       SEGGER_SYSVIEW_RecordU32x6()
1638:systemview/SEGGER_SYSVIEW.c **** *
1639:systemview/SEGGER_SYSVIEW.c **** *  Function description
1640:systemview/SEGGER_SYSVIEW.c **** *    Formats and sends a SystemView packet containing 6 U32 parameter payload.
1641:systemview/SEGGER_SYSVIEW.c **** *
1642:systemview/SEGGER_SYSVIEW.c **** *  Parameters
1643:systemview/SEGGER_SYSVIEW.c **** *    EventID - SystemView event ID.
1644:systemview/SEGGER_SYSVIEW.c **** *    Para0   - The 32-bit parameter encoded to SystemView packet payload.
1645:systemview/SEGGER_SYSVIEW.c **** *    Para1   - The 32-bit parameter encoded to SystemView packet payload.
1646:systemview/SEGGER_SYSVIEW.c **** *    Para2   - The 32-bit parameter encoded to SystemView packet payload.
1647:systemview/SEGGER_SYSVIEW.c **** *    Para3   - The 32-bit parameter encoded to SystemView packet payload.
1648:systemview/SEGGER_SYSVIEW.c **** *    Para4   - The 32-bit parameter encoded to SystemView packet payload.
1649:systemview/SEGGER_SYSVIEW.c **** *    Para5   - The 32-bit parameter encoded to SystemView packet payload.
1650:systemview/SEGGER_SYSVIEW.c **** */
1651:systemview/SEGGER_SYSVIEW.c **** void SEGGER_SYSVIEW_RecordU32x6(unsigned int EventID, U32 Para0, U32 Para1, U32 Para2, U32 Para3, U
1652:systemview/SEGGER_SYSVIEW.c ****   U8* pPayload;
1653:systemview/SEGGER_SYSVIEW.c ****   U8* pPayloadStart;
1654:systemview/SEGGER_SYSVIEW.c ****   RECORD_START(SEGGER_SYSVIEW_INFO_SIZE + 6 * SEGGER_SYSVIEW_QUANTA_U32);
1655:systemview/SEGGER_SYSVIEW.c ****   //
1656:systemview/SEGGER_SYSVIEW.c ****   pPayload = pPayloadStart;
1657:systemview/SEGGER_SYSVIEW.c ****   ENCODE_U32(pPayload, Para0);
1658:systemview/SEGGER_SYSVIEW.c ****   ENCODE_U32(pPayload, Para1);
1659:systemview/SEGGER_SYSVIEW.c ****   ENCODE_U32(pPayload, Para2);
1660:systemview/SEGGER_SYSVIEW.c ****   ENCODE_U32(pPayload, Para3);
1661:systemview/SEGGER_SYSVIEW.c ****   ENCODE_U32(pPayload, Para4);
1662:systemview/SEGGER_SYSVIEW.c ****   ENCODE_U32(pPayload, Para5);
1663:systemview/SEGGER_SYSVIEW.c ****   _SendPacket(pPayloadStart, pPayload, EventID);
1664:systemview/SEGGER_SYSVIEW.c ****   RECORD_END();
ARM GAS  C:\Users\20398\AppData\Local\Temp\cchI1MdI.s 			page 41


1665:systemview/SEGGER_SYSVIEW.c **** }
1666:systemview/SEGGER_SYSVIEW.c **** 
1667:systemview/SEGGER_SYSVIEW.c **** /*********************************************************************
1668:systemview/SEGGER_SYSVIEW.c **** *
1669:systemview/SEGGER_SYSVIEW.c **** *       SEGGER_SYSVIEW_RecordU32x7()
1670:systemview/SEGGER_SYSVIEW.c **** *
1671:systemview/SEGGER_SYSVIEW.c **** *  Function description
1672:systemview/SEGGER_SYSVIEW.c **** *    Formats and sends a SystemView packet containing 7 U32 parameter payload.
1673:systemview/SEGGER_SYSVIEW.c **** *
1674:systemview/SEGGER_SYSVIEW.c **** *  Parameters
1675:systemview/SEGGER_SYSVIEW.c **** *    EventID - SystemView event ID.
1676:systemview/SEGGER_SYSVIEW.c **** *    Para0   - The 32-bit parameter encoded to SystemView packet payload.
1677:systemview/SEGGER_SYSVIEW.c **** *    Para1   - The 32-bit parameter encoded to SystemView packet payload.
1678:systemview/SEGGER_SYSVIEW.c **** *    Para2   - The 32-bit parameter encoded to SystemView packet payload.
1679:systemview/SEGGER_SYSVIEW.c **** *    Para3   - The 32-bit parameter encoded to SystemView packet payload.
1680:systemview/SEGGER_SYSVIEW.c **** *    Para4   - The 32-bit parameter encoded to SystemView packet payload.
1681:systemview/SEGGER_SYSVIEW.c **** *    Para5   - The 32-bit parameter encoded to SystemView packet payload.
1682:systemview/SEGGER_SYSVIEW.c **** *    Para6   - The 32-bit parameter encoded to SystemView packet payload.
1683:systemview/SEGGER_SYSVIEW.c **** */
1684:systemview/SEGGER_SYSVIEW.c **** void SEGGER_SYSVIEW_RecordU32x7(unsigned int EventID, U32 Para0, U32 Para1, U32 Para2, U32 Para3, U
1685:systemview/SEGGER_SYSVIEW.c ****   U8* pPayload;
1686:systemview/SEGGER_SYSVIEW.c ****   U8* pPayloadStart;
1687:systemview/SEGGER_SYSVIEW.c ****   RECORD_START(SEGGER_SYSVIEW_INFO_SIZE + 7 * SEGGER_SYSVIEW_QUANTA_U32);
1688:systemview/SEGGER_SYSVIEW.c ****   //
1689:systemview/SEGGER_SYSVIEW.c ****   pPayload = pPayloadStart;
1690:systemview/SEGGER_SYSVIEW.c ****   ENCODE_U32(pPayload, Para0);
1691:systemview/SEGGER_SYSVIEW.c ****   ENCODE_U32(pPayload, Para1);
1692:systemview/SEGGER_SYSVIEW.c ****   ENCODE_U32(pPayload, Para2);
1693:systemview/SEGGER_SYSVIEW.c ****   ENCODE_U32(pPayload, Para3);
1694:systemview/SEGGER_SYSVIEW.c ****   ENCODE_U32(pPayload, Para4);
1695:systemview/SEGGER_SYSVIEW.c ****   ENCODE_U32(pPayload, Para5);
1696:systemview/SEGGER_SYSVIEW.c ****   ENCODE_U32(pPayload, Para6);
1697:systemview/SEGGER_SYSVIEW.c ****   _SendPacket(pPayloadStart, pPayload, EventID);
1698:systemview/SEGGER_SYSVIEW.c ****   RECORD_END();
1699:systemview/SEGGER_SYSVIEW.c **** }
1700:systemview/SEGGER_SYSVIEW.c **** 
1701:systemview/SEGGER_SYSVIEW.c **** /*********************************************************************
1702:systemview/SEGGER_SYSVIEW.c **** *
1703:systemview/SEGGER_SYSVIEW.c **** *       SEGGER_SYSVIEW_RecordU32x8()
1704:systemview/SEGGER_SYSVIEW.c **** *
1705:systemview/SEGGER_SYSVIEW.c **** *  Function description
1706:systemview/SEGGER_SYSVIEW.c **** *    Formats and sends a SystemView packet containing 8 U32 parameter payload.
1707:systemview/SEGGER_SYSVIEW.c **** *
1708:systemview/SEGGER_SYSVIEW.c **** *  Parameters
1709:systemview/SEGGER_SYSVIEW.c **** *    EventID - SystemView event ID.
1710:systemview/SEGGER_SYSVIEW.c **** *    Para0   - The 32-bit parameter encoded to SystemView packet payload.
1711:systemview/SEGGER_SYSVIEW.c **** *    Para1   - The 32-bit parameter encoded to SystemView packet payload.
1712:systemview/SEGGER_SYSVIEW.c **** *    Para2   - The 32-bit parameter encoded to SystemView packet payload.
1713:systemview/SEGGER_SYSVIEW.c **** *    Para3   - The 32-bit parameter encoded to SystemView packet payload.
1714:systemview/SEGGER_SYSVIEW.c **** *    Para4   - The 32-bit parameter encoded to SystemView packet payload.
1715:systemview/SEGGER_SYSVIEW.c **** *    Para5   - The 32-bit parameter encoded to SystemView packet payload.
1716:systemview/SEGGER_SYSVIEW.c **** *    Para6   - The 32-bit parameter encoded to SystemView packet payload.
1717:systemview/SEGGER_SYSVIEW.c **** *    Para7   - The 32-bit parameter encoded to SystemView packet payload.
1718:systemview/SEGGER_SYSVIEW.c **** */
1719:systemview/SEGGER_SYSVIEW.c **** void SEGGER_SYSVIEW_RecordU32x8(unsigned int EventID, U32 Para0, U32 Para1, U32 Para2, U32 Para3, U
1720:systemview/SEGGER_SYSVIEW.c ****   U8* pPayload;
1721:systemview/SEGGER_SYSVIEW.c ****   U8* pPayloadStart;
ARM GAS  C:\Users\20398\AppData\Local\Temp\cchI1MdI.s 			page 42


1722:systemview/SEGGER_SYSVIEW.c ****   RECORD_START(SEGGER_SYSVIEW_INFO_SIZE + 8 * SEGGER_SYSVIEW_QUANTA_U32);
1723:systemview/SEGGER_SYSVIEW.c ****   //
1724:systemview/SEGGER_SYSVIEW.c ****   pPayload = pPayloadStart;
1725:systemview/SEGGER_SYSVIEW.c ****   ENCODE_U32(pPayload, Para0);
1726:systemview/SEGGER_SYSVIEW.c ****   ENCODE_U32(pPayload, Para1);
1727:systemview/SEGGER_SYSVIEW.c ****   ENCODE_U32(pPayload, Para2);
1728:systemview/SEGGER_SYSVIEW.c ****   ENCODE_U32(pPayload, Para3);
1729:systemview/SEGGER_SYSVIEW.c ****   ENCODE_U32(pPayload, Para4);
1730:systemview/SEGGER_SYSVIEW.c ****   ENCODE_U32(pPayload, Para5);
1731:systemview/SEGGER_SYSVIEW.c ****   ENCODE_U32(pPayload, Para6);
1732:systemview/SEGGER_SYSVIEW.c ****   ENCODE_U32(pPayload, Para7);
1733:systemview/SEGGER_SYSVIEW.c ****   _SendPacket(pPayloadStart, pPayload, EventID);
1734:systemview/SEGGER_SYSVIEW.c ****   RECORD_END();
1735:systemview/SEGGER_SYSVIEW.c **** }
1736:systemview/SEGGER_SYSVIEW.c **** 
1737:systemview/SEGGER_SYSVIEW.c **** /*********************************************************************
1738:systemview/SEGGER_SYSVIEW.c **** *
1739:systemview/SEGGER_SYSVIEW.c **** *       SEGGER_SYSVIEW_RecordU32x9()
1740:systemview/SEGGER_SYSVIEW.c **** *
1741:systemview/SEGGER_SYSVIEW.c **** *  Function description
1742:systemview/SEGGER_SYSVIEW.c **** *    Formats and sends a SystemView packet containing 9 U32 parameter payload.
1743:systemview/SEGGER_SYSVIEW.c **** *
1744:systemview/SEGGER_SYSVIEW.c **** *  Parameters
1745:systemview/SEGGER_SYSVIEW.c **** *    EventID - SystemView event ID.
1746:systemview/SEGGER_SYSVIEW.c **** *    Para0   - The 32-bit parameter encoded to SystemView packet payload.
1747:systemview/SEGGER_SYSVIEW.c **** *    Para1   - The 32-bit parameter encoded to SystemView packet payload.
1748:systemview/SEGGER_SYSVIEW.c **** *    Para2   - The 32-bit parameter encoded to SystemView packet payload.
1749:systemview/SEGGER_SYSVIEW.c **** *    Para3   - The 32-bit parameter encoded to SystemView packet payload.
1750:systemview/SEGGER_SYSVIEW.c **** *    Para4   - The 32-bit parameter encoded to SystemView packet payload.
1751:systemview/SEGGER_SYSVIEW.c **** *    Para5   - The 32-bit parameter encoded to SystemView packet payload.
1752:systemview/SEGGER_SYSVIEW.c **** *    Para6   - The 32-bit parameter encoded to SystemView packet payload.
1753:systemview/SEGGER_SYSVIEW.c **** *    Para7   - The 32-bit parameter encoded to SystemView packet payload.
1754:systemview/SEGGER_SYSVIEW.c **** *    Para8   - The 32-bit parameter encoded to SystemView packet payload.
1755:systemview/SEGGER_SYSVIEW.c **** */
1756:systemview/SEGGER_SYSVIEW.c **** void SEGGER_SYSVIEW_RecordU32x9(unsigned int EventID, U32 Para0, U32 Para1, U32 Para2, U32 Para3, U
1757:systemview/SEGGER_SYSVIEW.c ****   U8* pPayload;
1758:systemview/SEGGER_SYSVIEW.c ****   U8* pPayloadStart;
1759:systemview/SEGGER_SYSVIEW.c ****   RECORD_START(SEGGER_SYSVIEW_INFO_SIZE + 9 * SEGGER_SYSVIEW_QUANTA_U32);
1760:systemview/SEGGER_SYSVIEW.c ****   //
1761:systemview/SEGGER_SYSVIEW.c ****   pPayload = pPayloadStart;
1762:systemview/SEGGER_SYSVIEW.c ****   ENCODE_U32(pPayload, Para0);
1763:systemview/SEGGER_SYSVIEW.c ****   ENCODE_U32(pPayload, Para1);
1764:systemview/SEGGER_SYSVIEW.c ****   ENCODE_U32(pPayload, Para2);
1765:systemview/SEGGER_SYSVIEW.c ****   ENCODE_U32(pPayload, Para3);
1766:systemview/SEGGER_SYSVIEW.c ****   ENCODE_U32(pPayload, Para4);
1767:systemview/SEGGER_SYSVIEW.c ****   ENCODE_U32(pPayload, Para5);
1768:systemview/SEGGER_SYSVIEW.c ****   ENCODE_U32(pPayload, Para6);
1769:systemview/SEGGER_SYSVIEW.c ****   ENCODE_U32(pPayload, Para7);
1770:systemview/SEGGER_SYSVIEW.c ****   ENCODE_U32(pPayload, Para8);
1771:systemview/SEGGER_SYSVIEW.c ****   _SendPacket(pPayloadStart, pPayload, EventID);
1772:systemview/SEGGER_SYSVIEW.c ****   RECORD_END();
1773:systemview/SEGGER_SYSVIEW.c **** }
1774:systemview/SEGGER_SYSVIEW.c **** 
1775:systemview/SEGGER_SYSVIEW.c **** /*********************************************************************
1776:systemview/SEGGER_SYSVIEW.c **** *
1777:systemview/SEGGER_SYSVIEW.c **** *       SEGGER_SYSVIEW_RecordU32x10()
1778:systemview/SEGGER_SYSVIEW.c **** *
ARM GAS  C:\Users\20398\AppData\Local\Temp\cchI1MdI.s 			page 43


1779:systemview/SEGGER_SYSVIEW.c **** *  Function description
1780:systemview/SEGGER_SYSVIEW.c **** *    Formats and sends a SystemView packet containing 10 U32 parameter payload.
1781:systemview/SEGGER_SYSVIEW.c **** *
1782:systemview/SEGGER_SYSVIEW.c **** *  Parameters
1783:systemview/SEGGER_SYSVIEW.c **** *    EventID - SystemView event ID.
1784:systemview/SEGGER_SYSVIEW.c **** *    Para0   - The 32-bit parameter encoded to SystemView packet payload.
1785:systemview/SEGGER_SYSVIEW.c **** *    Para1   - The 32-bit parameter encoded to SystemView packet payload.
1786:systemview/SEGGER_SYSVIEW.c **** *    Para2   - The 32-bit parameter encoded to SystemView packet payload.
1787:systemview/SEGGER_SYSVIEW.c **** *    Para3   - The 32-bit parameter encoded to SystemView packet payload.
1788:systemview/SEGGER_SYSVIEW.c **** *    Para4   - The 32-bit parameter encoded to SystemView packet payload.
1789:systemview/SEGGER_SYSVIEW.c **** *    Para5   - The 32-bit parameter encoded to SystemView packet payload.
1790:systemview/SEGGER_SYSVIEW.c **** *    Para6   - The 32-bit parameter encoded to SystemView packet payload.
1791:systemview/SEGGER_SYSVIEW.c **** *    Para7   - The 32-bit parameter encoded to SystemView packet payload.
1792:systemview/SEGGER_SYSVIEW.c **** *    Para8   - The 32-bit parameter encoded to SystemView packet payload.
1793:systemview/SEGGER_SYSVIEW.c **** *    Para9   - The 32-bit parameter encoded to SystemView packet payload.
1794:systemview/SEGGER_SYSVIEW.c **** */
1795:systemview/SEGGER_SYSVIEW.c **** void SEGGER_SYSVIEW_RecordU32x10(unsigned int EventID, U32 Para0, U32 Para1, U32 Para2, U32 Para3, 
1796:systemview/SEGGER_SYSVIEW.c ****   U8* pPayload;
1797:systemview/SEGGER_SYSVIEW.c ****   U8* pPayloadStart;
1798:systemview/SEGGER_SYSVIEW.c ****   RECORD_START(SEGGER_SYSVIEW_INFO_SIZE + 10 * SEGGER_SYSVIEW_QUANTA_U32);
1799:systemview/SEGGER_SYSVIEW.c ****   //
1800:systemview/SEGGER_SYSVIEW.c ****   pPayload = pPayloadStart;
1801:systemview/SEGGER_SYSVIEW.c ****   ENCODE_U32(pPayload, Para0);
1802:systemview/SEGGER_SYSVIEW.c ****   ENCODE_U32(pPayload, Para1);
1803:systemview/SEGGER_SYSVIEW.c ****   ENCODE_U32(pPayload, Para2);
1804:systemview/SEGGER_SYSVIEW.c ****   ENCODE_U32(pPayload, Para3);
1805:systemview/SEGGER_SYSVIEW.c ****   ENCODE_U32(pPayload, Para4);
1806:systemview/SEGGER_SYSVIEW.c ****   ENCODE_U32(pPayload, Para5);
1807:systemview/SEGGER_SYSVIEW.c ****   ENCODE_U32(pPayload, Para6);
1808:systemview/SEGGER_SYSVIEW.c ****   ENCODE_U32(pPayload, Para7);
1809:systemview/SEGGER_SYSVIEW.c ****   ENCODE_U32(pPayload, Para8);
1810:systemview/SEGGER_SYSVIEW.c ****   ENCODE_U32(pPayload, Para9);
1811:systemview/SEGGER_SYSVIEW.c ****   _SendPacket(pPayloadStart, pPayload, EventID);
1812:systemview/SEGGER_SYSVIEW.c ****   RECORD_END();
1813:systemview/SEGGER_SYSVIEW.c **** }
1814:systemview/SEGGER_SYSVIEW.c **** /*********************************************************************
1815:systemview/SEGGER_SYSVIEW.c **** *
1816:systemview/SEGGER_SYSVIEW.c **** *       SEGGER_SYSVIEW_RecordString()
1817:systemview/SEGGER_SYSVIEW.c **** *
1818:systemview/SEGGER_SYSVIEW.c **** *  Function description
1819:systemview/SEGGER_SYSVIEW.c **** *    Formats and sends a SystemView packet containing a string.
1820:systemview/SEGGER_SYSVIEW.c **** *
1821:systemview/SEGGER_SYSVIEW.c **** *  Parameters
1822:systemview/SEGGER_SYSVIEW.c **** *    EventID - SystemView event ID.
1823:systemview/SEGGER_SYSVIEW.c **** *    pString - The string to be sent in the SystemView packet payload.
1824:systemview/SEGGER_SYSVIEW.c **** *
1825:systemview/SEGGER_SYSVIEW.c **** *  Additional information
1826:systemview/SEGGER_SYSVIEW.c **** *    The string is encoded as a count byte followed by the contents
1827:systemview/SEGGER_SYSVIEW.c **** *    of the string.
1828:systemview/SEGGER_SYSVIEW.c **** *    No more than SEGGER_SYSVIEW_MAX_STRING_LEN bytes will be encoded to the payload.
1829:systemview/SEGGER_SYSVIEW.c **** */
1830:systemview/SEGGER_SYSVIEW.c **** void SEGGER_SYSVIEW_RecordString(unsigned int EventID, const char* pString) {
1831:systemview/SEGGER_SYSVIEW.c ****   U8* pPayload;
1832:systemview/SEGGER_SYSVIEW.c ****   U8* pPayloadStart;
1833:systemview/SEGGER_SYSVIEW.c ****   RECORD_START(SEGGER_SYSVIEW_INFO_SIZE + 1 + SEGGER_SYSVIEW_MAX_STRING_LEN);
1834:systemview/SEGGER_SYSVIEW.c ****   //
1835:systemview/SEGGER_SYSVIEW.c ****   pPayload = _EncodeStr(pPayloadStart, pString, SEGGER_SYSVIEW_MAX_STRING_LEN);
ARM GAS  C:\Users\20398\AppData\Local\Temp\cchI1MdI.s 			page 44


1836:systemview/SEGGER_SYSVIEW.c ****   _SendPacket(pPayloadStart, pPayload, EventID);
1837:systemview/SEGGER_SYSVIEW.c ****   RECORD_END();
1838:systemview/SEGGER_SYSVIEW.c **** }
1839:systemview/SEGGER_SYSVIEW.c **** 
1840:systemview/SEGGER_SYSVIEW.c **** /*********************************************************************
1841:systemview/SEGGER_SYSVIEW.c **** *
1842:systemview/SEGGER_SYSVIEW.c **** *       SEGGER_SYSVIEW_Start()
1843:systemview/SEGGER_SYSVIEW.c **** *
1844:systemview/SEGGER_SYSVIEW.c **** *  Function description
1845:systemview/SEGGER_SYSVIEW.c **** *    Start recording SystemView events.
1846:systemview/SEGGER_SYSVIEW.c **** *
1847:systemview/SEGGER_SYSVIEW.c **** *    This function is triggered by the SystemView Application on connect.
1848:systemview/SEGGER_SYSVIEW.c **** *    For single-shot or post-mortem mode recording, it needs to be called
1849:systemview/SEGGER_SYSVIEW.c **** *    by the application.
1850:systemview/SEGGER_SYSVIEW.c **** *
1851:systemview/SEGGER_SYSVIEW.c **** *  Additional information
1852:systemview/SEGGER_SYSVIEW.c **** *    This function enables transmission of SystemView packets recorded
1853:systemview/SEGGER_SYSVIEW.c **** *    by subsequent trace calls and records a SystemView Start event.
1854:systemview/SEGGER_SYSVIEW.c **** *
1855:systemview/SEGGER_SYSVIEW.c **** *    As part of start, a SystemView Init packet is sent, containing the system
1856:systemview/SEGGER_SYSVIEW.c **** *    frequency. The list of current tasks, the current system time and the
1857:systemview/SEGGER_SYSVIEW.c **** *    system description string is sent, too.
1858:systemview/SEGGER_SYSVIEW.c **** *
1859:systemview/SEGGER_SYSVIEW.c **** *  Notes
1860:systemview/SEGGER_SYSVIEW.c **** *    SEGGER_SYSVIEW_Start and SEGGER_SYSVIEW_Stop do not nest.
1861:systemview/SEGGER_SYSVIEW.c **** *    When SEGGER_SYSVIEW_CAN_RESTART is 1, each received start command
1862:systemview/SEGGER_SYSVIEW.c **** *    records the system information. This is required to enable restart
1863:systemview/SEGGER_SYSVIEW.c **** *    of recordings when SystemView unexpectedly disconnects without sending
1864:systemview/SEGGER_SYSVIEW.c **** *    a stop command before.
1865:systemview/SEGGER_SYSVIEW.c **** */
1866:systemview/SEGGER_SYSVIEW.c **** void SEGGER_SYSVIEW_Start(void) {
1867:systemview/SEGGER_SYSVIEW.c **** #if (SEGGER_SYSVIEW_CAN_RESTART == 0)
1868:systemview/SEGGER_SYSVIEW.c ****   if (_SYSVIEW_Globals.EnableState == 0) {
1869:systemview/SEGGER_SYSVIEW.c **** #endif
1870:systemview/SEGGER_SYSVIEW.c ****     _SYSVIEW_Globals.EnableState = 1;
1871:systemview/SEGGER_SYSVIEW.c **** #if (SEGGER_SYSVIEW_POST_MORTEM_MODE == 1)
1872:systemview/SEGGER_SYSVIEW.c ****     _SendSyncInfo();
1873:systemview/SEGGER_SYSVIEW.c **** #else
1874:systemview/SEGGER_SYSVIEW.c ****     SEGGER_SYSVIEW_LOCK();
1875:systemview/SEGGER_SYSVIEW.c ****     SEGGER_RTT_WriteSkipNoLock(CHANNEL_ID_UP, _abSync, 10);
1876:systemview/SEGGER_SYSVIEW.c ****     SEGGER_SYSVIEW_UNLOCK();
1877:systemview/SEGGER_SYSVIEW.c ****     SEGGER_SYSVIEW_ON_EVENT_RECORDED(10);
1878:systemview/SEGGER_SYSVIEW.c ****     SEGGER_SYSVIEW_RecordVoid(SYSVIEW_EVTID_TRACE_START);
1879:systemview/SEGGER_SYSVIEW.c ****     {
1880:systemview/SEGGER_SYSVIEW.c ****       U8* pPayload;
1881:systemview/SEGGER_SYSVIEW.c ****       U8* pPayloadStart;
1882:systemview/SEGGER_SYSVIEW.c ****       RECORD_START(SEGGER_SYSVIEW_INFO_SIZE + 4 * SEGGER_SYSVIEW_QUANTA_U32);
1883:systemview/SEGGER_SYSVIEW.c ****       //
1884:systemview/SEGGER_SYSVIEW.c ****       pPayload = pPayloadStart;
1885:systemview/SEGGER_SYSVIEW.c ****       ENCODE_U32(pPayload, _SYSVIEW_Globals.SysFreq);
1886:systemview/SEGGER_SYSVIEW.c ****       ENCODE_U32(pPayload, _SYSVIEW_Globals.CPUFreq);
1887:systemview/SEGGER_SYSVIEW.c ****       ENCODE_U32(pPayload, _SYSVIEW_Globals.RAMBaseAddress);
1888:systemview/SEGGER_SYSVIEW.c ****       ENCODE_U32(pPayload, SEGGER_SYSVIEW_ID_SHIFT);
1889:systemview/SEGGER_SYSVIEW.c ****       _SendPacket(pPayloadStart, pPayload, SYSVIEW_EVTID_INIT);
1890:systemview/SEGGER_SYSVIEW.c ****       RECORD_END();
1891:systemview/SEGGER_SYSVIEW.c ****     }
1892:systemview/SEGGER_SYSVIEW.c ****     if (_SYSVIEW_Globals.pfSendSysDesc) {
ARM GAS  C:\Users\20398\AppData\Local\Temp\cchI1MdI.s 			page 45


1893:systemview/SEGGER_SYSVIEW.c ****       _SYSVIEW_Globals.pfSendSysDesc();
1894:systemview/SEGGER_SYSVIEW.c ****     }
1895:systemview/SEGGER_SYSVIEW.c ****     SEGGER_SYSVIEW_RecordSystime();
1896:systemview/SEGGER_SYSVIEW.c ****     SEGGER_SYSVIEW_SendTaskList();
1897:systemview/SEGGER_SYSVIEW.c ****     SEGGER_SYSVIEW_SendNumModules();
1898:systemview/SEGGER_SYSVIEW.c **** #endif
1899:systemview/SEGGER_SYSVIEW.c **** #if (SEGGER_SYSVIEW_CAN_RESTART == 0)
1900:systemview/SEGGER_SYSVIEW.c ****   }
1901:systemview/SEGGER_SYSVIEW.c **** #endif
1902:systemview/SEGGER_SYSVIEW.c **** }
1903:systemview/SEGGER_SYSVIEW.c **** 
1904:systemview/SEGGER_SYSVIEW.c **** /*********************************************************************
1905:systemview/SEGGER_SYSVIEW.c **** *
1906:systemview/SEGGER_SYSVIEW.c **** *       SEGGER_SYSVIEW_Stop()
1907:systemview/SEGGER_SYSVIEW.c **** *
1908:systemview/SEGGER_SYSVIEW.c **** *  Function description
1909:systemview/SEGGER_SYSVIEW.c **** *    Stop recording SystemView events.
1910:systemview/SEGGER_SYSVIEW.c **** *
1911:systemview/SEGGER_SYSVIEW.c **** *    This function is triggered by the SystemView Application on disconnect.
1912:systemview/SEGGER_SYSVIEW.c **** *    For single-shot or postmortem mode recording, it can be called
1913:systemview/SEGGER_SYSVIEW.c **** *    by the application.
1914:systemview/SEGGER_SYSVIEW.c **** *
1915:systemview/SEGGER_SYSVIEW.c **** *  Additional information
1916:systemview/SEGGER_SYSVIEW.c **** *    This function disables transmission of SystemView packets recorded
1917:systemview/SEGGER_SYSVIEW.c **** *    by subsequent trace calls.  If transmission is enabled when
1918:systemview/SEGGER_SYSVIEW.c **** *    this function is called, a single SystemView Stop event is recorded
1919:systemview/SEGGER_SYSVIEW.c **** *    to the trace, send, and then trace transmission is halted.
1920:systemview/SEGGER_SYSVIEW.c **** */
1921:systemview/SEGGER_SYSVIEW.c **** void SEGGER_SYSVIEW_Stop(void) {
1922:systemview/SEGGER_SYSVIEW.c ****   U8* pPayloadStart;
1923:systemview/SEGGER_SYSVIEW.c ****   RECORD_START(SEGGER_SYSVIEW_INFO_SIZE);
1924:systemview/SEGGER_SYSVIEW.c ****   //
1925:systemview/SEGGER_SYSVIEW.c ****   if (_SYSVIEW_Globals.EnableState) {
1926:systemview/SEGGER_SYSVIEW.c ****     _SendPacket(pPayloadStart, pPayloadStart, SYSVIEW_EVTID_TRACE_STOP);
1927:systemview/SEGGER_SYSVIEW.c ****     _SYSVIEW_Globals.EnableState = 0;
1928:systemview/SEGGER_SYSVIEW.c ****   }
1929:systemview/SEGGER_SYSVIEW.c ****   RECORD_END();
1930:systemview/SEGGER_SYSVIEW.c **** }
1931:systemview/SEGGER_SYSVIEW.c **** 
1932:systemview/SEGGER_SYSVIEW.c **** /*********************************************************************
1933:systemview/SEGGER_SYSVIEW.c **** *
1934:systemview/SEGGER_SYSVIEW.c **** *       SEGGER_SYSVIEW_GetChannelID()
1935:systemview/SEGGER_SYSVIEW.c **** *
1936:systemview/SEGGER_SYSVIEW.c **** *  Function description
1937:systemview/SEGGER_SYSVIEW.c **** *    Returns the RTT <Up> / <Down> channel ID used by SystemView.
1938:systemview/SEGGER_SYSVIEW.c **** */
1939:systemview/SEGGER_SYSVIEW.c **** int SEGGER_SYSVIEW_GetChannelID(void) {
 605              		.loc 1 1939 39 is_stmt 1 view -0
 606              		.cfi_startproc
 607              		@ args = 0, pretend = 0, frame = 0
 608              		@ frame_needed = 0, uses_anonymous_args = 0
 609              		@ link register save eliminated.
1940:systemview/SEGGER_SYSVIEW.c ****   return CHANNEL_ID_UP;
 610              		.loc 1 1940 3 view .LVU191
1941:systemview/SEGGER_SYSVIEW.c **** }
 611              		.loc 1 1941 1 is_stmt 0 view .LVU192
 612 0000 014B     		ldr	r3, .L41
ARM GAS  C:\Users\20398\AppData\Local\Temp\cchI1MdI.s 			page 46


 613 0002 5878     		ldrb	r0, [r3, #1]	@ zero_extendqisi2
 614 0004 7047     		bx	lr
 615              	.L42:
 616 0006 00BF     		.align	2
 617              	.L41:
 618 0008 00000000 		.word	.LANCHOR0
 619              		.cfi_endproc
 620              	.LFE28:
 622              		.section	.text.SEGGER_SYSVIEW_SendStackInfo,"ax",%progbits
 623              		.align	1
 624              		.global	SEGGER_SYSVIEW_SendStackInfo
 625              		.syntax unified
 626              		.thumb
 627              		.thumb_func
 629              	SEGGER_SYSVIEW_SendStackInfo:
 630              	.LVL62:
 631              	.LFB31:
1942:systemview/SEGGER_SYSVIEW.c **** 
1943:systemview/SEGGER_SYSVIEW.c **** /*********************************************************************
1944:systemview/SEGGER_SYSVIEW.c **** *
1945:systemview/SEGGER_SYSVIEW.c **** *       SEGGER_SYSVIEW_GetSysDesc()
1946:systemview/SEGGER_SYSVIEW.c **** *
1947:systemview/SEGGER_SYSVIEW.c **** *  Function description
1948:systemview/SEGGER_SYSVIEW.c **** *    Triggers a send of the system information and description.
1949:systemview/SEGGER_SYSVIEW.c **** *
1950:systemview/SEGGER_SYSVIEW.c **** */
1951:systemview/SEGGER_SYSVIEW.c **** void SEGGER_SYSVIEW_GetSysDesc(void) {
1952:systemview/SEGGER_SYSVIEW.c ****   U8* pPayload;
1953:systemview/SEGGER_SYSVIEW.c ****   U8* pPayloadStart;
1954:systemview/SEGGER_SYSVIEW.c ****   RECORD_START(SEGGER_SYSVIEW_INFO_SIZE + 4 * SEGGER_SYSVIEW_QUANTA_U32);
1955:systemview/SEGGER_SYSVIEW.c ****   //
1956:systemview/SEGGER_SYSVIEW.c ****   pPayload = pPayloadStart;
1957:systemview/SEGGER_SYSVIEW.c ****   ENCODE_U32(pPayload, _SYSVIEW_Globals.SysFreq);
1958:systemview/SEGGER_SYSVIEW.c ****   ENCODE_U32(pPayload, _SYSVIEW_Globals.CPUFreq);
1959:systemview/SEGGER_SYSVIEW.c ****   ENCODE_U32(pPayload, _SYSVIEW_Globals.RAMBaseAddress);
1960:systemview/SEGGER_SYSVIEW.c ****   ENCODE_U32(pPayload, SEGGER_SYSVIEW_ID_SHIFT);
1961:systemview/SEGGER_SYSVIEW.c ****   _SendPacket(pPayloadStart, pPayload, SYSVIEW_EVTID_INIT);
1962:systemview/SEGGER_SYSVIEW.c ****   RECORD_END();
1963:systemview/SEGGER_SYSVIEW.c ****   if (_SYSVIEW_Globals.pfSendSysDesc) {
1964:systemview/SEGGER_SYSVIEW.c ****     _SYSVIEW_Globals.pfSendSysDesc();
1965:systemview/SEGGER_SYSVIEW.c ****   }
1966:systemview/SEGGER_SYSVIEW.c **** }
1967:systemview/SEGGER_SYSVIEW.c **** 
1968:systemview/SEGGER_SYSVIEW.c **** /*********************************************************************
1969:systemview/SEGGER_SYSVIEW.c **** *
1970:systemview/SEGGER_SYSVIEW.c **** *       SEGGER_SYSVIEW_SendTaskInfo()
1971:systemview/SEGGER_SYSVIEW.c **** *
1972:systemview/SEGGER_SYSVIEW.c **** *  Function description
1973:systemview/SEGGER_SYSVIEW.c **** *    Send a Task Info Packet, containing TaskId for identification,
1974:systemview/SEGGER_SYSVIEW.c **** *    task priority and task name.
1975:systemview/SEGGER_SYSVIEW.c **** *
1976:systemview/SEGGER_SYSVIEW.c **** *  Parameters
1977:systemview/SEGGER_SYSVIEW.c **** *    pInfo - Pointer to task information to send.
1978:systemview/SEGGER_SYSVIEW.c **** */
1979:systemview/SEGGER_SYSVIEW.c **** void SEGGER_SYSVIEW_SendTaskInfo(const SEGGER_SYSVIEW_TASKINFO *pInfo) {
1980:systemview/SEGGER_SYSVIEW.c ****   U8* pPayload;
1981:systemview/SEGGER_SYSVIEW.c ****   U8* pPayloadStart;
ARM GAS  C:\Users\20398\AppData\Local\Temp\cchI1MdI.s 			page 47


1982:systemview/SEGGER_SYSVIEW.c ****   RECORD_START(SEGGER_SYSVIEW_INFO_SIZE + SEGGER_SYSVIEW_QUANTA_U32 + 1 + 32);
1983:systemview/SEGGER_SYSVIEW.c ****   //
1984:systemview/SEGGER_SYSVIEW.c ****   pPayload = pPayloadStart;
1985:systemview/SEGGER_SYSVIEW.c ****   ENCODE_U32(pPayload, SHRINK_ID(pInfo->TaskID));
1986:systemview/SEGGER_SYSVIEW.c ****   ENCODE_U32(pPayload, pInfo->Prio);
1987:systemview/SEGGER_SYSVIEW.c ****   pPayload = _EncodeStr(pPayload, pInfo->sName, 32);
1988:systemview/SEGGER_SYSVIEW.c ****   _SendPacket(pPayloadStart, pPayload, SYSVIEW_EVTID_TASK_INFO);
1989:systemview/SEGGER_SYSVIEW.c ****   //
1990:systemview/SEGGER_SYSVIEW.c ****   pPayload = pPayloadStart;
1991:systemview/SEGGER_SYSVIEW.c ****   ENCODE_U32(pPayload, SHRINK_ID(pInfo->TaskID));
1992:systemview/SEGGER_SYSVIEW.c ****   ENCODE_U32(pPayload, pInfo->StackBase);
1993:systemview/SEGGER_SYSVIEW.c ****   ENCODE_U32(pPayload, pInfo->StackSize);
1994:systemview/SEGGER_SYSVIEW.c ****   ENCODE_U32(pPayload, pInfo->StackUsage);
1995:systemview/SEGGER_SYSVIEW.c ****   _SendPacket(pPayloadStart, pPayload, SYSVIEW_EVTID_STACK_INFO);
1996:systemview/SEGGER_SYSVIEW.c ****   RECORD_END();
1997:systemview/SEGGER_SYSVIEW.c **** }
1998:systemview/SEGGER_SYSVIEW.c **** 
1999:systemview/SEGGER_SYSVIEW.c **** /*********************************************************************
2000:systemview/SEGGER_SYSVIEW.c **** *
2001:systemview/SEGGER_SYSVIEW.c **** *       SEGGER_SYSVIEW_SendStackInfo()
2002:systemview/SEGGER_SYSVIEW.c **** *
2003:systemview/SEGGER_SYSVIEW.c **** *  Function description
2004:systemview/SEGGER_SYSVIEW.c **** *    Send a Stack Info Packet, containing TaskId for identification,
2005:systemview/SEGGER_SYSVIEW.c **** *    stack base, stack size and stack usage. 
2006:systemview/SEGGER_SYSVIEW.c **** *    
2007:systemview/SEGGER_SYSVIEW.c **** *
2008:systemview/SEGGER_SYSVIEW.c **** *  Parameters
2009:systemview/SEGGER_SYSVIEW.c **** *    pInfo - Pointer to stack information to send.
2010:systemview/SEGGER_SYSVIEW.c **** */
2011:systemview/SEGGER_SYSVIEW.c **** void SEGGER_SYSVIEW_SendStackInfo(const SEGGER_SYSVIEW_STACKINFO *pInfo) {
 632              		.loc 1 2011 74 is_stmt 1 view -0
 633              		.cfi_startproc
 634              		@ args = 0, pretend = 0, frame = 0
 635              		@ frame_needed = 0, uses_anonymous_args = 0
 636              		.loc 1 2011 74 is_stmt 0 view .LVU194
 637 0000 38B5     		push	{r3, r4, r5, lr}
 638              	.LCFI12:
 639              		.cfi_def_cfa_offset 16
 640              		.cfi_offset 3, -16
 641              		.cfi_offset 4, -12
 642              		.cfi_offset 5, -8
 643              		.cfi_offset 14, -4
 644 0002 0546     		mov	r5, r0
2012:systemview/SEGGER_SYSVIEW.c ****   U8* pPayload;
 645              		.loc 1 2012 3 is_stmt 1 view .LVU195
2013:systemview/SEGGER_SYSVIEW.c ****   U8* pPayloadStart;
 646              		.loc 1 2013 3 view .LVU196
 647              	.LBB4:
2014:systemview/SEGGER_SYSVIEW.c ****   RECORD_START(SEGGER_SYSVIEW_INFO_SIZE + 4 * SEGGER_SYSVIEW_QUANTA_U32);
 648              		.loc 1 2014 3 view .LVU197
 649              		.loc 1 2014 3 view .LVU198
 650              		.syntax unified
 651              	@ 2014 "systemview/SEGGER_SYSVIEW.c" 1
 652 0004 EFF31184 		mrs   r4, basepri  
 653 0008 4FF02001 		mov   r1, #32       
 654 000c 81F31188 		msr   basepri, r1  
 655              		
ARM GAS  C:\Users\20398\AppData\Local\Temp\cchI1MdI.s 			page 48


 656              	@ 0 "" 2
 657              	.LVL63:
 658              		.loc 1 2014 3 view .LVU199
 659              		.loc 1 2014 3 view .LVU200
 660              		.thumb
 661              		.syntax unified
 662 0010 1A48     		ldr	r0, .L53
 663              	.LVL64:
 664              		.loc 1 2014 3 is_stmt 0 view .LVU201
 665 0012 FFF7FEFF 		bl	_PreparePacket
 666              	.LVL65:
 667 0016 0346     		mov	r3, r0
 668              	.LVL66:
 669              		.loc 1 2014 73 is_stmt 1 view .LVU202
2015:systemview/SEGGER_SYSVIEW.c ****   //
2016:systemview/SEGGER_SYSVIEW.c ****   pPayload = pPayloadStart;
 670              		.loc 1 2016 3 view .LVU203
 671              	.LBB5:
2017:systemview/SEGGER_SYSVIEW.c ****   ENCODE_U32(pPayload, SHRINK_ID(pInfo->TaskID));
 672              		.loc 1 2017 3 view .LVU204
 673              		.loc 1 2017 3 view .LVU205
 674              		.loc 1 2017 3 view .LVU206
 675              		.loc 1 2017 3 view .LVU207
 676 0018 2A68     		ldr	r2, [r5]
 677 001a 1949     		ldr	r1, .L53+4
 678 001c 0969     		ldr	r1, [r1, #16]
 679 001e 521A     		subs	r2, r2, r1
 680              	.LVL67:
 681              		.loc 1 2017 3 view .LVU208
 682 0020 04E0     		b	.L44
 683              	.LVL68:
 684              	.L45:
 685              		.loc 1 2017 3 discriminator 3 view .LVU209
 686              		.loc 1 2017 3 is_stmt 0 discriminator 3 view .LVU210
 687 0022 62F07F01 		orn	r1, r2, #127
 688 0026 03F8011B 		strb	r1, [r3], #1
 689              	.LVL69:
 690              		.loc 1 2017 3 is_stmt 1 discriminator 3 view .LVU211
 691 002a D209     		lsrs	r2, r2, #7
 692              	.LVL70:
 693              	.L44:
 694              		.loc 1 2017 3 discriminator 1 view .LVU212
 695 002c 7F2A     		cmp	r2, #127
 696 002e F8D8     		bhi	.L45
 697              		.loc 1 2017 3 discriminator 4 view .LVU213
 698              		.loc 1 2017 3 discriminator 4 view .LVU214
 699              	.LVL71:
 700              		.loc 1 2017 3 is_stmt 0 discriminator 4 view .LVU215
 701 0030 03F8012B 		strb	r2, [r3], #1
 702              	.LVL72:
 703              		.loc 1 2017 3 is_stmt 1 discriminator 4 view .LVU216
 704              		.loc 1 2017 3 is_stmt 0 discriminator 4 view .LVU217
 705              	.LBE5:
 706              		.loc 1 2017 3 is_stmt 1 discriminator 4 view .LVU218
 707              		.loc 1 2017 49 discriminator 4 view .LVU219
 708              	.LBB6:
2018:systemview/SEGGER_SYSVIEW.c ****   ENCODE_U32(pPayload, pInfo->StackBase);
ARM GAS  C:\Users\20398\AppData\Local\Temp\cchI1MdI.s 			page 49


 709              		.loc 1 2018 3 discriminator 4 view .LVU220
 710              		.loc 1 2018 3 discriminator 4 view .LVU221
 711              		.loc 1 2018 3 discriminator 4 view .LVU222
 712              		.loc 1 2018 3 discriminator 4 view .LVU223
 713 0034 6A68     		ldr	r2, [r5, #4]
 714              	.LVL73:
 715              		.loc 1 2018 3 discriminator 4 view .LVU224
 716 0036 04E0     		b	.L46
 717              	.LVL74:
 718              	.L47:
 719              		.loc 1 2018 3 discriminator 3 view .LVU225
 720              		.loc 1 2018 3 is_stmt 0 discriminator 3 view .LVU226
 721 0038 62F07F01 		orn	r1, r2, #127
 722 003c 03F8011B 		strb	r1, [r3], #1
 723              	.LVL75:
 724              		.loc 1 2018 3 is_stmt 1 discriminator 3 view .LVU227
 725 0040 D209     		lsrs	r2, r2, #7
 726              	.LVL76:
 727              	.L46:
 728              		.loc 1 2018 3 discriminator 1 view .LVU228
 729 0042 7F2A     		cmp	r2, #127
 730 0044 F8D8     		bhi	.L47
 731              		.loc 1 2018 3 discriminator 4 view .LVU229
 732              		.loc 1 2018 3 discriminator 4 view .LVU230
 733              	.LVL77:
 734              		.loc 1 2018 3 is_stmt 0 discriminator 4 view .LVU231
 735 0046 03F8012B 		strb	r2, [r3], #1
 736              	.LVL78:
 737              		.loc 1 2018 3 is_stmt 1 discriminator 4 view .LVU232
 738              		.loc 1 2018 3 is_stmt 0 discriminator 4 view .LVU233
 739              	.LBE6:
 740              		.loc 1 2018 3 is_stmt 1 discriminator 4 view .LVU234
 741              		.loc 1 2018 41 discriminator 4 view .LVU235
 742              	.LBB7:
2019:systemview/SEGGER_SYSVIEW.c ****   ENCODE_U32(pPayload, pInfo->StackSize);
 743              		.loc 1 2019 3 discriminator 4 view .LVU236
 744              		.loc 1 2019 3 discriminator 4 view .LVU237
 745              		.loc 1 2019 3 discriminator 4 view .LVU238
 746              		.loc 1 2019 3 discriminator 4 view .LVU239
 747 004a AA68     		ldr	r2, [r5, #8]
 748              	.LVL79:
 749              		.loc 1 2019 3 discriminator 4 view .LVU240
 750 004c 04E0     		b	.L48
 751              	.LVL80:
 752              	.L49:
 753              		.loc 1 2019 3 discriminator 3 view .LVU241
 754              		.loc 1 2019 3 is_stmt 0 discriminator 3 view .LVU242
 755 004e 62F07F01 		orn	r1, r2, #127
 756 0052 03F8011B 		strb	r1, [r3], #1
 757              	.LVL81:
 758              		.loc 1 2019 3 is_stmt 1 discriminator 3 view .LVU243
 759 0056 D209     		lsrs	r2, r2, #7
 760              	.LVL82:
 761              	.L48:
 762              		.loc 1 2019 3 discriminator 1 view .LVU244
 763 0058 7F2A     		cmp	r2, #127
 764 005a F8D8     		bhi	.L49
ARM GAS  C:\Users\20398\AppData\Local\Temp\cchI1MdI.s 			page 50


 765              		.loc 1 2019 3 discriminator 4 view .LVU245
 766              		.loc 1 2019 3 discriminator 4 view .LVU246
 767              	.LVL83:
 768              		.loc 1 2019 3 is_stmt 0 discriminator 4 view .LVU247
 769 005c 03F8012B 		strb	r2, [r3], #1
 770              	.LVL84:
 771              		.loc 1 2019 3 is_stmt 1 discriminator 4 view .LVU248
 772              		.loc 1 2019 3 is_stmt 0 discriminator 4 view .LVU249
 773              	.LBE7:
 774              		.loc 1 2019 3 is_stmt 1 discriminator 4 view .LVU250
 775              		.loc 1 2019 41 discriminator 4 view .LVU251
 776              	.LBB8:
2020:systemview/SEGGER_SYSVIEW.c ****   ENCODE_U32(pPayload, pInfo->StackUsage);
 777              		.loc 1 2020 3 discriminator 4 view .LVU252
 778              		.loc 1 2020 3 discriminator 4 view .LVU253
 779              		.loc 1 2020 3 discriminator 4 view .LVU254
 780              		.loc 1 2020 3 discriminator 4 view .LVU255
 781 0060 EA68     		ldr	r2, [r5, #12]
 782              	.LVL85:
 783              		.loc 1 2020 3 discriminator 4 view .LVU256
 784 0062 04E0     		b	.L50
 785              	.LVL86:
 786              	.L51:
 787              		.loc 1 2020 3 discriminator 3 view .LVU257
 788              		.loc 1 2020 3 is_stmt 0 discriminator 3 view .LVU258
 789 0064 62F07F01 		orn	r1, r2, #127
 790 0068 03F8011B 		strb	r1, [r3], #1
 791              	.LVL87:
 792              		.loc 1 2020 3 is_stmt 1 discriminator 3 view .LVU259
 793 006c D209     		lsrs	r2, r2, #7
 794              	.LVL88:
 795              	.L50:
 796              		.loc 1 2020 3 discriminator 1 view .LVU260
 797 006e 7F2A     		cmp	r2, #127
 798 0070 F8D8     		bhi	.L51
 799              		.loc 1 2020 3 discriminator 4 view .LVU261
 800              		.loc 1 2020 3 discriminator 4 view .LVU262
 801              	.LVL89:
 802              		.loc 1 2020 3 is_stmt 0 discriminator 4 view .LVU263
 803 0072 1A70     		strb	r2, [r3]
 804              		.loc 1 2020 3 is_stmt 1 discriminator 4 view .LVU264
 805              	.LVL90:
 806              		.loc 1 2020 3 is_stmt 0 discriminator 4 view .LVU265
 807              	.LBE8:
 808              		.loc 1 2020 3 is_stmt 1 discriminator 4 view .LVU266
 809              		.loc 1 2020 42 discriminator 4 view .LVU267
2021:systemview/SEGGER_SYSVIEW.c **** 
2022:systemview/SEGGER_SYSVIEW.c ****   RECORD_END();
 810              		.loc 1 2022 3 discriminator 4 view .LVU268
 811              		.syntax unified
 812              	@ 2022 "systemview/SEGGER_SYSVIEW.c" 1
 813 0074 84F31188 		msr   basepri, r4  
 814              		
 815              	@ 0 "" 2
 816              		.thumb
 817              		.syntax unified
 818              	.LBE4:
ARM GAS  C:\Users\20398\AppData\Local\Temp\cchI1MdI.s 			page 51


 819              		.loc 1 2022 15 discriminator 4 view .LVU269
2023:systemview/SEGGER_SYSVIEW.c **** }
 820              		.loc 1 2023 1 is_stmt 0 discriminator 4 view .LVU270
 821 0078 38BD     		pop	{r3, r4, r5, pc}
 822              	.LVL91:
 823              	.L54:
 824              		.loc 1 2023 1 discriminator 4 view .LVU271
 825 007a 00BF     		.align	2
 826              	.L53:
 827 007c 00000000 		.word	.LANCHOR3
 828 0080 00000000 		.word	.LANCHOR0
 829              		.cfi_endproc
 830              	.LFE31:
 832              		.section	.text.SEGGER_SYSVIEW_SendTaskList,"ax",%progbits
 833              		.align	1
 834              		.global	SEGGER_SYSVIEW_SendTaskList
 835              		.syntax unified
 836              		.thumb
 837              		.thumb_func
 839              	SEGGER_SYSVIEW_SendTaskList:
 840              	.LFB33:
2024:systemview/SEGGER_SYSVIEW.c **** 
2025:systemview/SEGGER_SYSVIEW.c **** /*********************************************************************
2026:systemview/SEGGER_SYSVIEW.c **** *
2027:systemview/SEGGER_SYSVIEW.c **** *        SEGGER_SYSVIEW_SampleData()
2028:systemview/SEGGER_SYSVIEW.c **** *
2029:systemview/SEGGER_SYSVIEW.c **** *  Function description
2030:systemview/SEGGER_SYSVIEW.c **** *    Send a Data Sample Packet, containing the data Id and the value. 
2031:systemview/SEGGER_SYSVIEW.c **** *    
2032:systemview/SEGGER_SYSVIEW.c **** *
2033:systemview/SEGGER_SYSVIEW.c **** *  Parameters
2034:systemview/SEGGER_SYSVIEW.c **** *    pInfo - Pointer to data sample struct to send.
2035:systemview/SEGGER_SYSVIEW.c **** */
2036:systemview/SEGGER_SYSVIEW.c **** void SEGGER_SYSVIEW_SampleData(const SEGGER_SYSVIEW_DATA_SAMPLE *pInfo) {
2037:systemview/SEGGER_SYSVIEW.c ****   U8* pPayload;
2038:systemview/SEGGER_SYSVIEW.c ****   U8* pPayloadStart;
2039:systemview/SEGGER_SYSVIEW.c ****   RECORD_START(SEGGER_SYSVIEW_INFO_SIZE + 2 * SEGGER_SYSVIEW_QUANTA_U32);
2040:systemview/SEGGER_SYSVIEW.c ****   //
2041:systemview/SEGGER_SYSVIEW.c ****   pPayload = pPayloadStart;
2042:systemview/SEGGER_SYSVIEW.c ****   ENCODE_U32(pPayload, pInfo->ID);
2043:systemview/SEGGER_SYSVIEW.c ****   pPayload = _EncodeFloat(pPayload, *(pInfo->pValue.pFloat));
2044:systemview/SEGGER_SYSVIEW.c ****   _SendPacket(pPayloadStart, pPayload, SYSVIEW_EVTID_DATA_SAMPLE);
2045:systemview/SEGGER_SYSVIEW.c ****   
2046:systemview/SEGGER_SYSVIEW.c ****   RECORD_END();
2047:systemview/SEGGER_SYSVIEW.c **** }
2048:systemview/SEGGER_SYSVIEW.c **** 
2049:systemview/SEGGER_SYSVIEW.c **** /*********************************************************************
2050:systemview/SEGGER_SYSVIEW.c **** *
2051:systemview/SEGGER_SYSVIEW.c **** *       SEGGER_SYSVIEW_SendTaskList()
2052:systemview/SEGGER_SYSVIEW.c **** *
2053:systemview/SEGGER_SYSVIEW.c **** *  Function description
2054:systemview/SEGGER_SYSVIEW.c **** *    Send all tasks descriptors to the host.
2055:systemview/SEGGER_SYSVIEW.c **** */
2056:systemview/SEGGER_SYSVIEW.c **** void SEGGER_SYSVIEW_SendTaskList(void) {
 841              		.loc 1 2056 40 is_stmt 1 view -0
 842              		.cfi_startproc
 843              		@ args = 0, pretend = 0, frame = 0
ARM GAS  C:\Users\20398\AppData\Local\Temp\cchI1MdI.s 			page 52


 844              		@ frame_needed = 0, uses_anonymous_args = 0
 845 0000 08B5     		push	{r3, lr}
 846              	.LCFI13:
 847              		.cfi_def_cfa_offset 8
 848              		.cfi_offset 3, -8
 849              		.cfi_offset 14, -4
2057:systemview/SEGGER_SYSVIEW.c ****   if (_SYSVIEW_Globals.pOSAPI && _SYSVIEW_Globals.pOSAPI->pfSendTaskList) {
 850              		.loc 1 2057 3 view .LVU273
 851              		.loc 1 2057 23 is_stmt 0 view .LVU274
 852 0002 034B     		ldr	r3, .L58
 853 0004 1B6A     		ldr	r3, [r3, #32]
 854              		.loc 1 2057 6 view .LVU275
 855 0006 13B1     		cbz	r3, .L55
 856              		.loc 1 2057 57 discriminator 1 view .LVU276
 857 0008 5B68     		ldr	r3, [r3, #4]
 858              		.loc 1 2057 31 discriminator 1 view .LVU277
 859 000a 03B1     		cbz	r3, .L55
2058:systemview/SEGGER_SYSVIEW.c ****     _SYSVIEW_Globals.pOSAPI->pfSendTaskList();
 860              		.loc 1 2058 5 is_stmt 1 view .LVU278
 861 000c 9847     		blx	r3
 862              	.LVL92:
 863              	.L55:
2059:systemview/SEGGER_SYSVIEW.c ****   }
2060:systemview/SEGGER_SYSVIEW.c **** }
 864              		.loc 1 2060 1 is_stmt 0 view .LVU279
 865 000e 08BD     		pop	{r3, pc}
 866              	.L59:
 867              		.align	2
 868              	.L58:
 869 0010 00000000 		.word	.LANCHOR0
 870              		.cfi_endproc
 871              	.LFE33:
 873              		.section	.text.SEGGER_SYSVIEW_EncodeU32,"ax",%progbits
 874              		.align	1
 875              		.global	SEGGER_SYSVIEW_EncodeU32
 876              		.syntax unified
 877              		.thumb
 878              		.thumb_func
 880              	SEGGER_SYSVIEW_EncodeU32:
 881              	.LVL93:
 882              	.LFB61:
2061:systemview/SEGGER_SYSVIEW.c **** 
2062:systemview/SEGGER_SYSVIEW.c **** /*********************************************************************
2063:systemview/SEGGER_SYSVIEW.c **** *
2064:systemview/SEGGER_SYSVIEW.c **** *       SEGGER_SYSVIEW_SendSysDesc()
2065:systemview/SEGGER_SYSVIEW.c **** *
2066:systemview/SEGGER_SYSVIEW.c **** *  Function description
2067:systemview/SEGGER_SYSVIEW.c **** *    Send the system description string to the host.
2068:systemview/SEGGER_SYSVIEW.c **** *    The system description is used by the SystemView Application
2069:systemview/SEGGER_SYSVIEW.c **** *    to identify the current application and handle events accordingly.
2070:systemview/SEGGER_SYSVIEW.c **** *
2071:systemview/SEGGER_SYSVIEW.c **** *    The system description is usually called by the system description
2072:systemview/SEGGER_SYSVIEW.c **** *    callback, to ensure it is only sent when the SystemView Application
2073:systemview/SEGGER_SYSVIEW.c **** *    is connected.
2074:systemview/SEGGER_SYSVIEW.c **** *
2075:systemview/SEGGER_SYSVIEW.c **** *  Parameters
2076:systemview/SEGGER_SYSVIEW.c **** *    sSysDesc - Pointer to the 0-terminated system description string.
ARM GAS  C:\Users\20398\AppData\Local\Temp\cchI1MdI.s 			page 53


2077:systemview/SEGGER_SYSVIEW.c **** *
2078:systemview/SEGGER_SYSVIEW.c **** *  Additional information
2079:systemview/SEGGER_SYSVIEW.c **** *    One system description string may not exceed SEGGER_SYSVIEW_MAX_STRING_LEN characters.
2080:systemview/SEGGER_SYSVIEW.c **** *    Multiple description strings can be recorded.
2081:systemview/SEGGER_SYSVIEW.c **** *
2082:systemview/SEGGER_SYSVIEW.c **** *    The Following items can be described in a system description string.
2083:systemview/SEGGER_SYSVIEW.c **** *    Each item is identified by its identifier, followed by '=' and the value.
2084:systemview/SEGGER_SYSVIEW.c **** *    Items are separated by ','.
2085:systemview/SEGGER_SYSVIEW.c **** */
2086:systemview/SEGGER_SYSVIEW.c **** void SEGGER_SYSVIEW_SendSysDesc(const char *sSysDesc) {
2087:systemview/SEGGER_SYSVIEW.c ****   U8* pPayload;
2088:systemview/SEGGER_SYSVIEW.c ****   U8* pPayloadStart;
2089:systemview/SEGGER_SYSVIEW.c ****   RECORD_START(SEGGER_SYSVIEW_INFO_SIZE + 1 + SEGGER_SYSVIEW_MAX_STRING_LEN);
2090:systemview/SEGGER_SYSVIEW.c ****   //
2091:systemview/SEGGER_SYSVIEW.c ****   pPayload = _EncodeStr(pPayloadStart, sSysDesc, SEGGER_SYSVIEW_MAX_STRING_LEN);
2092:systemview/SEGGER_SYSVIEW.c ****   _SendPacket(pPayloadStart, pPayload, SYSVIEW_EVTID_SYSDESC);
2093:systemview/SEGGER_SYSVIEW.c ****   RECORD_END();
2094:systemview/SEGGER_SYSVIEW.c **** }
2095:systemview/SEGGER_SYSVIEW.c **** 
2096:systemview/SEGGER_SYSVIEW.c **** /*********************************************************************
2097:systemview/SEGGER_SYSVIEW.c **** *
2098:systemview/SEGGER_SYSVIEW.c **** *       SEGGER_SYSVIEW_RecordSystime()
2099:systemview/SEGGER_SYSVIEW.c **** *
2100:systemview/SEGGER_SYSVIEW.c **** *  Function description
2101:systemview/SEGGER_SYSVIEW.c **** *    Formats and sends a SystemView Systime containing a single U64 or U32
2102:systemview/SEGGER_SYSVIEW.c **** *    parameter payload.
2103:systemview/SEGGER_SYSVIEW.c **** */
2104:systemview/SEGGER_SYSVIEW.c **** void SEGGER_SYSVIEW_RecordSystime(void) {
2105:systemview/SEGGER_SYSVIEW.c ****   U64 Systime;
2106:systemview/SEGGER_SYSVIEW.c **** 
2107:systemview/SEGGER_SYSVIEW.c ****   if (_SYSVIEW_Globals.pOSAPI && _SYSVIEW_Globals.pOSAPI->pfGetTime) {
2108:systemview/SEGGER_SYSVIEW.c ****     Systime = _SYSVIEW_Globals.pOSAPI->pfGetTime();
2109:systemview/SEGGER_SYSVIEW.c ****     SEGGER_SYSVIEW_RecordU32x2(SYSVIEW_EVTID_SYSTIME_US,
2110:systemview/SEGGER_SYSVIEW.c ****                                (U32)(Systime),
2111:systemview/SEGGER_SYSVIEW.c ****                                (U32)(Systime >> 32));
2112:systemview/SEGGER_SYSVIEW.c ****   } else {
2113:systemview/SEGGER_SYSVIEW.c ****     SEGGER_SYSVIEW_RecordU32(SYSVIEW_EVTID_SYSTIME_CYCLES, SEGGER_SYSVIEW_GET_TIMESTAMP());
2114:systemview/SEGGER_SYSVIEW.c ****   }
2115:systemview/SEGGER_SYSVIEW.c **** }
2116:systemview/SEGGER_SYSVIEW.c **** 
2117:systemview/SEGGER_SYSVIEW.c **** /*********************************************************************
2118:systemview/SEGGER_SYSVIEW.c **** *
2119:systemview/SEGGER_SYSVIEW.c **** *       SEGGER_SYSVIEW_RecordEnterISR()
2120:systemview/SEGGER_SYSVIEW.c **** *
2121:systemview/SEGGER_SYSVIEW.c **** *  Function description
2122:systemview/SEGGER_SYSVIEW.c **** *    Format and send an ISR entry event.
2123:systemview/SEGGER_SYSVIEW.c **** *
2124:systemview/SEGGER_SYSVIEW.c **** *  Additional information
2125:systemview/SEGGER_SYSVIEW.c **** *    Example packets sent
2126:systemview/SEGGER_SYSVIEW.c **** *      02 0F 50              // ISR(15) Enter. Timestamp is 80 (0x50)
2127:systemview/SEGGER_SYSVIEW.c **** */
2128:systemview/SEGGER_SYSVIEW.c **** void SEGGER_SYSVIEW_RecordEnterISR(void) {
2129:systemview/SEGGER_SYSVIEW.c ****   unsigned v;
2130:systemview/SEGGER_SYSVIEW.c ****   U8* pPayload;
2131:systemview/SEGGER_SYSVIEW.c ****   U8* pPayloadStart;
2132:systemview/SEGGER_SYSVIEW.c ****   RECORD_START(SEGGER_SYSVIEW_INFO_SIZE + SEGGER_SYSVIEW_QUANTA_U32);
2133:systemview/SEGGER_SYSVIEW.c ****   //
ARM GAS  C:\Users\20398\AppData\Local\Temp\cchI1MdI.s 			page 54


2134:systemview/SEGGER_SYSVIEW.c ****   pPayload = pPayloadStart;
2135:systemview/SEGGER_SYSVIEW.c ****   v = SEGGER_SYSVIEW_GET_INTERRUPT_ID();
2136:systemview/SEGGER_SYSVIEW.c ****   ENCODE_U32(pPayload, v);
2137:systemview/SEGGER_SYSVIEW.c ****   _SendPacket(pPayloadStart, pPayload, SYSVIEW_EVTID_ISR_ENTER);
2138:systemview/SEGGER_SYSVIEW.c ****   RECORD_END();
2139:systemview/SEGGER_SYSVIEW.c **** }
2140:systemview/SEGGER_SYSVIEW.c **** 
2141:systemview/SEGGER_SYSVIEW.c **** /*********************************************************************
2142:systemview/SEGGER_SYSVIEW.c **** *
2143:systemview/SEGGER_SYSVIEW.c **** *       SEGGER_SYSVIEW_RecordExitISR()
2144:systemview/SEGGER_SYSVIEW.c **** *
2145:systemview/SEGGER_SYSVIEW.c **** *  Function description
2146:systemview/SEGGER_SYSVIEW.c **** *    Format and send an ISR exit event.
2147:systemview/SEGGER_SYSVIEW.c **** *
2148:systemview/SEGGER_SYSVIEW.c **** *  Additional information
2149:systemview/SEGGER_SYSVIEW.c **** *    Format as follows:
2150:systemview/SEGGER_SYSVIEW.c **** *      03 <TimeStamp>        // Max. packet len is 6
2151:systemview/SEGGER_SYSVIEW.c **** *
2152:systemview/SEGGER_SYSVIEW.c **** *    Example packets sent
2153:systemview/SEGGER_SYSVIEW.c **** *      03 20                // ISR Exit. Timestamp is 32 (0x20)
2154:systemview/SEGGER_SYSVIEW.c **** */
2155:systemview/SEGGER_SYSVIEW.c **** void SEGGER_SYSVIEW_RecordExitISR(void) {
2156:systemview/SEGGER_SYSVIEW.c ****   U8* pPayloadStart;
2157:systemview/SEGGER_SYSVIEW.c ****   RECORD_START(SEGGER_SYSVIEW_INFO_SIZE);
2158:systemview/SEGGER_SYSVIEW.c ****   //
2159:systemview/SEGGER_SYSVIEW.c ****   _SendPacket(pPayloadStart, pPayloadStart, SYSVIEW_EVTID_ISR_EXIT);
2160:systemview/SEGGER_SYSVIEW.c ****   RECORD_END();
2161:systemview/SEGGER_SYSVIEW.c **** }
2162:systemview/SEGGER_SYSVIEW.c **** 
2163:systemview/SEGGER_SYSVIEW.c **** /*********************************************************************
2164:systemview/SEGGER_SYSVIEW.c **** *
2165:systemview/SEGGER_SYSVIEW.c **** *       SEGGER_SYSVIEW_RecordExitISRToScheduler()
2166:systemview/SEGGER_SYSVIEW.c **** *
2167:systemview/SEGGER_SYSVIEW.c **** *  Function description
2168:systemview/SEGGER_SYSVIEW.c **** *    Format and send an ISR exit into scheduler event.
2169:systemview/SEGGER_SYSVIEW.c **** *
2170:systemview/SEGGER_SYSVIEW.c **** *  Additional information
2171:systemview/SEGGER_SYSVIEW.c **** *    Format as follows:
2172:systemview/SEGGER_SYSVIEW.c **** *      18 <TimeStamp>        // Max. packet len is 6
2173:systemview/SEGGER_SYSVIEW.c **** *
2174:systemview/SEGGER_SYSVIEW.c **** *    Example packets sent
2175:systemview/SEGGER_SYSVIEW.c **** *      18 20                // ISR Exit to Scheduler. Timestamp is 32 (0x20)
2176:systemview/SEGGER_SYSVIEW.c **** */
2177:systemview/SEGGER_SYSVIEW.c **** void SEGGER_SYSVIEW_RecordExitISRToScheduler(void) {
2178:systemview/SEGGER_SYSVIEW.c ****   U8* pPayloadStart;
2179:systemview/SEGGER_SYSVIEW.c ****   RECORD_START(SEGGER_SYSVIEW_INFO_SIZE);
2180:systemview/SEGGER_SYSVIEW.c ****   //
2181:systemview/SEGGER_SYSVIEW.c ****   _SendPacket(pPayloadStart, pPayloadStart, SYSVIEW_EVTID_ISR_TO_SCHEDULER);
2182:systemview/SEGGER_SYSVIEW.c ****   RECORD_END();
2183:systemview/SEGGER_SYSVIEW.c **** }
2184:systemview/SEGGER_SYSVIEW.c **** 
2185:systemview/SEGGER_SYSVIEW.c **** /*********************************************************************
2186:systemview/SEGGER_SYSVIEW.c **** *
2187:systemview/SEGGER_SYSVIEW.c **** *       SEGGER_SYSVIEW_RecordEnterTimer()
2188:systemview/SEGGER_SYSVIEW.c **** *
2189:systemview/SEGGER_SYSVIEW.c **** *  Function description
2190:systemview/SEGGER_SYSVIEW.c **** *    Format and send a Timer entry event.
ARM GAS  C:\Users\20398\AppData\Local\Temp\cchI1MdI.s 			page 55


2191:systemview/SEGGER_SYSVIEW.c **** *
2192:systemview/SEGGER_SYSVIEW.c **** *  Parameters
2193:systemview/SEGGER_SYSVIEW.c **** *    TimerId - Id of the timer which starts.
2194:systemview/SEGGER_SYSVIEW.c **** */
2195:systemview/SEGGER_SYSVIEW.c **** void SEGGER_SYSVIEW_RecordEnterTimer(U32 TimerId) {
2196:systemview/SEGGER_SYSVIEW.c ****   U8* pPayload;
2197:systemview/SEGGER_SYSVIEW.c ****   U8* pPayloadStart;
2198:systemview/SEGGER_SYSVIEW.c ****   RECORD_START(SEGGER_SYSVIEW_INFO_SIZE + SEGGER_SYSVIEW_QUANTA_U32);
2199:systemview/SEGGER_SYSVIEW.c ****   //
2200:systemview/SEGGER_SYSVIEW.c ****   pPayload = pPayloadStart;
2201:systemview/SEGGER_SYSVIEW.c ****   ENCODE_U32(pPayload, SHRINK_ID(TimerId));
2202:systemview/SEGGER_SYSVIEW.c ****   _SendPacket(pPayloadStart, pPayload, SYSVIEW_EVTID_TIMER_ENTER);
2203:systemview/SEGGER_SYSVIEW.c ****   RECORD_END();
2204:systemview/SEGGER_SYSVIEW.c **** }
2205:systemview/SEGGER_SYSVIEW.c **** 
2206:systemview/SEGGER_SYSVIEW.c **** /*********************************************************************
2207:systemview/SEGGER_SYSVIEW.c **** *
2208:systemview/SEGGER_SYSVIEW.c **** *       SEGGER_SYSVIEW_RecordExitTimer()
2209:systemview/SEGGER_SYSVIEW.c **** *
2210:systemview/SEGGER_SYSVIEW.c **** *  Function description
2211:systemview/SEGGER_SYSVIEW.c **** *    Format and send a Timer exit event.
2212:systemview/SEGGER_SYSVIEW.c **** */
2213:systemview/SEGGER_SYSVIEW.c **** void SEGGER_SYSVIEW_RecordExitTimer(void) {
2214:systemview/SEGGER_SYSVIEW.c ****   U8* pPayloadStart;
2215:systemview/SEGGER_SYSVIEW.c ****   RECORD_START(SEGGER_SYSVIEW_INFO_SIZE);
2216:systemview/SEGGER_SYSVIEW.c ****   //
2217:systemview/SEGGER_SYSVIEW.c ****   _SendPacket(pPayloadStart, pPayloadStart, SYSVIEW_EVTID_TIMER_EXIT);
2218:systemview/SEGGER_SYSVIEW.c ****   RECORD_END();
2219:systemview/SEGGER_SYSVIEW.c **** }
2220:systemview/SEGGER_SYSVIEW.c **** 
2221:systemview/SEGGER_SYSVIEW.c **** /*********************************************************************
2222:systemview/SEGGER_SYSVIEW.c **** *
2223:systemview/SEGGER_SYSVIEW.c **** *       SEGGER_SYSVIEW_RecordEndCall()
2224:systemview/SEGGER_SYSVIEW.c **** *
2225:systemview/SEGGER_SYSVIEW.c **** *  Function description
2226:systemview/SEGGER_SYSVIEW.c **** *    Format and send an End API Call event without return value.
2227:systemview/SEGGER_SYSVIEW.c **** *
2228:systemview/SEGGER_SYSVIEW.c **** *  Parameters
2229:systemview/SEGGER_SYSVIEW.c **** *    EventID - Id of API function which ends.
2230:systemview/SEGGER_SYSVIEW.c **** */
2231:systemview/SEGGER_SYSVIEW.c **** void SEGGER_SYSVIEW_RecordEndCall(unsigned int EventID) {
2232:systemview/SEGGER_SYSVIEW.c ****   U8* pPayload;
2233:systemview/SEGGER_SYSVIEW.c ****   U8* pPayloadStart;
2234:systemview/SEGGER_SYSVIEW.c ****   RECORD_START(SEGGER_SYSVIEW_INFO_SIZE + SEGGER_SYSVIEW_QUANTA_U32);
2235:systemview/SEGGER_SYSVIEW.c ****   //
2236:systemview/SEGGER_SYSVIEW.c ****   pPayload = pPayloadStart;
2237:systemview/SEGGER_SYSVIEW.c ****   ENCODE_U32(pPayload, EventID);
2238:systemview/SEGGER_SYSVIEW.c ****   _SendPacket(pPayloadStart, pPayload, SYSVIEW_EVTID_END_CALL);
2239:systemview/SEGGER_SYSVIEW.c ****   RECORD_END();
2240:systemview/SEGGER_SYSVIEW.c **** }
2241:systemview/SEGGER_SYSVIEW.c **** 
2242:systemview/SEGGER_SYSVIEW.c **** /*********************************************************************
2243:systemview/SEGGER_SYSVIEW.c **** *
2244:systemview/SEGGER_SYSVIEW.c **** *       SEGGER_SYSVIEW_RecordEndCallU32()
2245:systemview/SEGGER_SYSVIEW.c **** *
2246:systemview/SEGGER_SYSVIEW.c **** *  Function description
2247:systemview/SEGGER_SYSVIEW.c **** *    Format and send an End API Call event with return value.
ARM GAS  C:\Users\20398\AppData\Local\Temp\cchI1MdI.s 			page 56


2248:systemview/SEGGER_SYSVIEW.c **** *
2249:systemview/SEGGER_SYSVIEW.c **** *  Parameters
2250:systemview/SEGGER_SYSVIEW.c **** *    EventID      - Id of API function which ends.
2251:systemview/SEGGER_SYSVIEW.c **** *    Para0        - Return value which will be returned by the API function.
2252:systemview/SEGGER_SYSVIEW.c **** */
2253:systemview/SEGGER_SYSVIEW.c **** void SEGGER_SYSVIEW_RecordEndCallU32(unsigned int EventID, U32 Para0) {
2254:systemview/SEGGER_SYSVIEW.c ****   U8* pPayload;
2255:systemview/SEGGER_SYSVIEW.c ****   U8* pPayloadStart;
2256:systemview/SEGGER_SYSVIEW.c ****   RECORD_START(SEGGER_SYSVIEW_INFO_SIZE + 2 * SEGGER_SYSVIEW_QUANTA_U32);
2257:systemview/SEGGER_SYSVIEW.c ****   //
2258:systemview/SEGGER_SYSVIEW.c ****   pPayload = pPayloadStart;
2259:systemview/SEGGER_SYSVIEW.c ****   ENCODE_U32(pPayload, EventID);
2260:systemview/SEGGER_SYSVIEW.c ****   ENCODE_U32(pPayload, Para0);
2261:systemview/SEGGER_SYSVIEW.c ****   _SendPacket(pPayloadStart, pPayload, SYSVIEW_EVTID_END_CALL);
2262:systemview/SEGGER_SYSVIEW.c ****   RECORD_END();
2263:systemview/SEGGER_SYSVIEW.c **** }
2264:systemview/SEGGER_SYSVIEW.c **** 
2265:systemview/SEGGER_SYSVIEW.c **** /*********************************************************************
2266:systemview/SEGGER_SYSVIEW.c **** *
2267:systemview/SEGGER_SYSVIEW.c **** *       SEGGER_SYSVIEW_OnIdle()
2268:systemview/SEGGER_SYSVIEW.c **** *
2269:systemview/SEGGER_SYSVIEW.c **** *  Function description
2270:systemview/SEGGER_SYSVIEW.c **** *    Record an Idle event.
2271:systemview/SEGGER_SYSVIEW.c **** */
2272:systemview/SEGGER_SYSVIEW.c **** void SEGGER_SYSVIEW_OnIdle(void) {
2273:systemview/SEGGER_SYSVIEW.c ****   U8* pPayloadStart;
2274:systemview/SEGGER_SYSVIEW.c ****   RECORD_START(SEGGER_SYSVIEW_INFO_SIZE);
2275:systemview/SEGGER_SYSVIEW.c ****   //
2276:systemview/SEGGER_SYSVIEW.c ****   _SendPacket(pPayloadStart, pPayloadStart, SYSVIEW_EVTID_IDLE);
2277:systemview/SEGGER_SYSVIEW.c ****   RECORD_END();
2278:systemview/SEGGER_SYSVIEW.c **** }
2279:systemview/SEGGER_SYSVIEW.c **** 
2280:systemview/SEGGER_SYSVIEW.c **** /*********************************************************************
2281:systemview/SEGGER_SYSVIEW.c **** *
2282:systemview/SEGGER_SYSVIEW.c **** *       SEGGER_SYSVIEW_OnTaskCreate()
2283:systemview/SEGGER_SYSVIEW.c **** *
2284:systemview/SEGGER_SYSVIEW.c **** *  Function description
2285:systemview/SEGGER_SYSVIEW.c **** *    Record a Task Create event.  The Task Create event corresponds
2286:systemview/SEGGER_SYSVIEW.c **** *    to creating a task in the OS.
2287:systemview/SEGGER_SYSVIEW.c **** *
2288:systemview/SEGGER_SYSVIEW.c **** *  Parameters
2289:systemview/SEGGER_SYSVIEW.c **** *    TaskId        - Task ID of created task.
2290:systemview/SEGGER_SYSVIEW.c **** */
2291:systemview/SEGGER_SYSVIEW.c **** void SEGGER_SYSVIEW_OnTaskCreate(U32 TaskId) {
2292:systemview/SEGGER_SYSVIEW.c ****   U8* pPayload;
2293:systemview/SEGGER_SYSVIEW.c ****   U8* pPayloadStart;
2294:systemview/SEGGER_SYSVIEW.c ****   RECORD_START(SEGGER_SYSVIEW_INFO_SIZE + SEGGER_SYSVIEW_QUANTA_U32);
2295:systemview/SEGGER_SYSVIEW.c ****   //
2296:systemview/SEGGER_SYSVIEW.c ****   pPayload = pPayloadStart;
2297:systemview/SEGGER_SYSVIEW.c ****   TaskId = SHRINK_ID(TaskId);
2298:systemview/SEGGER_SYSVIEW.c ****   ENCODE_U32(pPayload, TaskId);
2299:systemview/SEGGER_SYSVIEW.c ****   _SendPacket(pPayloadStart, pPayload, SYSVIEW_EVTID_TASK_CREATE);
2300:systemview/SEGGER_SYSVIEW.c ****   RECORD_END();
2301:systemview/SEGGER_SYSVIEW.c **** }
2302:systemview/SEGGER_SYSVIEW.c **** 
2303:systemview/SEGGER_SYSVIEW.c **** /*********************************************************************
2304:systemview/SEGGER_SYSVIEW.c **** *
ARM GAS  C:\Users\20398\AppData\Local\Temp\cchI1MdI.s 			page 57


2305:systemview/SEGGER_SYSVIEW.c **** *       SEGGER_SYSVIEW_OnTaskTerminate()
2306:systemview/SEGGER_SYSVIEW.c **** *
2307:systemview/SEGGER_SYSVIEW.c **** *  Function description
2308:systemview/SEGGER_SYSVIEW.c **** *    Record a Task termination event.
2309:systemview/SEGGER_SYSVIEW.c **** *    The Task termination event corresponds to terminating a task in
2310:systemview/SEGGER_SYSVIEW.c **** *    the OS. If the TaskId is the currently active task,
2311:systemview/SEGGER_SYSVIEW.c **** *    SEGGER_SYSVIEW_OnTaskStopExec may be used, either.
2312:systemview/SEGGER_SYSVIEW.c **** *
2313:systemview/SEGGER_SYSVIEW.c **** *  Parameters
2314:systemview/SEGGER_SYSVIEW.c **** *    TaskId        - Task ID of terminated task.
2315:systemview/SEGGER_SYSVIEW.c **** */
2316:systemview/SEGGER_SYSVIEW.c **** void SEGGER_SYSVIEW_OnTaskTerminate(U32 TaskId) {
2317:systemview/SEGGER_SYSVIEW.c ****   U8* pPayload;
2318:systemview/SEGGER_SYSVIEW.c ****   U8* pPayloadStart;
2319:systemview/SEGGER_SYSVIEW.c ****   RECORD_START(SEGGER_SYSVIEW_INFO_SIZE + SEGGER_SYSVIEW_QUANTA_U32);
2320:systemview/SEGGER_SYSVIEW.c ****   //
2321:systemview/SEGGER_SYSVIEW.c ****   pPayload = pPayloadStart;
2322:systemview/SEGGER_SYSVIEW.c ****   TaskId = SHRINK_ID(TaskId);
2323:systemview/SEGGER_SYSVIEW.c ****   ENCODE_U32(pPayload, TaskId);
2324:systemview/SEGGER_SYSVIEW.c ****   _SendPacket(pPayloadStart, pPayload, SYSVIEW_EVTID_TASK_TERMINATE);
2325:systemview/SEGGER_SYSVIEW.c ****   RECORD_END();
2326:systemview/SEGGER_SYSVIEW.c **** }
2327:systemview/SEGGER_SYSVIEW.c **** 
2328:systemview/SEGGER_SYSVIEW.c **** /*********************************************************************
2329:systemview/SEGGER_SYSVIEW.c **** *
2330:systemview/SEGGER_SYSVIEW.c **** *       SEGGER_SYSVIEW_OnTaskStartExec()
2331:systemview/SEGGER_SYSVIEW.c **** *
2332:systemview/SEGGER_SYSVIEW.c **** *  Function description
2333:systemview/SEGGER_SYSVIEW.c **** *    Record a Task Start Execution event.  The Task Start event
2334:systemview/SEGGER_SYSVIEW.c **** *    corresponds to when a task has started to execute rather than
2335:systemview/SEGGER_SYSVIEW.c **** *    when it is ready to execute.
2336:systemview/SEGGER_SYSVIEW.c **** *
2337:systemview/SEGGER_SYSVIEW.c **** *  Parameters
2338:systemview/SEGGER_SYSVIEW.c **** *    TaskId - Task ID of task that started to execute.
2339:systemview/SEGGER_SYSVIEW.c **** */
2340:systemview/SEGGER_SYSVIEW.c **** void SEGGER_SYSVIEW_OnTaskStartExec(U32 TaskId) {
2341:systemview/SEGGER_SYSVIEW.c ****   U8* pPayload;
2342:systemview/SEGGER_SYSVIEW.c ****   U8* pPayloadStart;
2343:systemview/SEGGER_SYSVIEW.c ****   RECORD_START(SEGGER_SYSVIEW_INFO_SIZE + SEGGER_SYSVIEW_QUANTA_U32);
2344:systemview/SEGGER_SYSVIEW.c ****   //
2345:systemview/SEGGER_SYSVIEW.c ****   pPayload = pPayloadStart;
2346:systemview/SEGGER_SYSVIEW.c ****   TaskId = SHRINK_ID(TaskId);
2347:systemview/SEGGER_SYSVIEW.c ****   ENCODE_U32(pPayload, TaskId);
2348:systemview/SEGGER_SYSVIEW.c ****   _SendPacket(pPayloadStart, pPayload, SYSVIEW_EVTID_TASK_START_EXEC);
2349:systemview/SEGGER_SYSVIEW.c ****   RECORD_END();
2350:systemview/SEGGER_SYSVIEW.c **** }
2351:systemview/SEGGER_SYSVIEW.c **** 
2352:systemview/SEGGER_SYSVIEW.c **** /*********************************************************************
2353:systemview/SEGGER_SYSVIEW.c **** *
2354:systemview/SEGGER_SYSVIEW.c **** *       SEGGER_SYSVIEW_OnTaskStopExec()
2355:systemview/SEGGER_SYSVIEW.c **** *
2356:systemview/SEGGER_SYSVIEW.c **** *  Function description
2357:systemview/SEGGER_SYSVIEW.c **** *    Record a Task Stop Execution event.  The Task Stop event
2358:systemview/SEGGER_SYSVIEW.c **** *    corresponds to when a task stops executing and terminates.
2359:systemview/SEGGER_SYSVIEW.c **** */
2360:systemview/SEGGER_SYSVIEW.c **** void SEGGER_SYSVIEW_OnTaskStopExec(void) {
2361:systemview/SEGGER_SYSVIEW.c ****   U8* pPayloadStart;
ARM GAS  C:\Users\20398\AppData\Local\Temp\cchI1MdI.s 			page 58


2362:systemview/SEGGER_SYSVIEW.c ****   RECORD_START(SEGGER_SYSVIEW_INFO_SIZE);
2363:systemview/SEGGER_SYSVIEW.c ****   //
2364:systemview/SEGGER_SYSVIEW.c ****   _SendPacket(pPayloadStart, pPayloadStart, SYSVIEW_EVTID_TASK_STOP_EXEC);
2365:systemview/SEGGER_SYSVIEW.c ****   RECORD_END();
2366:systemview/SEGGER_SYSVIEW.c **** }
2367:systemview/SEGGER_SYSVIEW.c **** 
2368:systemview/SEGGER_SYSVIEW.c **** /*********************************************************************
2369:systemview/SEGGER_SYSVIEW.c **** *
2370:systemview/SEGGER_SYSVIEW.c **** *       SEGGER_SYSVIEW_OnTaskStartReady()
2371:systemview/SEGGER_SYSVIEW.c **** *
2372:systemview/SEGGER_SYSVIEW.c **** *  Function description
2373:systemview/SEGGER_SYSVIEW.c **** *    Record a Task Start Ready event.
2374:systemview/SEGGER_SYSVIEW.c **** *
2375:systemview/SEGGER_SYSVIEW.c **** *  Parameters
2376:systemview/SEGGER_SYSVIEW.c **** *    TaskId - Task ID of task that started to execute.
2377:systemview/SEGGER_SYSVIEW.c **** */
2378:systemview/SEGGER_SYSVIEW.c **** void SEGGER_SYSVIEW_OnTaskStartReady(U32 TaskId) {
2379:systemview/SEGGER_SYSVIEW.c ****   U8* pPayload;
2380:systemview/SEGGER_SYSVIEW.c ****   U8* pPayloadStart;
2381:systemview/SEGGER_SYSVIEW.c ****   RECORD_START(SEGGER_SYSVIEW_INFO_SIZE + SEGGER_SYSVIEW_QUANTA_U32);
2382:systemview/SEGGER_SYSVIEW.c ****   //
2383:systemview/SEGGER_SYSVIEW.c ****   pPayload = pPayloadStart;
2384:systemview/SEGGER_SYSVIEW.c ****   TaskId = SHRINK_ID(TaskId);
2385:systemview/SEGGER_SYSVIEW.c ****   ENCODE_U32(pPayload, TaskId);
2386:systemview/SEGGER_SYSVIEW.c ****   _SendPacket(pPayloadStart, pPayload, SYSVIEW_EVTID_TASK_START_READY);
2387:systemview/SEGGER_SYSVIEW.c ****   RECORD_END();
2388:systemview/SEGGER_SYSVIEW.c **** }
2389:systemview/SEGGER_SYSVIEW.c **** 
2390:systemview/SEGGER_SYSVIEW.c **** /*********************************************************************
2391:systemview/SEGGER_SYSVIEW.c **** *
2392:systemview/SEGGER_SYSVIEW.c **** *       SEGGER_SYSVIEW_OnTaskStopReady()
2393:systemview/SEGGER_SYSVIEW.c **** *
2394:systemview/SEGGER_SYSVIEW.c **** *  Function description
2395:systemview/SEGGER_SYSVIEW.c **** *    Record a Task Stop Ready event.
2396:systemview/SEGGER_SYSVIEW.c **** *
2397:systemview/SEGGER_SYSVIEW.c **** *  Parameters
2398:systemview/SEGGER_SYSVIEW.c **** *    TaskId - Task ID of task that completed execution.
2399:systemview/SEGGER_SYSVIEW.c **** *    Cause  - Reason for task to stop (i.e. Idle/Sleep)
2400:systemview/SEGGER_SYSVIEW.c **** */
2401:systemview/SEGGER_SYSVIEW.c **** void SEGGER_SYSVIEW_OnTaskStopReady(U32 TaskId, unsigned int Cause) {
2402:systemview/SEGGER_SYSVIEW.c ****   U8* pPayload;
2403:systemview/SEGGER_SYSVIEW.c ****   U8* pPayloadStart;
2404:systemview/SEGGER_SYSVIEW.c ****   RECORD_START(SEGGER_SYSVIEW_INFO_SIZE + 2 * SEGGER_SYSVIEW_QUANTA_U32);
2405:systemview/SEGGER_SYSVIEW.c ****   //
2406:systemview/SEGGER_SYSVIEW.c ****   pPayload = pPayloadStart;
2407:systemview/SEGGER_SYSVIEW.c ****   TaskId = SHRINK_ID(TaskId);
2408:systemview/SEGGER_SYSVIEW.c ****   ENCODE_U32(pPayload, TaskId);
2409:systemview/SEGGER_SYSVIEW.c ****   ENCODE_U32(pPayload, Cause);
2410:systemview/SEGGER_SYSVIEW.c ****   _SendPacket(pPayloadStart, pPayload, SYSVIEW_EVTID_TASK_STOP_READY);
2411:systemview/SEGGER_SYSVIEW.c ****   RECORD_END();
2412:systemview/SEGGER_SYSVIEW.c **** }
2413:systemview/SEGGER_SYSVIEW.c **** 
2414:systemview/SEGGER_SYSVIEW.c **** /*********************************************************************
2415:systemview/SEGGER_SYSVIEW.c **** *
2416:systemview/SEGGER_SYSVIEW.c **** *       SEGGER_SYSVIEW_MarkStart()
2417:systemview/SEGGER_SYSVIEW.c **** *
2418:systemview/SEGGER_SYSVIEW.c **** *  Function description
ARM GAS  C:\Users\20398\AppData\Local\Temp\cchI1MdI.s 			page 59


2419:systemview/SEGGER_SYSVIEW.c **** *    Record a Performance Marker Start event to start measuring runtime.
2420:systemview/SEGGER_SYSVIEW.c **** *
2421:systemview/SEGGER_SYSVIEW.c **** *  Parameters
2422:systemview/SEGGER_SYSVIEW.c **** *    MarkerId  - User defined ID for the marker.
2423:systemview/SEGGER_SYSVIEW.c **** */
2424:systemview/SEGGER_SYSVIEW.c **** void SEGGER_SYSVIEW_MarkStart(unsigned MarkerId) {
2425:systemview/SEGGER_SYSVIEW.c ****   U8* pPayload;
2426:systemview/SEGGER_SYSVIEW.c ****   U8* pPayloadStart;
2427:systemview/SEGGER_SYSVIEW.c ****   RECORD_START(SEGGER_SYSVIEW_INFO_SIZE + SEGGER_SYSVIEW_QUANTA_U32);
2428:systemview/SEGGER_SYSVIEW.c ****   //
2429:systemview/SEGGER_SYSVIEW.c ****   pPayload = pPayloadStart;
2430:systemview/SEGGER_SYSVIEW.c ****   ENCODE_U32(pPayload, MarkerId);
2431:systemview/SEGGER_SYSVIEW.c ****   _SendPacket(pPayloadStart, pPayload, SYSVIEW_EVTID_MARK_START);
2432:systemview/SEGGER_SYSVIEW.c ****   RECORD_END();
2433:systemview/SEGGER_SYSVIEW.c **** }
2434:systemview/SEGGER_SYSVIEW.c **** 
2435:systemview/SEGGER_SYSVIEW.c **** /*********************************************************************
2436:systemview/SEGGER_SYSVIEW.c **** *
2437:systemview/SEGGER_SYSVIEW.c **** *       SEGGER_SYSVIEW_MarkStop()
2438:systemview/SEGGER_SYSVIEW.c **** *
2439:systemview/SEGGER_SYSVIEW.c **** *  Function description
2440:systemview/SEGGER_SYSVIEW.c **** *    Record a Performance Marker Stop event to stop measuring runtime.
2441:systemview/SEGGER_SYSVIEW.c **** *
2442:systemview/SEGGER_SYSVIEW.c **** *  Parameters
2443:systemview/SEGGER_SYSVIEW.c **** *    MarkerId  - User defined ID for the marker.
2444:systemview/SEGGER_SYSVIEW.c **** */
2445:systemview/SEGGER_SYSVIEW.c **** void SEGGER_SYSVIEW_MarkStop(unsigned MarkerId) {
2446:systemview/SEGGER_SYSVIEW.c ****   U8 * pPayload;
2447:systemview/SEGGER_SYSVIEW.c ****   U8 * pPayloadStart;
2448:systemview/SEGGER_SYSVIEW.c ****   RECORD_START(SEGGER_SYSVIEW_INFO_SIZE + SEGGER_SYSVIEW_QUANTA_U32);
2449:systemview/SEGGER_SYSVIEW.c ****   //
2450:systemview/SEGGER_SYSVIEW.c ****   pPayload = pPayloadStart;
2451:systemview/SEGGER_SYSVIEW.c ****   ENCODE_U32(pPayload, MarkerId);
2452:systemview/SEGGER_SYSVIEW.c ****   _SendPacket(pPayloadStart, pPayload, SYSVIEW_EVTID_MARK_STOP);
2453:systemview/SEGGER_SYSVIEW.c ****   RECORD_END();
2454:systemview/SEGGER_SYSVIEW.c **** }
2455:systemview/SEGGER_SYSVIEW.c **** 
2456:systemview/SEGGER_SYSVIEW.c **** /*********************************************************************
2457:systemview/SEGGER_SYSVIEW.c **** *
2458:systemview/SEGGER_SYSVIEW.c **** *       SEGGER_SYSVIEW_Mark()
2459:systemview/SEGGER_SYSVIEW.c **** *
2460:systemview/SEGGER_SYSVIEW.c **** *  Function description
2461:systemview/SEGGER_SYSVIEW.c **** *    Record a Performance Marker intermediate event.
2462:systemview/SEGGER_SYSVIEW.c **** *
2463:systemview/SEGGER_SYSVIEW.c **** *  Parameters
2464:systemview/SEGGER_SYSVIEW.c **** *    MarkerId  - User defined ID for the marker.
2465:systemview/SEGGER_SYSVIEW.c **** */
2466:systemview/SEGGER_SYSVIEW.c **** void SEGGER_SYSVIEW_Mark(unsigned int MarkerId) {
2467:systemview/SEGGER_SYSVIEW.c ****   U8* pPayload;
2468:systemview/SEGGER_SYSVIEW.c ****   U8* pPayloadStart;
2469:systemview/SEGGER_SYSVIEW.c ****   RECORD_START(SEGGER_SYSVIEW_INFO_SIZE + 2 * SEGGER_SYSVIEW_QUANTA_U32);
2470:systemview/SEGGER_SYSVIEW.c ****   //
2471:systemview/SEGGER_SYSVIEW.c ****   pPayload = pPayloadStart;
2472:systemview/SEGGER_SYSVIEW.c ****   ENCODE_U32(pPayload, SYSVIEW_EVTID_EX_MARK);
2473:systemview/SEGGER_SYSVIEW.c ****   ENCODE_U32(pPayload, MarkerId);
2474:systemview/SEGGER_SYSVIEW.c ****   _SendPacket(pPayloadStart, pPayload, SYSVIEW_EVTID_EX);
2475:systemview/SEGGER_SYSVIEW.c ****   RECORD_END();
ARM GAS  C:\Users\20398\AppData\Local\Temp\cchI1MdI.s 			page 60


2476:systemview/SEGGER_SYSVIEW.c **** }
2477:systemview/SEGGER_SYSVIEW.c **** 
2478:systemview/SEGGER_SYSVIEW.c **** /*********************************************************************
2479:systemview/SEGGER_SYSVIEW.c **** *
2480:systemview/SEGGER_SYSVIEW.c **** *       SEGGER_SYSVIEW_NameMarker()
2481:systemview/SEGGER_SYSVIEW.c **** *
2482:systemview/SEGGER_SYSVIEW.c **** *  Function description
2483:systemview/SEGGER_SYSVIEW.c **** *    Send the name of a Performance Marker to be displayed in SystemView.
2484:systemview/SEGGER_SYSVIEW.c **** *
2485:systemview/SEGGER_SYSVIEW.c **** *    Marker names are usually set in the system description
2486:systemview/SEGGER_SYSVIEW.c **** *    callback, to ensure it is only sent when the SystemView Application
2487:systemview/SEGGER_SYSVIEW.c **** *    is connected.
2488:systemview/SEGGER_SYSVIEW.c **** *
2489:systemview/SEGGER_SYSVIEW.c **** *  Parameters
2490:systemview/SEGGER_SYSVIEW.c **** *    MarkerId   - User defined ID for the marker.
2491:systemview/SEGGER_SYSVIEW.c **** *    sName      - Pointer to the marker name. (Max. SEGGER_SYSVIEW_MAX_STRING_LEN Bytes)
2492:systemview/SEGGER_SYSVIEW.c **** */
2493:systemview/SEGGER_SYSVIEW.c **** void SEGGER_SYSVIEW_NameMarker(unsigned int MarkerId, const char* sName) {
2494:systemview/SEGGER_SYSVIEW.c ****   U8* pPayload;
2495:systemview/SEGGER_SYSVIEW.c ****   U8* pPayloadStart;
2496:systemview/SEGGER_SYSVIEW.c ****   RECORD_START(SEGGER_SYSVIEW_INFO_SIZE + 2 * SEGGER_SYSVIEW_QUANTA_U32 + 1 + SEGGER_SYSVIEW_MAX_ST
2497:systemview/SEGGER_SYSVIEW.c ****   //
2498:systemview/SEGGER_SYSVIEW.c ****   pPayload = pPayloadStart;
2499:systemview/SEGGER_SYSVIEW.c ****   ENCODE_U32(pPayload, SYSVIEW_EVTID_EX_NAME_MARKER);
2500:systemview/SEGGER_SYSVIEW.c ****   ENCODE_U32(pPayload, MarkerId);
2501:systemview/SEGGER_SYSVIEW.c ****   pPayload = _EncodeStr(pPayload, sName, SEGGER_SYSVIEW_MAX_STRING_LEN);
2502:systemview/SEGGER_SYSVIEW.c ****   _SendPacket(pPayloadStart, pPayload, SYSVIEW_EVTID_EX);
2503:systemview/SEGGER_SYSVIEW.c ****   RECORD_END();
2504:systemview/SEGGER_SYSVIEW.c **** }
2505:systemview/SEGGER_SYSVIEW.c **** 
2506:systemview/SEGGER_SYSVIEW.c **** /*********************************************************************
2507:systemview/SEGGER_SYSVIEW.c **** *
2508:systemview/SEGGER_SYSVIEW.c **** *       SEGGER_SYSVIEW_NameResource()
2509:systemview/SEGGER_SYSVIEW.c **** *
2510:systemview/SEGGER_SYSVIEW.c **** *  Function description
2511:systemview/SEGGER_SYSVIEW.c **** *    Send the name of a resource to be displayed in SystemView.
2512:systemview/SEGGER_SYSVIEW.c **** *
2513:systemview/SEGGER_SYSVIEW.c **** *    Marker names are usually set in the system description
2514:systemview/SEGGER_SYSVIEW.c **** *    callback, to ensure it is only sent when the SystemView Application
2515:systemview/SEGGER_SYSVIEW.c **** *    is connected.
2516:systemview/SEGGER_SYSVIEW.c **** *
2517:systemview/SEGGER_SYSVIEW.c **** *  Parameters
2518:systemview/SEGGER_SYSVIEW.c **** *    ResourceId - Id of the resource to be named. i.e. its address.
2519:systemview/SEGGER_SYSVIEW.c **** *    sName      - Pointer to the resource name. (Max. SEGGER_SYSVIEW_MAX_STRING_LEN Bytes)
2520:systemview/SEGGER_SYSVIEW.c **** */
2521:systemview/SEGGER_SYSVIEW.c **** void SEGGER_SYSVIEW_NameResource(U32 ResourceId, const char* sName) {
2522:systemview/SEGGER_SYSVIEW.c ****   U8* pPayload;
2523:systemview/SEGGER_SYSVIEW.c ****   U8* pPayloadStart;
2524:systemview/SEGGER_SYSVIEW.c ****   RECORD_START(SEGGER_SYSVIEW_INFO_SIZE + SEGGER_SYSVIEW_QUANTA_U32 + 1 + SEGGER_SYSVIEW_MAX_STRING
2525:systemview/SEGGER_SYSVIEW.c ****   //
2526:systemview/SEGGER_SYSVIEW.c ****   pPayload = pPayloadStart;
2527:systemview/SEGGER_SYSVIEW.c ****   ENCODE_U32(pPayload, SHRINK_ID(ResourceId));
2528:systemview/SEGGER_SYSVIEW.c ****   pPayload = _EncodeStr(pPayload, sName, SEGGER_SYSVIEW_MAX_STRING_LEN);
2529:systemview/SEGGER_SYSVIEW.c ****   _SendPacket(pPayloadStart, pPayload, SYSVIEW_EVTID_NAME_RESOURCE);
2530:systemview/SEGGER_SYSVIEW.c ****   RECORD_END();
2531:systemview/SEGGER_SYSVIEW.c **** }
2532:systemview/SEGGER_SYSVIEW.c **** 
ARM GAS  C:\Users\20398\AppData\Local\Temp\cchI1MdI.s 			page 61


2533:systemview/SEGGER_SYSVIEW.c **** /*********************************************************************
2534:systemview/SEGGER_SYSVIEW.c **** *
2535:systemview/SEGGER_SYSVIEW.c **** *       SEGGER_SYSVIEW_RegisterData()
2536:systemview/SEGGER_SYSVIEW.c **** *
2537:systemview/SEGGER_SYSVIEW.c **** *  Function description
2538:systemview/SEGGER_SYSVIEW.c **** *    Register data to sample the values via SystemView.
2539:systemview/SEGGER_SYSVIEW.c **** *
2540:systemview/SEGGER_SYSVIEW.c **** *    Register functions are usually set in the system description
2541:systemview/SEGGER_SYSVIEW.c **** *    callback, to ensure it is only sent when the SystemView Application
2542:systemview/SEGGER_SYSVIEW.c **** *    is connected.
2543:systemview/SEGGER_SYSVIEW.c **** *
2544:systemview/SEGGER_SYSVIEW.c **** *  Parameters
2545:systemview/SEGGER_SYSVIEW.c **** *    pInfo - Struct containing all possible properties that can be sent via this registration event
2546:systemview/SEGGER_SYSVIEW.c **** */
2547:systemview/SEGGER_SYSVIEW.c **** void SEGGER_SYSVIEW_RegisterData(SEGGER_SYSVIEW_DATA_REGISTER* pInfo) {
2548:systemview/SEGGER_SYSVIEW.c ****   U8* pPayload;
2549:systemview/SEGGER_SYSVIEW.c ****   U8* pPayloadStart;
2550:systemview/SEGGER_SYSVIEW.c ****   RECORD_START(SEGGER_SYSVIEW_INFO_SIZE + 8 * SEGGER_SYSVIEW_QUANTA_U32 + 1 + SEGGER_SYSVIEW_MAX_ST
2551:systemview/SEGGER_SYSVIEW.c ****   //
2552:systemview/SEGGER_SYSVIEW.c ****   pPayload = pPayloadStart;
2553:systemview/SEGGER_SYSVIEW.c ****   ENCODE_U32(pPayload, SYSVIEW_EVTID_EX_REGISTER_DATA);
2554:systemview/SEGGER_SYSVIEW.c ****   ENCODE_U32(pPayload, pInfo->ID);
2555:systemview/SEGGER_SYSVIEW.c ****   pPayload = _EncodeStr(pPayload, pInfo->sName, SEGGER_SYSVIEW_MAX_STRING_LEN);
2556:systemview/SEGGER_SYSVIEW.c ****   
2557:systemview/SEGGER_SYSVIEW.c ****   if (pInfo->sUnit != 0) {
2558:systemview/SEGGER_SYSVIEW.c ****     ENCODE_U32(pPayload, pInfo->DataType);
2559:systemview/SEGGER_SYSVIEW.c ****     ENCODE_U32(pPayload, pInfo->Offset);
2560:systemview/SEGGER_SYSVIEW.c ****     ENCODE_U32(pPayload, pInfo->RangeMin);
2561:systemview/SEGGER_SYSVIEW.c ****     ENCODE_U32(pPayload, pInfo->RangeMax);
2562:systemview/SEGGER_SYSVIEW.c ****     pPayload = _EncodeFloat(pPayload, pInfo->ScalingFactor);
2563:systemview/SEGGER_SYSVIEW.c ****     pPayload = _EncodeStr(pPayload, pInfo->sUnit, SEGGER_SYSVIEW_MAX_STRING_LEN);
2564:systemview/SEGGER_SYSVIEW.c ****   } else if (pInfo->ScalingFactor != 0) {
2565:systemview/SEGGER_SYSVIEW.c ****     ENCODE_U32(pPayload, pInfo->DataType);
2566:systemview/SEGGER_SYSVIEW.c ****     ENCODE_U32(pPayload, pInfo->Offset);
2567:systemview/SEGGER_SYSVIEW.c ****     ENCODE_U32(pPayload, pInfo->RangeMin);
2568:systemview/SEGGER_SYSVIEW.c ****     ENCODE_U32(pPayload, pInfo->RangeMax);
2569:systemview/SEGGER_SYSVIEW.c ****     pPayload = _EncodeFloat(pPayload, pInfo->ScalingFactor);
2570:systemview/SEGGER_SYSVIEW.c ****   } else if (pInfo->RangeMax != 0) {
2571:systemview/SEGGER_SYSVIEW.c ****     ENCODE_U32(pPayload, pInfo->DataType);
2572:systemview/SEGGER_SYSVIEW.c ****     ENCODE_U32(pPayload, pInfo->Offset);
2573:systemview/SEGGER_SYSVIEW.c ****     ENCODE_U32(pPayload, pInfo->RangeMin);
2574:systemview/SEGGER_SYSVIEW.c ****     ENCODE_U32(pPayload, pInfo->RangeMax);
2575:systemview/SEGGER_SYSVIEW.c ****   } else if (pInfo->RangeMin != 0) {
2576:systemview/SEGGER_SYSVIEW.c ****     ENCODE_U32(pPayload, pInfo->DataType);
2577:systemview/SEGGER_SYSVIEW.c ****     ENCODE_U32(pPayload, pInfo->Offset);
2578:systemview/SEGGER_SYSVIEW.c ****     ENCODE_U32(pPayload, pInfo->RangeMin);
2579:systemview/SEGGER_SYSVIEW.c ****   } else if (pInfo->Offset != 0) {
2580:systemview/SEGGER_SYSVIEW.c ****     ENCODE_U32(pPayload, pInfo->DataType);
2581:systemview/SEGGER_SYSVIEW.c ****     ENCODE_U32(pPayload, pInfo->Offset);
2582:systemview/SEGGER_SYSVIEW.c ****   } else if (pInfo->DataType != 0) {
2583:systemview/SEGGER_SYSVIEW.c ****     ENCODE_U32(pPayload, pInfo->DataType);
2584:systemview/SEGGER_SYSVIEW.c ****   }
2585:systemview/SEGGER_SYSVIEW.c **** 
2586:systemview/SEGGER_SYSVIEW.c ****   _SendPacket(pPayloadStart, pPayload, SYSVIEW_EVTID_EX);
2587:systemview/SEGGER_SYSVIEW.c ****   RECORD_END();
2588:systemview/SEGGER_SYSVIEW.c **** }
2589:systemview/SEGGER_SYSVIEW.c **** 
ARM GAS  C:\Users\20398\AppData\Local\Temp\cchI1MdI.s 			page 62


2590:systemview/SEGGER_SYSVIEW.c **** /*********************************************************************
2591:systemview/SEGGER_SYSVIEW.c **** *
2592:systemview/SEGGER_SYSVIEW.c **** *       SEGGER_SYSVIEW_HeapDefine()
2593:systemview/SEGGER_SYSVIEW.c **** *
2594:systemview/SEGGER_SYSVIEW.c **** *  Function description
2595:systemview/SEGGER_SYSVIEW.c **** *    Define heap.
2596:systemview/SEGGER_SYSVIEW.c **** *
2597:systemview/SEGGER_SYSVIEW.c **** *  Parameters
2598:systemview/SEGGER_SYSVIEW.c **** *    pHeap        - Pointer to heap control structure.
2599:systemview/SEGGER_SYSVIEW.c **** *    pBase        - Pointer to managed heap memory.
2600:systemview/SEGGER_SYSVIEW.c **** *    HeapSize     - Size of managed heap memory in bytes.
2601:systemview/SEGGER_SYSVIEW.c **** *    MetadataSize - Size of metadata associated with each heap allocation.
2602:systemview/SEGGER_SYSVIEW.c **** *
2603:systemview/SEGGER_SYSVIEW.c **** *  Additional information
2604:systemview/SEGGER_SYSVIEW.c **** *    SystemView can track allocations across multiple heaps.
2605:systemview/SEGGER_SYSVIEW.c **** *
2606:systemview/SEGGER_SYSVIEW.c **** *    HeapSize must be a multiple of the natural alignment unit of the
2607:systemview/SEGGER_SYSVIEW.c **** *    target.  This size is subject to compression, controlled by the
2608:systemview/SEGGER_SYSVIEW.c **** *    specific setting of SEGGER_SYSVIEW_ID_SHIFT.
2609:systemview/SEGGER_SYSVIEW.c **** *
2610:systemview/SEGGER_SYSVIEW.c **** *    MetadataSize defines the size of the per-allocation metadata.
2611:systemview/SEGGER_SYSVIEW.c **** *    For many heap implementations, the metadata size is a multiple of
2612:systemview/SEGGER_SYSVIEW.c **** *    the word size of the machine and typically contains the size
2613:systemview/SEGGER_SYSVIEW.c **** *    of the allocated block (used upon deallocation), optional
2614:systemview/SEGGER_SYSVIEW.c **** *    pointers to the preceding and/or following blocks, and optionally
2615:systemview/SEGGER_SYSVIEW.c **** *    a tag identifying the owner of the block.  Note that MetadataSize
2616:systemview/SEGGER_SYSVIEW.c **** *    is not compressed within the SystemView packet and is not
2617:systemview/SEGGER_SYSVIEW.c **** *    required to be a multiple of 1<<SEGGER_SYSVIEW_ID_SHIFT.
2618:systemview/SEGGER_SYSVIEW.c **** */
2619:systemview/SEGGER_SYSVIEW.c **** void SEGGER_SYSVIEW_HeapDefine(void* pHeap, void *pBase, unsigned int HeapSize, unsigned int Metada
2620:systemview/SEGGER_SYSVIEW.c ****   U8* pPayload;
2621:systemview/SEGGER_SYSVIEW.c ****   U8* pPayloadStart;
2622:systemview/SEGGER_SYSVIEW.c ****   RECORD_START(SEGGER_SYSVIEW_INFO_SIZE + 4 * SEGGER_SYSVIEW_QUANTA_U32);
2623:systemview/SEGGER_SYSVIEW.c ****   //
2624:systemview/SEGGER_SYSVIEW.c ****   pPayload = pPayloadStart;
2625:systemview/SEGGER_SYSVIEW.c ****   ENCODE_U32(pPayload, SYSVIEW_EVTID_EX_HEAP_DEFINE);
2626:systemview/SEGGER_SYSVIEW.c ****   ENCODE_U32(pPayload, SHRINK_ID((U32)pHeap));
2627:systemview/SEGGER_SYSVIEW.c ****   ENCODE_U32(pPayload, SHRINK_ID((U32)pBase));
2628:systemview/SEGGER_SYSVIEW.c ****   ENCODE_U32(pPayload, HeapSize >> SEGGER_SYSVIEW_ID_SHIFT);
2629:systemview/SEGGER_SYSVIEW.c ****   ENCODE_U32(pPayload, MetadataSize);
2630:systemview/SEGGER_SYSVIEW.c ****   _SendPacket(pPayloadStart, pPayload, SYSVIEW_EVTID_EX);
2631:systemview/SEGGER_SYSVIEW.c ****   RECORD_END();
2632:systemview/SEGGER_SYSVIEW.c **** }
2633:systemview/SEGGER_SYSVIEW.c **** 
2634:systemview/SEGGER_SYSVIEW.c **** /*********************************************************************
2635:systemview/SEGGER_SYSVIEW.c **** *
2636:systemview/SEGGER_SYSVIEW.c **** *       SEGGER_SYSVIEW_HeapAlloc()
2637:systemview/SEGGER_SYSVIEW.c **** *
2638:systemview/SEGGER_SYSVIEW.c **** *  Function description
2639:systemview/SEGGER_SYSVIEW.c **** *    Record a system-heap allocation event.
2640:systemview/SEGGER_SYSVIEW.c **** *
2641:systemview/SEGGER_SYSVIEW.c **** *  Parameters
2642:systemview/SEGGER_SYSVIEW.c **** *    pHeap       - Pointer to heap where allocation was made.
2643:systemview/SEGGER_SYSVIEW.c **** *    pUserData   - Pointer to allocated user data.
2644:systemview/SEGGER_SYSVIEW.c **** *    UserDataLen - Size of block allocated to hold user data, excluding any metadata.
2645:systemview/SEGGER_SYSVIEW.c **** *
2646:systemview/SEGGER_SYSVIEW.c **** *  Additional information
ARM GAS  C:\Users\20398\AppData\Local\Temp\cchI1MdI.s 			page 63


2647:systemview/SEGGER_SYSVIEW.c **** *    The user data must be correctly aligned for the architecture, which
2648:systemview/SEGGER_SYSVIEW.c **** *    typically requires that the alignment is at least the alignment
2649:systemview/SEGGER_SYSVIEW.c **** *    of a double or a long long.  pUserData is, therefore, compressed by
2650:systemview/SEGGER_SYSVIEW.c **** *    shrinking as IDs are compressed, controlled by the specific setting
2651:systemview/SEGGER_SYSVIEW.c **** *    of SEGGER_SYSVIEW_ID_SHIFT.
2652:systemview/SEGGER_SYSVIEW.c **** *
2653:systemview/SEGGER_SYSVIEW.c **** *    In the same way, UserDataLen must reflect the size of the allocated
2654:systemview/SEGGER_SYSVIEW.c **** *    block, not the allocation size requested by the application.  This
2655:systemview/SEGGER_SYSVIEW.c **** *    size is also subject to compression, controlled by the specific setting
2656:systemview/SEGGER_SYSVIEW.c **** *    of SEGGER_SYSVIEW_ID_SHIFT.
2657:systemview/SEGGER_SYSVIEW.c **** *
2658:systemview/SEGGER_SYSVIEW.c **** *    As an example, assume the allocator is running on a Cortex-M device
2659:systemview/SEGGER_SYSVIEW.c **** *    with SEGGER_SYSVIEW_ID_SHIFT set to 2 (the word alignment of the device).
2660:systemview/SEGGER_SYSVIEW.c **** *    If a user requests an allocation of 5 bytes, a hypothetical heap
2661:systemview/SEGGER_SYSVIEW.c **** *    allocator could allocate a block with size 32 bytes for this.  The value
2662:systemview/SEGGER_SYSVIEW.c **** *    of UserDataLen sent to SystemView for recording should be 32, not 5,
2663:systemview/SEGGER_SYSVIEW.c **** *    and the 32 is compressed by shifting by two bits, the configured value
2664:systemview/SEGGER_SYSVIEW.c **** *    of SEGGER_SYSVIEW_ID_SHIFT, and describes the number of bytes that are
2665:systemview/SEGGER_SYSVIEW.c **** *    consumed from managed memory from which SystemView can calculate
2666:systemview/SEGGER_SYSVIEW.c **** *    accurate heap metrics.
2667:systemview/SEGGER_SYSVIEW.c **** */
2668:systemview/SEGGER_SYSVIEW.c **** void SEGGER_SYSVIEW_HeapAlloc(void *pHeap, void* pUserData, unsigned int UserDataLen) {
2669:systemview/SEGGER_SYSVIEW.c ****   U8* pPayload;
2670:systemview/SEGGER_SYSVIEW.c ****   U8* pPayloadStart;
2671:systemview/SEGGER_SYSVIEW.c ****   RECORD_START(SEGGER_SYSVIEW_INFO_SIZE + 3 * SEGGER_SYSVIEW_QUANTA_U32);
2672:systemview/SEGGER_SYSVIEW.c ****   //
2673:systemview/SEGGER_SYSVIEW.c ****   pPayload = pPayloadStart;
2674:systemview/SEGGER_SYSVIEW.c ****   ENCODE_U32(pPayload, SYSVIEW_EVTID_EX_HEAP_ALLOC);
2675:systemview/SEGGER_SYSVIEW.c ****   ENCODE_U32(pPayload, SHRINK_ID((U32)pHeap));
2676:systemview/SEGGER_SYSVIEW.c ****   ENCODE_U32(pPayload, SHRINK_ID((U32)pUserData));
2677:systemview/SEGGER_SYSVIEW.c ****   ENCODE_U32(pPayload, UserDataLen >> SEGGER_SYSVIEW_ID_SHIFT);
2678:systemview/SEGGER_SYSVIEW.c ****   _SendPacket(pPayloadStart, pPayload, SYSVIEW_EVTID_EX);
2679:systemview/SEGGER_SYSVIEW.c ****   RECORD_END();
2680:systemview/SEGGER_SYSVIEW.c **** }
2681:systemview/SEGGER_SYSVIEW.c **** 
2682:systemview/SEGGER_SYSVIEW.c **** /*********************************************************************
2683:systemview/SEGGER_SYSVIEW.c **** *
2684:systemview/SEGGER_SYSVIEW.c **** *       SEGGER_SYSVIEW_HeapAllocEx()
2685:systemview/SEGGER_SYSVIEW.c **** *
2686:systemview/SEGGER_SYSVIEW.c **** *  Function description
2687:systemview/SEGGER_SYSVIEW.c **** *    Record a per-heap allocation event.
2688:systemview/SEGGER_SYSVIEW.c **** *
2689:systemview/SEGGER_SYSVIEW.c **** *  Parameters
2690:systemview/SEGGER_SYSVIEW.c **** *    pHeap       - Pointer to heap where allocation was made.
2691:systemview/SEGGER_SYSVIEW.c **** *    pUserData   - Pointer to allocated user data.
2692:systemview/SEGGER_SYSVIEW.c **** *    UserDataLen - Size of block allocated to hold user data, excluding any metadata.
2693:systemview/SEGGER_SYSVIEW.c **** *    Tag         - Block tag, typically used to identify the owner of the block.
2694:systemview/SEGGER_SYSVIEW.c **** *
2695:systemview/SEGGER_SYSVIEW.c **** *  Additional information
2696:systemview/SEGGER_SYSVIEW.c **** *    The user data must be correctly aligned for the architecture, which
2697:systemview/SEGGER_SYSVIEW.c **** *    typically requires that the alignment is at least the alignment
2698:systemview/SEGGER_SYSVIEW.c **** *    of a double or a long long.  pUserData is, therefore, compressed by
2699:systemview/SEGGER_SYSVIEW.c **** *    shrinking as IDs are compressed, controlled by the specific setting
2700:systemview/SEGGER_SYSVIEW.c **** *    of SEGGER_SYSVIEW_ID_SHIFT.
2701:systemview/SEGGER_SYSVIEW.c **** *
2702:systemview/SEGGER_SYSVIEW.c **** *    In the same way, UserDataLen must reflect the size of the allocated
2703:systemview/SEGGER_SYSVIEW.c **** *    block, not the allocation size requested by the application.  This
ARM GAS  C:\Users\20398\AppData\Local\Temp\cchI1MdI.s 			page 64


2704:systemview/SEGGER_SYSVIEW.c **** *    size is also subject to compression, controlled by the specific setting
2705:systemview/SEGGER_SYSVIEW.c **** *    of SEGGER_SYSVIEW_ID_SHIFT.
2706:systemview/SEGGER_SYSVIEW.c **** *
2707:systemview/SEGGER_SYSVIEW.c **** *    As an example, assume the allocator is running on a Cortex-M device
2708:systemview/SEGGER_SYSVIEW.c **** *    with SEGGER_SYSVIEW_ID_SHIFT set to 2 (the word alignment of the device).
2709:systemview/SEGGER_SYSVIEW.c **** *    If a user requests an allocation of 5 bytes, a hypothetical heap
2710:systemview/SEGGER_SYSVIEW.c **** *    allocator could allocate a block with size 32 bytes for this.  The value
2711:systemview/SEGGER_SYSVIEW.c **** *    of UserDataLen sent to SystemView for recording should be 32, not 5,
2712:systemview/SEGGER_SYSVIEW.c **** *    and the 32 is compressed by shifting by two bits, the configured value
2713:systemview/SEGGER_SYSVIEW.c **** *    of SEGGER_SYSVIEW_ID_SHIFT, and describes the number of bytes that are
2714:systemview/SEGGER_SYSVIEW.c **** *    consumed from managed memory from which SystemView can calculate
2715:systemview/SEGGER_SYSVIEW.c **** *    accurate heap metrics.
2716:systemview/SEGGER_SYSVIEW.c **** *
2717:systemview/SEGGER_SYSVIEW.c **** *  See also
2718:systemview/SEGGER_SYSVIEW.c **** *    SEGGER_SYSVIEW_HeapAlloc().
2719:systemview/SEGGER_SYSVIEW.c **** */
2720:systemview/SEGGER_SYSVIEW.c **** void SEGGER_SYSVIEW_HeapAllocEx(void *pHeap, void* pUserData, unsigned int UserDataLen, unsigned in
2721:systemview/SEGGER_SYSVIEW.c ****   U8* pPayload;
2722:systemview/SEGGER_SYSVIEW.c ****   U8* pPayloadStart;
2723:systemview/SEGGER_SYSVIEW.c ****   RECORD_START(SEGGER_SYSVIEW_INFO_SIZE + 5 * SEGGER_SYSVIEW_QUANTA_U32);
2724:systemview/SEGGER_SYSVIEW.c ****   //
2725:systemview/SEGGER_SYSVIEW.c ****   pPayload = pPayloadStart;
2726:systemview/SEGGER_SYSVIEW.c ****   ENCODE_U32(pPayload, SYSVIEW_EVTID_EX_HEAP_ALLOC_EX);
2727:systemview/SEGGER_SYSVIEW.c ****   ENCODE_U32(pPayload, SHRINK_ID((U32)pHeap));
2728:systemview/SEGGER_SYSVIEW.c ****   ENCODE_U32(pPayload, SHRINK_ID((U32)pUserData));
2729:systemview/SEGGER_SYSVIEW.c ****   ENCODE_U32(pPayload, UserDataLen >> SEGGER_SYSVIEW_ID_SHIFT);
2730:systemview/SEGGER_SYSVIEW.c ****   ENCODE_U32(pPayload, Tag);
2731:systemview/SEGGER_SYSVIEW.c ****   _SendPacket(pPayloadStart, pPayload, SYSVIEW_EVTID_EX);
2732:systemview/SEGGER_SYSVIEW.c ****   RECORD_END();
2733:systemview/SEGGER_SYSVIEW.c **** }
2734:systemview/SEGGER_SYSVIEW.c **** 
2735:systemview/SEGGER_SYSVIEW.c **** /*********************************************************************
2736:systemview/SEGGER_SYSVIEW.c **** *
2737:systemview/SEGGER_SYSVIEW.c **** *       SEGGER_SYSVIEW_HeapFree()
2738:systemview/SEGGER_SYSVIEW.c **** *
2739:systemview/SEGGER_SYSVIEW.c **** *  Function description
2740:systemview/SEGGER_SYSVIEW.c **** *    Record a heap deallocation event.
2741:systemview/SEGGER_SYSVIEW.c **** *
2742:systemview/SEGGER_SYSVIEW.c **** *  Parameters
2743:systemview/SEGGER_SYSVIEW.c **** *    pHeap     - Pointer to heap where allocation was made.
2744:systemview/SEGGER_SYSVIEW.c **** *    pUserData - Pointer to allocated user data.
2745:systemview/SEGGER_SYSVIEW.c **** *
2746:systemview/SEGGER_SYSVIEW.c **** *  Additional information
2747:systemview/SEGGER_SYSVIEW.c **** *    SystemViews track allocations and knows the size of the
2748:systemview/SEGGER_SYSVIEW.c **** *    allocated data.
2749:systemview/SEGGER_SYSVIEW.c **** */
2750:systemview/SEGGER_SYSVIEW.c **** void SEGGER_SYSVIEW_HeapFree(void* pHeap, void* pUserData) {
2751:systemview/SEGGER_SYSVIEW.c ****   U8* pPayload;
2752:systemview/SEGGER_SYSVIEW.c ****   U8* pPayloadStart;
2753:systemview/SEGGER_SYSVIEW.c ****   RECORD_START(SEGGER_SYSVIEW_INFO_SIZE + 2 * SEGGER_SYSVIEW_QUANTA_U32);
2754:systemview/SEGGER_SYSVIEW.c ****   //
2755:systemview/SEGGER_SYSVIEW.c ****   pPayload = pPayloadStart;
2756:systemview/SEGGER_SYSVIEW.c ****   ENCODE_U32(pPayload, SYSVIEW_EVTID_EX_HEAP_FREE);
2757:systemview/SEGGER_SYSVIEW.c ****   ENCODE_U32(pPayload, SHRINK_ID((U32)pHeap));
2758:systemview/SEGGER_SYSVIEW.c ****   ENCODE_U32(pPayload, SHRINK_ID((U32)pUserData));
2759:systemview/SEGGER_SYSVIEW.c ****   _SendPacket(pPayloadStart, pPayload, SYSVIEW_EVTID_EX);
2760:systemview/SEGGER_SYSVIEW.c ****   RECORD_END();
ARM GAS  C:\Users\20398\AppData\Local\Temp\cchI1MdI.s 			page 65


2761:systemview/SEGGER_SYSVIEW.c **** }
2762:systemview/SEGGER_SYSVIEW.c **** 
2763:systemview/SEGGER_SYSVIEW.c **** /*********************************************************************
2764:systemview/SEGGER_SYSVIEW.c **** *
2765:systemview/SEGGER_SYSVIEW.c **** *       SEGGER_SYSVIEW_SendPacket()
2766:systemview/SEGGER_SYSVIEW.c **** *
2767:systemview/SEGGER_SYSVIEW.c **** *  Function description
2768:systemview/SEGGER_SYSVIEW.c **** *    Send an event packet.
2769:systemview/SEGGER_SYSVIEW.c **** *
2770:systemview/SEGGER_SYSVIEW.c **** *  Parameters
2771:systemview/SEGGER_SYSVIEW.c **** *    pPacket      - Pointer to the start of the packet.
2772:systemview/SEGGER_SYSVIEW.c **** *    pPayloadEnd  - Pointer to the end of the payload.
2773:systemview/SEGGER_SYSVIEW.c **** *                   Make sure there are at least 5 bytes free after the payload.
2774:systemview/SEGGER_SYSVIEW.c **** *    EventId      - Id of the event packet.
2775:systemview/SEGGER_SYSVIEW.c **** *
2776:systemview/SEGGER_SYSVIEW.c **** *  Return value
2777:systemview/SEGGER_SYSVIEW.c **** *    !=0:  Success, Message sent.
2778:systemview/SEGGER_SYSVIEW.c **** *    ==0:  Buffer full, Message *NOT* sent.
2779:systemview/SEGGER_SYSVIEW.c **** */
2780:systemview/SEGGER_SYSVIEW.c **** int SEGGER_SYSVIEW_SendPacket(U8* pPacket, U8* pPayloadEnd, unsigned int EventId) {
2781:systemview/SEGGER_SYSVIEW.c **** #if (SEGGER_SYSVIEW_USE_STATIC_BUFFER == 1)
2782:systemview/SEGGER_SYSVIEW.c ****   SEGGER_SYSVIEW_LOCK();
2783:systemview/SEGGER_SYSVIEW.c **** #endif
2784:systemview/SEGGER_SYSVIEW.c ****   _SendPacket(pPacket + 4, pPayloadEnd, EventId);
2785:systemview/SEGGER_SYSVIEW.c **** #if (SEGGER_SYSVIEW_USE_STATIC_BUFFER == 1)
2786:systemview/SEGGER_SYSVIEW.c ****   SEGGER_SYSVIEW_UNLOCK();
2787:systemview/SEGGER_SYSVIEW.c **** #endif
2788:systemview/SEGGER_SYSVIEW.c ****   return 0;
2789:systemview/SEGGER_SYSVIEW.c **** }
2790:systemview/SEGGER_SYSVIEW.c **** 
2791:systemview/SEGGER_SYSVIEW.c **** /*********************************************************************
2792:systemview/SEGGER_SYSVIEW.c **** *
2793:systemview/SEGGER_SYSVIEW.c **** *       SEGGER_SYSVIEW_EncodeU32()
2794:systemview/SEGGER_SYSVIEW.c **** *
2795:systemview/SEGGER_SYSVIEW.c **** *  Function description
2796:systemview/SEGGER_SYSVIEW.c **** *    Encode a U32 in variable-length format.
2797:systemview/SEGGER_SYSVIEW.c **** *
2798:systemview/SEGGER_SYSVIEW.c **** *  Parameters
2799:systemview/SEGGER_SYSVIEW.c **** *    pPayload - Pointer to where U32 will be encoded.
2800:systemview/SEGGER_SYSVIEW.c **** *    Value    - The 32-bit value to be encoded.
2801:systemview/SEGGER_SYSVIEW.c **** *
2802:systemview/SEGGER_SYSVIEW.c **** *  Return value
2803:systemview/SEGGER_SYSVIEW.c **** *    Pointer to the byte following the value, i.e. the first free
2804:systemview/SEGGER_SYSVIEW.c **** *    byte in the payload and the next position to store payload
2805:systemview/SEGGER_SYSVIEW.c **** *    content.
2806:systemview/SEGGER_SYSVIEW.c **** */
2807:systemview/SEGGER_SYSVIEW.c **** U8* SEGGER_SYSVIEW_EncodeU32(U8* pPayload, U32 Value) {
 883              		.loc 1 2807 55 is_stmt 1 view -0
 884              		.cfi_startproc
 885              		@ args = 0, pretend = 0, frame = 0
 886              		@ frame_needed = 0, uses_anonymous_args = 0
 887              		@ link register save eliminated.
 888              	.LBB9:
2808:systemview/SEGGER_SYSVIEW.c ****   ENCODE_U32(pPayload, Value);
 889              		.loc 1 2808 3 view .LVU281
 890              		.loc 1 2808 3 view .LVU282
 891              		.loc 1 2808 3 view .LVU283
ARM GAS  C:\Users\20398\AppData\Local\Temp\cchI1MdI.s 			page 66


 892              		.loc 1 2808 3 view .LVU284
 893              		.loc 1 2808 3 view .LVU285
 894 0000 04E0     		b	.L61
 895              	.LVL94:
 896              	.L62:
 897              		.loc 1 2808 3 discriminator 3 view .LVU286
 898              		.loc 1 2808 3 is_stmt 0 discriminator 3 view .LVU287
 899 0002 61F07F03 		orn	r3, r1, #127
 900 0006 00F8013B 		strb	r3, [r0], #1
 901              	.LVL95:
 902              		.loc 1 2808 3 is_stmt 1 discriminator 3 view .LVU288
 903 000a C909     		lsrs	r1, r1, #7
 904              	.LVL96:
 905              	.L61:
 906              		.loc 1 2808 3 discriminator 1 view .LVU289
 907 000c 7F29     		cmp	r1, #127
 908 000e F8D8     		bhi	.L62
 909              		.loc 1 2808 3 discriminator 4 view .LVU290
 910              		.loc 1 2808 3 discriminator 4 view .LVU291
 911              	.LVL97:
 912              		.loc 1 2808 3 is_stmt 0 discriminator 4 view .LVU292
 913 0010 00F8011B 		strb	r1, [r0], #1
 914              	.LVL98:
 915              		.loc 1 2808 3 is_stmt 1 discriminator 4 view .LVU293
 916              		.loc 1 2808 3 is_stmt 0 discriminator 4 view .LVU294
 917              	.LBE9:
 918              		.loc 1 2808 3 is_stmt 1 discriminator 4 view .LVU295
 919              		.loc 1 2808 30 discriminator 4 view .LVU296
2809:systemview/SEGGER_SYSVIEW.c ****   return pPayload;
 920              		.loc 1 2809 3 discriminator 4 view .LVU297
2810:systemview/SEGGER_SYSVIEW.c **** }
 921              		.loc 1 2810 1 is_stmt 0 discriminator 4 view .LVU298
 922 0014 7047     		bx	lr
 923              		.cfi_endproc
 924              	.LFE61:
 926              		.section	.text.SEGGER_SYSVIEW_EncodeString,"ax",%progbits
 927              		.align	1
 928              		.global	SEGGER_SYSVIEW_EncodeString
 929              		.syntax unified
 930              		.thumb
 931              		.thumb_func
 933              	SEGGER_SYSVIEW_EncodeString:
 934              	.LVL99:
 935              	.LFB62:
2811:systemview/SEGGER_SYSVIEW.c **** 
2812:systemview/SEGGER_SYSVIEW.c **** /*********************************************************************
2813:systemview/SEGGER_SYSVIEW.c **** *
2814:systemview/SEGGER_SYSVIEW.c **** *       SEGGER_SYSVIEW_EncodeString()
2815:systemview/SEGGER_SYSVIEW.c **** *
2816:systemview/SEGGER_SYSVIEW.c **** *  Function description
2817:systemview/SEGGER_SYSVIEW.c **** *    Encode a string in variable-length format.
2818:systemview/SEGGER_SYSVIEW.c **** *
2819:systemview/SEGGER_SYSVIEW.c **** *  Parameters
2820:systemview/SEGGER_SYSVIEW.c **** *    pPayload - Pointer to where string will be encoded.
2821:systemview/SEGGER_SYSVIEW.c **** *    s        - String to encode.
2822:systemview/SEGGER_SYSVIEW.c **** *    MaxLen   - Maximum number of characters to encode from string.
2823:systemview/SEGGER_SYSVIEW.c **** *
ARM GAS  C:\Users\20398\AppData\Local\Temp\cchI1MdI.s 			page 67


2824:systemview/SEGGER_SYSVIEW.c **** *  Return value
2825:systemview/SEGGER_SYSVIEW.c **** *    Pointer to the byte following the value, i.e. the first free
2826:systemview/SEGGER_SYSVIEW.c **** *    byte in the payload and the next position to store payload
2827:systemview/SEGGER_SYSVIEW.c **** *    content.
2828:systemview/SEGGER_SYSVIEW.c **** *
2829:systemview/SEGGER_SYSVIEW.c **** *  Additional information
2830:systemview/SEGGER_SYSVIEW.c **** *    The string is encoded as a count byte followed by the contents
2831:systemview/SEGGER_SYSVIEW.c **** *    of the string.
2832:systemview/SEGGER_SYSVIEW.c **** *    No more than 1 + MaxLen bytes will be encoded to the payload.
2833:systemview/SEGGER_SYSVIEW.c **** */
2834:systemview/SEGGER_SYSVIEW.c **** U8* SEGGER_SYSVIEW_EncodeString(U8* pPayload, const char* s, unsigned int MaxLen) {
 936              		.loc 1 2834 83 is_stmt 1 view -0
 937              		.cfi_startproc
 938              		@ args = 0, pretend = 0, frame = 0
 939              		@ frame_needed = 0, uses_anonymous_args = 0
 940              		.loc 1 2834 83 is_stmt 0 view .LVU300
 941 0000 08B5     		push	{r3, lr}
 942              	.LCFI14:
 943              		.cfi_def_cfa_offset 8
 944              		.cfi_offset 3, -8
 945              		.cfi_offset 14, -4
2835:systemview/SEGGER_SYSVIEW.c ****   return _EncodeStr(pPayload, s, MaxLen);
 946              		.loc 1 2835 3 is_stmt 1 view .LVU301
 947              		.loc 1 2835 10 is_stmt 0 view .LVU302
 948 0002 FFF7FEFF 		bl	_EncodeStr
 949              	.LVL100:
2836:systemview/SEGGER_SYSVIEW.c **** }
 950              		.loc 1 2836 1 view .LVU303
 951 0006 08BD     		pop	{r3, pc}
 952              		.cfi_endproc
 953              	.LFE62:
 955              		.section	.text.SEGGER_SYSVIEW_EncodeData,"ax",%progbits
 956              		.align	1
 957              		.global	SEGGER_SYSVIEW_EncodeData
 958              		.syntax unified
 959              		.thumb
 960              		.thumb_func
 962              	SEGGER_SYSVIEW_EncodeData:
 963              	.LVL101:
 964              	.LFB63:
2837:systemview/SEGGER_SYSVIEW.c **** 
2838:systemview/SEGGER_SYSVIEW.c **** /*********************************************************************
2839:systemview/SEGGER_SYSVIEW.c **** *
2840:systemview/SEGGER_SYSVIEW.c **** *       SEGGER_SYSVIEW_EncodeData()
2841:systemview/SEGGER_SYSVIEW.c **** *
2842:systemview/SEGGER_SYSVIEW.c **** *  Function description
2843:systemview/SEGGER_SYSVIEW.c **** *    Encode a byte buffer in variable-length format.
2844:systemview/SEGGER_SYSVIEW.c **** *
2845:systemview/SEGGER_SYSVIEW.c **** *  Parameters
2846:systemview/SEGGER_SYSVIEW.c **** *    pPayload - Pointer to where string will be encoded.
2847:systemview/SEGGER_SYSVIEW.c **** *    pSrc     - Pointer to data buffer to be encoded.
2848:systemview/SEGGER_SYSVIEW.c **** *    NumBytes - Number of bytes in the buffer to be encoded.
2849:systemview/SEGGER_SYSVIEW.c **** *
2850:systemview/SEGGER_SYSVIEW.c **** *  Return value
2851:systemview/SEGGER_SYSVIEW.c **** *    Pointer to the byte following the value, i.e. the first free
2852:systemview/SEGGER_SYSVIEW.c **** *    byte in the payload and the next position to store payload
2853:systemview/SEGGER_SYSVIEW.c **** *    content.
ARM GAS  C:\Users\20398\AppData\Local\Temp\cchI1MdI.s 			page 68


2854:systemview/SEGGER_SYSVIEW.c **** *
2855:systemview/SEGGER_SYSVIEW.c **** *  Additional information
2856:systemview/SEGGER_SYSVIEW.c **** *    The data is encoded as a count byte followed by the contents
2857:systemview/SEGGER_SYSVIEW.c **** *    of the data buffer.
2858:systemview/SEGGER_SYSVIEW.c **** *    Make sure NumBytes + 1 bytes are free for the payload.
2859:systemview/SEGGER_SYSVIEW.c **** */
2860:systemview/SEGGER_SYSVIEW.c **** U8* SEGGER_SYSVIEW_EncodeData(U8 *pPayload, const char* pSrc, unsigned int NumBytes) {
 965              		.loc 1 2860 86 is_stmt 1 view -0
 966              		.cfi_startproc
